
========================================================================

** ELF Header Information

    File Name: D:\Novosense\NSUC1602\C001_Customer\001_°¬Îª\005_FAN\lib_version\lib_version_v0.1\FOC_App\MDK\Objects\NSUC1602_Eval.axf

    Machine class: ELFCLASS32 (32-bit)
    Data encoding: ELFDATA2LSB (Little endian)
    Header version: EV_CURRENT (Current version)
    Operating System ABI: none
    ABI Version: 0
    File Type: ET_EXEC (Executable) (2)
    Machine: EM_ARM (ARM)

    Image Entry point: 0x0800009d
    Flags: EF_ARM_HASENTRY + EF_ARM_ABI_FLOAT_SOFT (0x05000202)

    ARM ELF revision: 5 (ABI version 2)

    Conforms to Soft float procedure-call standard

    Built with
    Component: ARM Compiler 5.06 update 7 (build 960) Tool: armasm [4d35fa]
    Component: ARM Compiler 5.06 update 7 (build 960) Tool: armlink [4d3601]

    Header size: 52 bytes (0x34)
    Program header entry size: 32 bytes (0x20)
    Section header entry size: 40 bytes (0x28)

    Program header entries: 1
    Section header entries: 16

    Program header offset: 401988 (0x00062244)
    Section header offset: 402020 (0x00062264)

    Section header string table index: 15

========================================================================

** Program header #0 (PT_LOAD) [PF_X + PF_W + PF_R + PF_ARM_ENTRY]
    Size : 17284 bytes (15520 bytes in file)
    Virtual address: 0x08000000 (Alignment 8)


========================================================================

** Section #1 'ER_IROM1' (SHT_PROGBITS) [SHF_ALLOC + SHF_EXECINSTR]
    Size   : 15316 bytes (alignment 4)
    Address: 0x08000000

    $d.realdata
    RESET
    __Vectors
        0x08000000:    200007b0    ...     DCD    536872880
        0x08000004:    0800009d    ....    DCD    134217885
        0x08000008:    080000a5    ....    DCD    134217893
        0x0800000c:    080000ad    ....    DCD    134217901
        0x08000010:    080000b5    ....    DCD    134217909
        0x08000014:    080000bd    ....    DCD    134217917
        0x08000018:    080000c5    ....    DCD    134217925
        0x0800001c:    00000000    ....    DCD    0
        0x08000020:    00000000    ....    DCD    0
        0x08000024:    00000000    ....    DCD    0
        0x08000028:    00000000    ....    DCD    0
        0x0800002c:    080000cd    ....    DCD    134217933
        0x08000030:    080000d5    ....    DCD    134217941
        0x08000034:    00000000    ....    DCD    0
        0x08000038:    080000dd    ....    DCD    134217949
        0x0800003c:    08002bdd    .+..    DCD    134228957
        0x08000040:    080000ed    ....    DCD    134217965
        0x08000044:    080000ed    ....    DCD    134217965
        0x08000048:    080000ed    ....    DCD    134217965
        0x0800004c:    080018e9    ....    DCD    134224105
        0x08000050:    08000791    ....    DCD    134219665
        0x08000054:    080000ed    ....    DCD    134217965
        0x08000058:    080001b5    ....    DCD    134218165
        0x0800005c:    08001295    ....    DCD    134222485
        0x08000060:    080000ed    ....    DCD    134217965
        0x08000064:    0800099d    ....    DCD    134220189
        0x08000068:    080000ed    ....    DCD    134217965
        0x0800006c:    08001871    q...    DCD    134223985
        0x08000070:    080000ed    ....    DCD    134217965
        0x08000074:    080000ed    ....    DCD    134217965
        0x08000078:    080000ed    ....    DCD    134217965
        0x0800007c:    080024b1    .$..    DCD    134227121
        0x08000080:    080006d1    ....    DCD    134219473
    $t
    .ARM.Collect$$$$00000000
    .ARM.Collect$$$$00000001
    __Vectors_End
    __main
    _main_stk
        0x08000084:    f8dfd010    ....    LDR      sp,__lit__00000000 ; [0x8000098] = 0x200007b0
    .ARM.Collect$$$$00000004
    _main_scatterload
        0x08000088:    f000f882    ....    BL       __I$use$fp ; 0x8000190
    .ARM.Collect$$$$00000008
    .ARM.Collect$$$$0000000A
    .ARM.Collect$$$$0000000B
    __main_after_scatterload
    _main_clock
    _main_cpp_init
    _main_init
        0x0800008c:    4800        .H      LDR      r0,[pc,#0] ; [0x8000090] = 0x8002f2f
        0x0800008e:    4700        .G      BX       r0
    $d
        0x08000090:    08002f2f    //..    DCD    134229807
    $t
    .ARM.Collect$$$$0000000E
    __rt_lib_shutdown_fini
        0x08000094:    f3af8000    ....    NOP.W    
    $d
    .ARM.Collect$$$$00002712
    __lit__00000000
    .ARM.Collect$$$$0000000F
    .ARM.Collect$$$$00000011
    __rt_final_cpp
    __rt_final_exit
        0x08000098:    200007b0    ...     DCD    536872880
    $t
    .text
    Reset_Handler
        0x0800009c:    4814        .H      LDR      r0,[pc,#80] ; [0x80000f0] = 0x8002c0d
        0x0800009e:    4780        .G      BLX      r0
        0x080000a0:    4814        .H      LDR      r0,[pc,#80] ; [0x80000f4] = 0x8000085
        0x080000a2:    4700        .G      BX       r0
    NMI_Handler
        0x080000a4:    b500        ..      PUSH     {lr}
        0x080000a6:    f002f991    ....    BL       NMIHandler ; 0x80023cc
        0x080000aa:    bd00        ..      POP      {pc}
    HardFault_Handler
        0x080000ac:    b500        ..      PUSH     {lr}
        0x080000ae:    f001fab1    ....    BL       HardFaultHandler ; 0x8001614
        0x080000b2:    bd00        ..      POP      {pc}
    MemManage_Handler
        0x080000b4:    b500        ..      PUSH     {lr}
        0x080000b6:    f002f97b    ..{.    BL       MemManageHandler ; 0x80023b0
        0x080000ba:    bd00        ..      POP      {pc}
    BusFault_Handler
        0x080000bc:    b500        ..      PUSH     {lr}
        0x080000be:    f000fb06    ....    BL       BusFaultHandler ; 0x80006ce
        0x080000c2:    bd00        ..      POP      {pc}
    UsageFault_Handler
        0x080000c4:    b500        ..      PUSH     {lr}
        0x080000c6:    f002fde1    ....    BL       UsageFaultHandler ; 0x8002c8c
        0x080000ca:    bd00        ..      POP      {pc}
    SVC_Handler
        0x080000cc:    b500        ..      PUSH     {lr}
        0x080000ce:    f002fa63    ..c.    BL       SVCHandler ; 0x8002598
        0x080000d2:    bd00        ..      POP      {pc}
    DebugMon_Handler
        0x080000d4:    b500        ..      PUSH     {lr}
        0x080000d6:    f000fb47    ..G.    BL       DebugMonHandler ; 0x8000768
        0x080000da:    bd00        ..      POP      {pc}
    PendSV_Handler
        0x080000dc:    b500        ..      PUSH     {lr}
        0x080000de:    f002fa0f    ....    BL       PendSVHandler ; 0x8002500
        0x080000e2:    bd00        ..      POP      {pc}
        0x080000e4:    b500        ..      PUSH     {lr}
        0x080000e6:    f002fd6d    ..m.    BL       SysTickHandler ; 0x8002bc4
        0x080000ea:    bd00        ..      POP      {pc}
    DWDG_IRQHandler
    GPIO_IRQHandler
    PWMIO_IRQHandler
    RFI_IRQHandler
    SPI_IRQHandler
    TIM0_IRQHandler
    TIM1_IRQHandler
    UART1_IRQHandler
    WWDG_IRQHandler
        0x080000ec:    e7fe        ..      B        DWDG_IRQHandler ; 0x80000ec
    $d
        0x080000ee:    0000        ..      DCW    0
        0x080000f0:    08002c0d    .,..    DCD    134229005
        0x080000f4:    08000085    ....    DCD    134217861
    $t
    .text
    __aeabi_llsl
    _ll_shift_l
        0x080000f8:    2a20         *      CMP      r2,#0x20
        0x080000fa:    db04        ..      BLT      0x8000106 ; __aeabi_llsl + 14
        0x080000fc:    3a20         :      SUBS     r2,r2,#0x20
        0x080000fe:    fa00f102    ....    LSL      r1,r0,r2
        0x08000102:    2000        .       MOVS     r0,#0
        0x08000104:    4770        pG      BX       lr
        0x08000106:    4091        .@      LSLS     r1,r1,r2
        0x08000108:    f1c20320    .. .    RSB      r3,r2,#0x20
        0x0800010c:    fa20f303     ...    LSR      r3,r0,r3
        0x08000110:    4319        .C      ORRS     r1,r1,r3
        0x08000112:    4090        .@      LSLS     r0,r0,r2
        0x08000114:    4770        pG      BX       lr
    .text
    __aeabi_lasr
    _ll_sshift_r
        0x08000116:    2a20         *      CMP      r2,#0x20
        0x08000118:    db06        ..      BLT      0x8000128 ; __aeabi_lasr + 18
        0x0800011a:    17cb        ..      ASRS     r3,r1,#31
        0x0800011c:    3a20         :      SUBS     r2,r2,#0x20
        0x0800011e:    fa41f002    A...    ASR      r0,r1,r2
        0x08000122:    ea4373e0    C..s    ORR      r3,r3,r0,ASR #31
        0x08000126:    e006        ..      B        0x8000136 ; __aeabi_lasr + 32
        0x08000128:    fa41f302    A...    ASR      r3,r1,r2
        0x0800012c:    40d0        .@      LSRS     r0,r0,r2
        0x0800012e:    f1c20220    .. .    RSB      r2,r2,#0x20
        0x08000132:    4091        .@      LSLS     r1,r1,r2
        0x08000134:    4308        .C      ORRS     r0,r0,r1
        0x08000136:    4619        .F      MOV      r1,r3
        0x08000138:    4770        pG      BX       lr
    .text
    __aeabi_memcpy
    __aeabi_memcpy4
    __aeabi_memcpy8
        0x0800013a:    ea400301    @...    ORR      r3,r0,r1
        0x0800013e:    079b        ..      LSLS     r3,r3,#30
        0x08000140:    d003        ..      BEQ      0x800014a ; __aeabi_memcpy + 16
        0x08000142:    e009        ..      B        0x8000158 ; __aeabi_memcpy + 30
        0x08000144:    c908        ..      LDM      r1!,{r3}
        0x08000146:    1f12        ..      SUBS     r2,r2,#4
        0x08000148:    c008        ..      STM      r0!,{r3}
        0x0800014a:    2a04        .*      CMP      r2,#4
        0x0800014c:    d2fa        ..      BCS      0x8000144 ; __aeabi_memcpy + 10
        0x0800014e:    e003        ..      B        0x8000158 ; __aeabi_memcpy + 30
        0x08000150:    f8113b01    ...;    LDRB     r3,[r1],#1
        0x08000154:    f8003b01    ...;    STRB     r3,[r0],#1
        0x08000158:    1e52        R.      SUBS     r2,r2,#1
        0x0800015a:    d2f9        ..      BCS      0x8000150 ; __aeabi_memcpy + 22
        0x0800015c:    4770        pG      BX       lr
    .text
    __aeabi_f2iz
        0x0800015e:    f0004200    ...B    AND      r2,r0,#0x80000000
        0x08000162:    f0204000     ..@    BIC      r0,r0,#0x80000000
        0x08000166:    0dc1        ..      LSRS     r1,r0,#23
        0x08000168:    f3c00016    ....    UBFX     r0,r0,#0,#23
        0x0800016c:    f4400000    @...    ORR      r0,r0,#0x800000
        0x08000170:    297f        .)      CMP      r1,#0x7f
        0x08000172:    da01        ..      BGE      0x8000178 ; __aeabi_f2iz + 26
        0x08000174:    2000        .       MOVS     r0,#0
        0x08000176:    4770        pG      BX       lr
        0x08000178:    2996        .)      CMP      r1,#0x96
        0x0800017a:    dc03        ..      BGT      0x8000184 ; __aeabi_f2iz + 38
        0x0800017c:    f1c10196    ....    RSB      r1,r1,#0x96
        0x08000180:    40c8        .@      LSRS     r0,r0,r1
        0x08000182:    e001        ..      B        0x8000188 ; __aeabi_f2iz + 42
        0x08000184:    3996        .9      SUBS     r1,r1,#0x96
        0x08000186:    4088        .@      LSLS     r0,r0,r1
        0x08000188:    2a00        .*      CMP      r2,#0
        0x0800018a:    d0f4        ..      BEQ      0x8000176 ; __aeabi_f2iz + 24
        0x0800018c:    4240        @B      RSBS     r0,r0,#0
        0x0800018e:    4770        pG      BX       lr
    .text
    .text
    __I$use$fp
    __scatterload
    __scatterload_rt2
        0x08000190:    4c06        .L      LDR      r4,[pc,#24] ; [0x80001ac] = 0x8003bb4
        0x08000192:    4d07        .M      LDR      r5,[pc,#28] ; [0x80001b0] = 0x8003bd4
        0x08000194:    e006        ..      B        0x80001a4 ; __I$use$fp + 20
        0x08000196:    68e0        .h      LDR      r0,[r4,#0xc]
        0x08000198:    f0400301    @...    ORR      r3,r0,#1
        0x0800019c:    e8940007    ....    LDM      r4,{r0-r2}
        0x080001a0:    4798        .G      BLX      r3
        0x080001a2:    3410        .4      ADDS     r4,r4,#0x10
        0x080001a4:    42ac        .B      CMP      r4,r5
        0x080001a6:    d3f6        ..      BCC      0x8000196 ; __I$use$fp + 6
        0x080001a8:    f7ffff70    ..p.    BL       __main_after_scatterload ; 0x800008c
    $d
        0x080001ac:    08003bb4    .;..    DCD    134233012
        0x080001b0:    08003bd4    .;..    DCD    134233044
    $t
    i.ADC_IRQHandler
    ADC_IRQHandler
        0x080001b4:    4903        .I      LDR      r1,[pc,#12] ; [0x80001c4] = 0x40022000
        0x080001b6:    6dc8        .m      LDR      r0,[r1,#0x5c]
        0x080001b8:    07c0        ..      LSLS     r0,r0,#31
        0x080001ba:    d001        ..      BEQ      0x80001c0 ; ADC_IRQHandler + 12
        0x080001bc:    2001        .       MOVS     r0,#1
        0x080001be:    65c8        .e      STR      r0,[r1,#0x5c]
        0x080001c0:    4770        pG      BX       lr
    $d
        0x080001c2:    0000        ..      DCW    0
        0x080001c4:    40022000    . .@    DCD    1073881088
    $t
    i.AMC_InitObsrv_F16
    AMC_InitObsrv_F16
        0x080001c8:    2100        .!      MOVS     r1,#0
        0x080001ca:    8001        ..      STRH     r1,[r0,#0]
        0x080001cc:    8041        A.      STRH     r1,[r0,#2]
        0x080001ce:    6041        A`      STR      r1,[r0,#4]
        0x080001d0:    6081        .`      STR      r1,[r0,#8]
        0x080001d2:    6181        .a      STR      r1,[r0,#0x18]
        0x080001d4:    8201        ..      STRH     r1,[r0,#0x10]
        0x080001d6:    6281        .b      STR      r1,[r0,#0x28]
        0x080001d8:    8401        ..      STRH     r1,[r0,#0x20]
        0x080001da:    8681        ..      STRH     r1,[r0,#0x34]
        0x080001dc:    86c1        ..      STRH     r1,[r0,#0x36]
        0x080001de:    62c1        .b      STR      r1,[r0,#0x2c]
        0x080001e0:    6301        .c      STR      r1,[r0,#0x30]
        0x080001e2:    4770        pG      BX       lr
    i.AMC_PMSMBemfObsvrDQ_F16
    AMC_PMSMBemfObsvrDQ_F16
        0x080001e4:    e92d4fff    -..O    PUSH     {r0-r11,lr}
        0x080001e8:    b087        ..      SUB      sp,sp,#0x1c
        0x080001ea:    461d        .F      MOV      r5,r3
        0x080001ec:    9808        ..      LDR      r0,[sp,#0x20]
        0x080001ee:    4616        .F      MOV      r6,r2
        0x080001f0:    a903        ..      ADD      r1,sp,#0xc
        0x080001f2:    f9b00000    ....    LDRSH    r0,[r0,#0]
        0x080001f6:    9c14        ..      LDR      r4,[sp,#0x50]
        0x080001f8:    f002f85a    ..Z.    BL       MM_ThetaTransferTrigonoLut ; 0x80022b0
        0x080001fc:    aa03        ..      ADD      r2,sp,#0xc
        0x080001fe:    4631        1F      MOV      r1,r6
        0x08000200:    4668        hF      MOV      r0,sp
        0x08000202:    f001f8c5    ....    BL       GMC_ParkeF16 ; 0x8001390
        0x08000206:    aa03        ..      ADD      r2,sp,#0xc
        0x08000208:    4629        )F      MOV      r1,r5
        0x0800020a:    a802        ..      ADD      r0,sp,#8
        0x0800020c:    f001f8c0    ....    BL       GMC_ParkeF16 ; 0x8001390
        0x08000210:    e9d4ba01    ....    LDRD     r11,r10,[r4,#4]
        0x08000214:    f9bd1000    ....    LDRSH    r1,[sp,#0]
        0x08000218:    f34b30cf    K..0    SBFX     r0,r11,#15,#16
        0x0800021c:    1a08        ..      SUBS     r0,r1,r0
        0x0800021e:    f300000f    ....    SSAT     r0,#16,r0
        0x08000222:    f104011c    ....    ADD      r1,r4,#0x1c
        0x08000226:    f000ffa6    ....    BL       GCF_CtrlPIrAW_F16 ; 0x8001176
        0x0800022a:    8020         .      STRH     r0,[r4,#0]
        0x0800022c:    4606        .F      MOV      r6,r0
        0x0800022e:    f9bd1002    ....    LDRSH    r1,[sp,#2]
        0x08000232:    f34a30cf    J..0    SBFX     r0,r10,#15,#16
        0x08000236:    1a08        ..      SUBS     r0,r1,r0
        0x08000238:    f300000f    ....    SSAT     r0,#16,r0
        0x0800023c:    f104010c    ....    ADD      r1,r4,#0xc
        0x08000240:    f000ff99    ....    BL       GCF_CtrlPIrAW_F16 ; 0x8001176
        0x08000244:    9001        ..      STR      r0,[sp,#4]
        0x08000246:    8060        `.      STRH     r0,[r4,#2]
        0x08000248:    9005        ..      STR      r0,[sp,#0x14]
        0x0800024a:    f9b4103c    ..<.    LDRSH    r1,[r4,#0x3c]
        0x0800024e:    9801        ..      LDR      r0,[sp,#4]
        0x08000250:    fb01f306    ....    MUL      r3,r1,r6
        0x08000254:    4341        AC      MULS     r1,r0,r1
        0x08000256:    f9bd2008    ...     LDRSH    r2,[sp,#8]
        0x0800025a:    f9b4003a    ..:.    LDRSH    r0,[r4,#0x3a]
        0x0800025e:    f06f4740    o.@G    MVN      r7,#0xc0000000
        0x08000262:    fb023300    ...3    MLA      r3,r2,r0,r3
        0x08000266:    f04f4c80    O..L    MOV      r12,#0x40000000
        0x0800026a:    07ba        ..      LSLS     r2,r7,#30
        0x0800026c:    4563        cE      CMP      r3,r12
        0x0800026e:    db01        ..      BLT      0x8000274 ; AMC_PMSMBemfObsvrDQ_F16 + 144
        0x08000270:    463b        ;F      MOV      r3,r7
        0x08000272:    e002        ..      B        0x800027a ; AMC_PMSMBemfObsvrDQ_F16 + 150
        0x08000274:    4293        .B      CMP      r3,r2
        0x08000276:    da00        ..      BGE      0x800027a ; AMC_PMSMBemfObsvrDQ_F16 + 150
        0x08000278:    4613        .F      MOV      r3,r2
        0x0800027a:    461d        .F      MOV      r5,r3
        0x0800027c:    f9bd300a    ...0    LDRSH    r3,[sp,#0xa]
        0x08000280:    fb031300    ....    MLA      r3,r3,r0,r1
        0x08000284:    4563        cE      CMP      r3,r12
        0x08000286:    db01        ..      BLT      0x800028c ; AMC_PMSMBemfObsvrDQ_F16 + 168
        0x08000288:    463b        ;F      MOV      r3,r7
        0x0800028a:    e002        ..      B        0x8000292 ; AMC_PMSMBemfObsvrDQ_F16 + 174
        0x0800028c:    4293        .B      CMP      r3,r2
        0x0800028e:    da00        ..      BGE      0x8000292 ; AMC_PMSMBemfObsvrDQ_F16 + 174
        0x08000290:    4613        .F      MOV      r3,r2
        0x08000292:    9807        ..      LDR      r0,[sp,#0x1c]
        0x08000294:    17df        ..      ASRS     r7,r3,#31
        0x08000296:    f9b02000    ...     LDRSH    r2,[r0,#0]
        0x0800029a:    f9b4003e    ..>.    LDRSH    r0,[r4,#0x3e]
        0x0800029e:    4342        BC      MULS     r2,r0,r2
        0x080002a0:    f9bd0002    ....    LDRSH    r0,[sp,#2]
        0x080002a4:    03c0        ..      LSLS     r0,r0,#15
        0x080002a6:    fb820100    ....    SMULL    r0,r1,r2,r0
        0x080002aa:    0f80        ..      LSRS     r0,r0,#30
        0x080002ac:    ea400081    @...    ORR      r0,r0,r1,LSL #2
        0x080002b0:    17c1        ..      ASRS     r1,r0,#31
        0x080002b2:    1940        @.      ADDS     r0,r0,r5
        0x080002b4:    eb4171e5    A..q    ADC      r1,r1,r5,ASR #31
        0x080002b8:    f9bd5000    ...P    LDRSH    r5,[sp,#0]
        0x080002bc:    ea4f35c5    O..5    LSL      r5,r5,#15
        0x080002c0:    fb822505    ...%    SMULL    r2,r5,r2,r5
        0x080002c4:    ea4f7292    O..r    LSR      r2,r2,#30
        0x080002c8:    ea420285    B...    ORR      r2,r2,r5,LSL #2
        0x080002cc:    ebb30902    ....    SUBS     r9,r3,r2
        0x080002d0:    eb6778e2    g..x    SBC      r8,r7,r2,ASR #31
        0x080002d4:    f9b47042    ..Bp    LDRSH    r7,[r4,#0x42]
        0x080002d8:    2f00        ./      CMP      r7,#0
        0x080002da:    dd0a        ..      BLE      0x80002f2 ; AMC_PMSMBemfObsvrDQ_F16 + 270
        0x080002dc:    463a        :F      MOV      r2,r7
        0x080002de:    f7ffff0b    ....    BL       __aeabi_llsl ; 0x80000f8
        0x080002e2:    4605        .F      MOV      r5,r0
        0x080002e4:    9104        ..      STR      r1,[sp,#0x10]
        0x080002e6:    463a        :F      MOV      r2,r7
        0x080002e8:    4648        HF      MOV      r0,r9
        0x080002ea:    4641        AF      MOV      r1,r8
        0x080002ec:    f7ffff04    ....    BL       __aeabi_llsl ; 0x80000f8
        0x080002f0:    e00b        ..      B        0x800030a ; AMC_PMSMBemfObsvrDQ_F16 + 294
        0x080002f2:    427a        zB      RSBS     r2,r7,#0
        0x080002f4:    b212        ..      SXTH     r2,r2
        0x080002f6:    4617        .F      MOV      r7,r2
        0x080002f8:    f7ffff0d    ....    BL       __aeabi_lasr ; 0x8000116
        0x080002fc:    4605        .F      MOV      r5,r0
        0x080002fe:    9104        ..      STR      r1,[sp,#0x10]
        0x08000300:    4648        HF      MOV      r0,r9
        0x08000302:    4641        AF      MOV      r1,r8
        0x08000304:    463a        :F      MOV      r2,r7
        0x08000306:    f7ffff06    ....    BL       __aeabi_lasr ; 0x8000116
        0x0800030a:    f8942034    ..4     LDRB     r2,[r4,#0x34]
        0x0800030e:    6ae7        .j      LDR      r7,[r4,#0x2c]
        0x08000310:    07d3        ..      LSLS     r3,r2,#31
        0x08000312:    433b        ;C      ORRS     r3,r3,r7
        0x08000314:    f8947036    ..6p    LDRB     r7,[r4,#0x36]
        0x08000318:    f8d4c030    ..0.    LDR      r12,[r4,#0x30]
        0x0800031c:    e9c4500b    ...P    STRD     r5,r0,[r4,#0x2c]
        0x08000320:    ea4c77c7    L..w    ORR      r7,r12,r7,LSL #31
        0x08000324:    f8ddc010    ....    LDR      r12,[sp,#0x10]
        0x08000328:    18eb        ..      ADDS     r3,r5,r3
        0x0800032a:    ea4f084c    O.L.    LSL      r8,r12,#1
        0x0800032e:    ea487cd5    H..|    ORR      r12,r8,r5,LSR #31
        0x08000332:    f8a4c034    ..4.    STRH     r12,[r4,#0x34]
        0x08000336:    ea4f0c41    O.A.    LSL      r12,r1,#1
        0x0800033a:    ea4c71d0    L..q    ORR      r1,r12,r0,LSR #31
        0x0800033e:    86e1        ..      STRH     r1,[r4,#0x36]
        0x08000340:    f9b41040    ..@.    LDRSH    r1,[r4,#0x40]
        0x08000344:    19c5        ..      ADDS     r5,r0,r7
        0x08000346:    ea4f31c1    O..1    LSL      r1,r1,#15
        0x0800034a:    fb8b7001    ...p    SMULL    r7,r0,r11,r1
        0x0800034e:    ea4f0c80    O...    LSL      r12,r0,#2
        0x08000352:    ea4c7097    L..p    ORR      r0,r12,r7,LSR #30
        0x08000356:    fb8a7101    ...q    SMULL    r7,r1,r10,r1
        0x0800035a:    ea4f0c81    O...    LSL      r12,r1,#2
        0x0800035e:    1818        ..      ADDS     r0,r3,r0
        0x08000360:    2200        ."      MOVS     r2,#0
        0x08000362:    ea4c7197    L..q    ORR      r1,r12,r7,LSR #30
        0x08000366:    1869        i.      ADDS     r1,r5,r1
        0x08000368:    f300001e    ....    SSAT     r0,#31,r0
        0x0800036c:    f301011e    ....    SSAT     r1,#31,r1
        0x08000370:    e9c40101    ....    STRD     r0,r1,[r4,#4]
        0x08000374:    9805        ..      LDR      r0,[sp,#0x14]
        0x08000376:    b130        0.      CBZ      r0,0x8000386 ; AMC_PMSMBemfObsvrDQ_F16 + 418
        0x08000378:    4270        pB      RSBS     r0,r6,#0
        0x0800037a:    b201        ..      SXTH     r1,r0
        0x0800037c:    9801        ..      LDR      r0,[sp,#4]
        0x0800037e:    f001fe99    ....    BL       MM_QuartAtanF16 ; 0x80020b4
        0x08000382:    8720         .      STRH     r0,[r4,#0x38]
        0x08000384:    e000        ..      B        0x8000388 ; AMC_PMSMBemfObsvrDQ_F16 + 420
        0x08000386:    8722        ".      STRH     r2,[r4,#0x38]
        0x08000388:    f9b42038    ..8     LDRSH    r2,[r4,#0x38]
        0x0800038c:    e9dd0107    ....    LDRD     r0,r1,[sp,#0x1c]
        0x08000390:    f1040344    ..D.    ADD      r3,r4,#0x44
        0x08000394:    f000f803    ....    BL       AMC_TrackObsrv_F16 ; 0x800039e
        0x08000398:    b00b        ..      ADD      sp,sp,#0x2c
        0x0800039a:    e8bd8ff0    ....    POP      {r4-r11,pc}
    i.AMC_TrackObsrv_F16
    AMC_TrackObsrv_F16
        0x0800039e:    b570        p.      PUSH     {r4-r6,lr}
        0x080003a0:    460e        .F      MOV      r6,r1
        0x080003a2:    4604        .F      MOV      r4,r0
        0x080003a4:    461d        .F      MOV      r5,r3
        0x080003a6:    4619        .F      MOV      r1,r3
        0x080003a8:    4610        .F      MOV      r0,r2
        0x080003aa:    f000fee4    ....    BL       GCF_CtrlPIrAW_F16 ; 0x8001176
        0x080003ae:    8020         .      STRH     r0,[r4,#0]
        0x080003b0:    f1050110    ....    ADD      r1,r5,#0x10
        0x080003b4:    f000ff26    ..&.    BL       GCF_IntegratorTR_F16 ; 0x8001204
        0x080003b8:    8030        0.      STRH     r0,[r6,#0]
        0x080003ba:    f9b40000    ....    LDRSH    r0,[r4,#0]
        0x080003be:    f105011c    ....    ADD      r1,r5,#0x1c
        0x080003c2:    f000ff31    ..1.    BL       GCF_LpFilterMA_F16 ; 0x8001228
        0x080003c6:    8020         .      STRH     r0,[r4,#0]
        0x080003c8:    bd70        p.      POP      {r4-r6,pc}
        0x080003ca:    0000        ..      MOVS     r0,r0
    i.AutomaticMode
    AutomaticMode
        0x080003cc:    4b13        .K      LDR      r3,[pc,#76] ; [0x800041c] = 0x200000cc
        0x080003ce:    b510        ..      PUSH     {r4,lr}
        0x080003d0:    f9b310ae    ....    LDRSH    r1,[r3,#0xae]
        0x080003d4:    4248        HB      RSBS     r0,r1,#0
        0x080003d6:    2900        .)      CMP      r1,#0
        0x080003d8:    dd01        ..      BLE      0x80003de ; AutomaticMode + 18
        0x080003da:    460a        .F      MOV      r2,r1
        0x080003dc:    e000        ..      B        0x80003e0 ; AutomaticMode + 20
        0x080003de:    4602        .F      MOV      r2,r0
        0x080003e0:    f9b340c8    ...@    LDRSH    r4,[r3,#0xc8]
        0x080003e4:    b212        ..      SXTH     r2,r2
        0x080003e6:    42a2        .B      CMP      r2,r4
        0x080003e8:    da01        ..      BGE      0x80003ee ; AutomaticMode + 34
        0x080003ea:    2000        .       MOVS     r0,#0
        0x080003ec:    e012        ..      B        0x8000414 ; AutomaticMode + 72
        0x080003ee:    2900        .)      CMP      r1,#0
        0x080003f0:    dd01        ..      BLE      0x80003f6 ; AutomaticMode + 42
        0x080003f2:    460a        .F      MOV      r2,r1
        0x080003f4:    e000        ..      B        0x80003f8 ; AutomaticMode + 44
        0x080003f6:    4602        .F      MOV      r2,r0
        0x080003f8:    b212        ..      SXTH     r2,r2
        0x080003fa:    42a2        .B      CMP      r2,r4
        0x080003fc:    db09        ..      BLT      0x8000412 ; AutomaticMode + 70
        0x080003fe:    2900        .)      CMP      r1,#0
        0x08000400:    dc00        ..      BGT      0x8000404 ; AutomaticMode + 56
        0x08000402:    4601        .F      MOV      r1,r0
        0x08000404:    b208        ..      SXTH     r0,r1
        0x08000406:    f9b310ca    ....    LDRSH    r1,[r3,#0xca]
        0x0800040a:    4288        .B      CMP      r0,r1
        0x0800040c:    da01        ..      BGE      0x8000412 ; AutomaticMode + 70
        0x0800040e:    2001        .       MOVS     r0,#1
        0x08000410:    e000        ..      B        0x8000414 ; AutomaticMode + 72
        0x08000412:    2002        .       MOVS     r0,#2
        0x08000414:    f8830144    ..D.    STRB     r0,[r3,#0x144]
        0x08000418:    2001        .       MOVS     r0,#1
        0x0800041a:    bd10        ..      POP      {r4,pc}
    $d
        0x0800041c:    200000cc    ...     DCD    536871116
    $t
    i.BSM_BitEndCallback
    BSM_BitEndCallback
        0x08000420:    e92d41f0    -..A    PUSH     {r4-r8,lr}
        0x08000424:    4604        .F      MOV      r4,r0
        0x08000426:    483b        ;H      LDR      r0,[pc,#236] ; [0x8000514] = 0x20000064
        0x08000428:    460e        .F      MOV      r6,r1
        0x0800042a:    4615        .F      MOV      r5,r2
        0x0800042c:    7941        Ay      LDRB     r1,[r0,#5]
        0x0800042e:    290c        .)      CMP      r1,#0xc
        0x08000430:    d201        ..      BCS      0x8000436 ; BSM_BitEndCallback + 22
        0x08000432:    1c49        I.      ADDS     r1,r1,#1
        0x08000434:    7141        Aq      STRB     r1,[r0,#5]
        0x08000436:    b2c9        ..      UXTB     r1,r1
        0x08000438:    4a37        7J      LDR      r2,[pc,#220] ; [0x8000518] = 0x40002000
        0x0800043a:    2701        .'      MOVS     r7,#1
        0x0800043c:    2303        .#      MOVS     r3,#3
        0x0800043e:    290d        .)      CMP      r1,#0xd
        0x08000440:    d212        ..      BCS      0x8000468 ; BSM_BitEndCallback + 72
        0x08000442:    e8dff001    ....    TBB      [pc,r1]
    $d
        0x08000446:    0711        ..      DCW    1809
        0x08000448:    21130707    ...!    DCD    554895111
        0x0800044c:    482c2121    !!,H    DCD    1210851617
        0x08000450:    00514848    HHQ.    DCD    5326920
    $t
        0x08000454:    7900        .y      LDRB     r0,[r0,#4]
        0x08000456:    2800        .(      CMP      r0,#0
        0x08000458:    d006        ..      BEQ      0x8000468 ; BSM_BitEndCallback + 72
        0x0800045a:    2803        .(      CMP      r0,#3
        0x0800045c:    d204        ..      BCS      0x8000468 ; BSM_BitEndCallback + 72
        0x0800045e:    f000f8fd    ....    BL       BSM_ShuntMeasurement ; 0x800065c
        0x08000462:    8821        !.      LDRH     r1,[r4,#0]
        0x08000464:    4408        .D      ADD      r0,r0,r1
        0x08000466:    8020         .      STRH     r0,[r4,#0]
        0x08000468:    e8bd81f0    ....    POP      {r4-r8,pc}
        0x0800046c:    7900        .y      LDRB     r0,[r0,#4]
        0x0800046e:    2800        .(      CMP      r0,#0
        0x08000470:    d0fa        ..      BEQ      0x8000468 ; BSM_BitEndCallback + 72
        0x08000472:    2803        .(      CMP      r0,#3
        0x08000474:    d2f8        ..      BCS      0x8000468 ; BSM_BitEndCallback + 72
        0x08000476:    f9b40000    ....    LDRSH    r0,[r4,#0]
        0x0800047a:    fb90f0f3    ....    SDIV     r0,r0,r3
        0x0800047e:    8020         .      STRH     r0,[r4,#0]
        0x08000480:    6810        .h      LDR      r0,[r2,#0]
        0x08000482:    f0400004    @...    ORR      r0,r0,#4
        0x08000486:    e024        $.      B        0x80004d2 ; BSM_BitEndCallback + 178
        0x08000488:    7900        .y      LDRB     r0,[r0,#4]
        0x0800048a:    2800        .(      CMP      r0,#0
        0x0800048c:    d0ec        ..      BEQ      0x8000468 ; BSM_BitEndCallback + 72
        0x0800048e:    2803        .(      CMP      r0,#3
        0x08000490:    d2ea        ..      BCS      0x8000468 ; BSM_BitEndCallback + 72
        0x08000492:    f000f8e3    ....    BL       BSM_ShuntMeasurement ; 0x800065c
        0x08000496:    8831        1.      LDRH     r1,[r6,#0]
        0x08000498:    4408        .D      ADD      r0,r0,r1
        0x0800049a:    8030        0.      STRH     r0,[r6,#0]
        0x0800049c:    e7e4        ..      B        0x8000468 ; BSM_BitEndCallback + 72
        0x0800049e:    7901        .y      LDRB     r1,[r0,#4]
        0x080004a0:    2900        .)      CMP      r1,#0
        0x080004a2:    d0e1        ..      BEQ      0x8000468 ; BSM_BitEndCallback + 72
        0x080004a4:    2903        .)      CMP      r1,#3
        0x080004a6:    d2df        ..      BCS      0x8000468 ; BSM_BitEndCallback + 72
        0x080004a8:    f9b61000    ....    LDRSH    r1,[r6,#0]
        0x080004ac:    fb91f1f3    ....    SDIV     r1,r1,r3
        0x080004b0:    b209        ..      SXTH     r1,r1
        0x080004b2:    8031        1.      STRH     r1,[r6,#0]
        0x080004b4:    f9b43000    ...0    LDRSH    r3,[r4,#0]
        0x080004b8:    1ac9        ..      SUBS     r1,r1,r3
        0x080004ba:    29a8        .)      CMP      r1,#0xa8
        0x080004bc:    dd04        ..      BLE      0x80004c8 ; BSM_BitEndCallback + 168
        0x080004be:    7107        .q      STRB     r7,[r0,#4]
        0x080004c0:    6810        .h      LDR      r0,[r2,#0]
        0x080004c2:    f0200004     ...    BIC      r0,r0,#4
        0x080004c6:    e004        ..      B        0x80004d2 ; BSM_BitEndCallback + 178
        0x080004c8:    2102        .!      MOVS     r1,#2
        0x080004ca:    7101        .q      STRB     r1,[r0,#4]
        0x080004cc:    6810        .h      LDR      r0,[r2,#0]
        0x080004ce:    f0400010    @...    ORR      r0,r0,#0x10
        0x080004d2:    6010        .`      STR      r0,[r2,#0]
        0x080004d4:    e7c8        ..      B        0x8000468 ; BSM_BitEndCallback + 72
        0x080004d6:    7900        .y      LDRB     r0,[r0,#4]
        0x080004d8:    2802        .(      CMP      r0,#2
        0x080004da:    d1c5        ..      BNE      0x8000468 ; BSM_BitEndCallback + 72
        0x080004dc:    f000f8be    ....    BL       BSM_ShuntMeasurement ; 0x800065c
        0x080004e0:    8829        ).      LDRH     r1,[r5,#0]
        0x080004e2:    4408        .D      ADD      r0,r0,r1
        0x080004e4:    8028        (.      STRH     r0,[r5,#0]
        0x080004e6:    e7bf        ..      B        0x8000468 ; BSM_BitEndCallback + 72
        0x080004e8:    7901        .y      LDRB     r1,[r0,#4]
        0x080004ea:    2902        .)      CMP      r1,#2
        0x080004ec:    d10d        ..      BNE      0x800050a ; BSM_BitEndCallback + 234
        0x080004ee:    f9b51000    ....    LDRSH    r1,[r5,#0]
        0x080004f2:    fb91f1f3    ....    SDIV     r1,r1,r3
        0x080004f6:    b209        ..      SXTH     r1,r1
        0x080004f8:    8029        ).      STRH     r1,[r5,#0]
        0x080004fa:    f9b42000    ...     LDRSH    r2,[r4,#0]
        0x080004fe:    1a89        ..      SUBS     r1,r1,r2
        0x08000500:    29a8        .)      CMP      r1,#0xa8
        0x08000502:    dd01        ..      BLE      0x8000508 ; BSM_BitEndCallback + 232
        0x08000504:    7107        .q      STRB     r7,[r0,#4]
        0x08000506:    e000        ..      B        0x800050a ; BSM_BitEndCallback + 234
        0x08000508:    7103        .q      STRB     r3,[r0,#4]
        0x0800050a:    e8bd41f0    ...A    POP      {r4-r8,lr}
        0x0800050e:    f000b85b    ..[.    B.W      BSM_Reset ; 0x80005c8
    $d
        0x08000512:    0000        ..      DCW    0
        0x08000514:    20000064    d..     DCD    536871012
        0x08000518:    40002000    . .@    DCD    1073750016
    $t
    i.BSM_GetBSMNodeStatus
    BSM_GetBSMNodeStatus
        0x0800051c:    4801        .H      LDR      r0,[pc,#4] ; [0x8000524] = 0x20000064
        0x0800051e:    7900        .y      LDRB     r0,[r0,#4]
        0x08000520:    4770        pG      BX       lr
    $d
        0x08000522:    0000        ..      DCW    0
        0x08000524:    20000064    d..     DCD    536871012
    $t
    i.BSM_InitShuntMeasurement
    BSM_InitShuntMeasurement
        0x08000528:    4b24        $K      LDR      r3,[pc,#144] ; [0x80005bc] = 0x20000064
        0x0800052a:    b510        ..      PUSH     {r4,lr}
        0x0800052c:    4a24        $J      LDR      r2,[pc,#144] ; [0x80005c0] = 0x20000268
        0x0800052e:    6919        .i      LDR      r1,[r3,#0x10]
        0x08000530:    2000        .       MOVS     r0,#0
        0x08000532:    f8514020    Q. @    LDR      r4,[r1,r0,LSL #2]
        0x08000536:    f8424020    B. @    STR      r4,[r2,r0,LSL #2]
        0x0800053a:    1c40        @.      ADDS     r0,r0,#1
        0x0800053c:    b2c0        ..      UXTB     r0,r0
        0x0800053e:    280d        .(      CMP      r0,#0xd
        0x08000540:    d3f7        ..      BCC      0x8000532 ; BSM_InitShuntMeasurement + 10
        0x08000542:    4820         H      LDR      r0,[pc,#128] ; [0x80005c4] = 0x40022000
        0x08000544:    6d81        .m      LDR      r1,[r0,#0x58]
        0x08000546:    6159        Ya      STR      r1,[r3,#0x14]
        0x08000548:    2101        .!      MOVS     r1,#1
        0x0800054a:    7199        .q      STRB     r1,[r3,#6]
        0x0800054c:    6801        .h      LDR      r1,[r0,#0]
        0x0800054e:    f021011c    !...    BIC      r1,r1,#0x1c
        0x08000552:    6001        .`      STR      r1,[r0,#0]
        0x08000554:    6801        .h      LDR      r1,[r0,#0]
        0x08000556:    f42171e0    !..q    BIC      r1,r1,#0x1c0
        0x0800055a:    6001        .`      STR      r1,[r0,#0]
        0x0800055c:    6801        .h      LDR      r1,[r0,#0]
        0x0800055e:    f4415180    A..Q    ORR      r1,r1,#0x1000
        0x08000562:    6001        .`      STR      r1,[r0,#0]
        0x08000564:    6801        .h      LDR      r1,[r0,#0]
        0x08000566:    f4217100    !..q    BIC      r1,r1,#0x200
        0x0800056a:    6001        .`      STR      r1,[r0,#0]
        0x0800056c:    6801        .h      LDR      r1,[r0,#0]
        0x0800056e:    f4216180    !..a    BIC      r1,r1,#0x400
        0x08000572:    6001        .`      STR      r1,[r0,#0]
        0x08000574:    6801        .h      LDR      r1,[r0,#0]
        0x08000576:    f4215100    !..Q    BIC      r1,r1,#0x2000
        0x0800057a:    6001        .`      STR      r1,[r0,#0]
        0x0800057c:    6841        Ah      LDR      r1,[r0,#4]
        0x0800057e:    f021013f    !.?.    BIC      r1,r1,#0x3f
        0x08000582:    3119        .1      ADDS     r1,r1,#0x19
        0x08000584:    6041        A`      STR      r1,[r0,#4]
        0x08000586:    2100        .!      MOVS     r1,#0
        0x08000588:    6581        .e      STR      r1,[r0,#0x58]
        0x0800058a:    60c1        .`      STR      r1,[r0,#0xc]
        0x0800058c:    6101        .a      STR      r1,[r0,#0x10]
        0x0800058e:    68c1        .h      LDR      r1,[r0,#0xc]
        0x08000590:    f0410110    A...    ORR      r1,r1,#0x10
        0x08000594:    60c1        .`      STR      r1,[r0,#0xc]
        0x08000596:    68c1        .h      LDR      r1,[r0,#0xc]
        0x08000598:    f021010f    !...    BIC      r1,r1,#0xf
        0x0800059c:    1d49        I.      ADDS     r1,r1,#5
        0x0800059e:    60c1        .`      STR      r1,[r0,#0xc]
        0x080005a0:    6941        Ai      LDR      r1,[r0,#0x14]
        0x080005a2:    f4214100    !..A    BIC      r1,r1,#0x8000
        0x080005a6:    6141        Aa      STR      r1,[r0,#0x14]
        0x080005a8:    6941        Ai      LDR      r1,[r0,#0x14]
        0x080005aa:    f36f010e    o...    BFC      r1,#0,#15
        0x080005ae:    1c49        I.      ADDS     r1,r1,#1
        0x080005b0:    6141        Aa      STR      r1,[r0,#0x14]
        0x080005b2:    6801        .h      LDR      r1,[r0,#0]
        0x080005b4:    f0410101    A...    ORR      r1,r1,#1
        0x080005b8:    6001        .`      STR      r1,[r0,#0]
        0x080005ba:    bd10        ..      POP      {r4,pc}
    $d
        0x080005bc:    20000064    d..     DCD    536871012
        0x080005c0:    20000268    h..     DCD    536871528
        0x080005c4:    40022000    . .@    DCD    1073881088
    $t
    i.BSM_Reset
    BSM_Reset
        0x080005c8:    b570        p.      PUSH     {r4-r6,lr}
        0x080005ca:    f04f21e0    O..!    MOV      r1,#0xe000e000
        0x080005ce:    f44f6000    O..`    MOV      r0,#0x800
        0x080005d2:    f8c10180    ....    STR      r0,[r1,#0x180]
        0x080005d6:    480e        .H      LDR      r0,[pc,#56] ; [0x8000610] = 0x40002000
        0x080005d8:    2500        .%      MOVS     r5,#0
        0x080005da:    6045        E`      STR      r5,[r0,#4]
        0x080005dc:    2102        .!      MOVS     r1,#2
        0x080005de:    6001        .`      STR      r1,[r0,#0]
        0x080005e0:    4c0c        .L      LDR      r4,[pc,#48] ; [0x8000614] = 0x40022000
        0x080005e2:    6820         h      LDR      r0,[r4,#0]
        0x080005e4:    f0200001     ...    BIC      r0,r0,#1
        0x080005e8:    6020         `      STR      r0,[r4,#0]
        0x080005ea:    4b0b        .K      LDR      r3,[pc,#44] ; [0x8000618] = 0x20000064
        0x080005ec:    7998        .y      LDRB     r0,[r3,#6]
        0x080005ee:    b160        `.      CBZ      r0,0x800060a ; BSM_Reset + 66
        0x080005f0:    490a        .I      LDR      r1,[pc,#40] ; [0x800061c] = 0x20000268
        0x080005f2:    691a        .i      LDR      r2,[r3,#0x10]
        0x080005f4:    2000        .       MOVS     r0,#0
        0x080005f6:    f8516020    Q. `    LDR      r6,[r1,r0,LSL #2]
        0x080005fa:    f8426020    B. `    STR      r6,[r2,r0,LSL #2]
        0x080005fe:    1c40        @.      ADDS     r0,r0,#1
        0x08000600:    b2c0        ..      UXTB     r0,r0
        0x08000602:    280d        .(      CMP      r0,#0xd
        0x08000604:    d3f7        ..      BCC      0x80005f6 ; BSM_Reset + 46
        0x08000606:    6958        Xi      LDR      r0,[r3,#0x14]
        0x08000608:    65a0        .e      STR      r0,[r4,#0x58]
        0x0800060a:    715d        ]q      STRB     r5,[r3,#5]
        0x0800060c:    bd70        p.      POP      {r4-r6,pc}
    $d
        0x0800060e:    0000        ..      DCW    0
        0x08000610:    40002000    . .@    DCD    1073750016
        0x08000614:    40022000    . .@    DCD    1073881088
        0x08000618:    20000064    d..     DCD    536871012
        0x0800061c:    20000268    h..     DCD    536871528
    $t
    i.BSM_ResetInFrameEnd
    BSM_ResetInFrameEnd
        0x08000620:    480b        .H      LDR      r0,[pc,#44] ; [0x8000650] = 0x20000064
        0x08000622:    7901        .y      LDRB     r1,[r0,#4]
        0x08000624:    2900        .)      CMP      r1,#0
        0x08000626:    d011        ..      BEQ      0x800064c ; BSM_ResetInFrameEnd + 44
        0x08000628:    490a        .I      LDR      r1,[pc,#40] ; [0x8000654] = 0x40003000
        0x0800062a:    680a        .h      LDR      r2,[r1,#0]
        0x0800062c:    f0420201    B...    ORR      r2,r2,#1
        0x08000630:    600a        .`      STR      r2,[r1,#0]
        0x08000632:    2100        .!      MOVS     r1,#0
        0x08000634:    7141        Aq      STRB     r1,[r0,#5]
        0x08000636:    4808        .H      LDR      r0,[pc,#32] ; [0x8000658] = 0x40002000
        0x08000638:    f64f71ff    O..q    MOV      r1,#0xffff
        0x0800063c:    6081        .`      STR      r1,[r0,#8]
        0x0800063e:    2101        .!      MOVS     r1,#1
        0x08000640:    6041        A`      STR      r1,[r0,#4]
        0x08000642:    f04f21e0    O..!    MOV      r1,#0xe000e000
        0x08000646:    14c0        ..      ASRS     r0,r0,#19
        0x08000648:    f8c10100    ....    STR      r0,[r1,#0x100]
        0x0800064c:    4770        pG      BX       lr
    $d
        0x0800064e:    0000        ..      DCW    0
        0x08000650:    20000064    d..     DCD    536871012
        0x08000654:    40003000    .0.@    DCD    1073754112
        0x08000658:    40002000    . .@    DCD    1073750016
    $t
    i.BSM_ShuntMeasurement
    BSM_ShuntMeasurement
        0x0800065c:    b510        ..      PUSH     {r4,lr}
        0x0800065e:    2100        .!      MOVS     r1,#0
        0x08000660:    4a0b        .J      LDR      r2,[pc,#44] ; [0x8000690] = 0x40022000
        0x08000662:    4608        .F      MOV      r0,r1
        0x08000664:    1e4c        L.      SUBS     r4,r1,#1
        0x08000666:    65d4        .e      STR      r4,[r2,#0x5c]
        0x08000668:    6813        .h      LDR      r3,[r2,#0]
        0x0800066a:    f0430302    C...    ORR      r3,r3,#2
        0x0800066e:    6013        .`      STR      r3,[r2,#0]
        0x08000670:    6dd3        .m      LDR      r3,[r2,#0x5c]
        0x08000672:    07db        ..      LSLS     r3,r3,#31
        0x08000674:    d0fc        ..      BEQ      0x8000670 ; BSM_ShuntMeasurement + 20
        0x08000676:    6b53        Sk      LDR      r3,[r2,#0x34]
        0x08000678:    1c40        @.      ADDS     r0,r0,#1
        0x0800067a:    f3c3030b    ....    UBFX     r3,r3,#0,#12
        0x0800067e:    4419        .D      ADD      r1,r1,r3
        0x08000680:    b209        ..      SXTH     r1,r1
        0x08000682:    2805        .(      CMP      r0,#5
        0x08000684:    dbef        ..      BLT      0x8000666 ; BSM_ShuntMeasurement + 10
        0x08000686:    2005        .       MOVS     r0,#5
        0x08000688:    fb91f0f0    ....    SDIV     r0,r1,r0
        0x0800068c:    b200        ..      SXTH     r0,r0
        0x0800068e:    bd10        ..      POP      {r4,pc}
    $d
        0x08000690:    40022000    . .@    DCD    1073881088
    $t
    i.BubbleSortForCurrent
    BubbleSortForCurrent
        0x08000694:    b570        p.      PUSH     {r4-r6,lr}
        0x08000696:    2302        .#      MOVS     r3,#2
        0x08000698:    2600        .&      MOVS     r6,#0
        0x0800069a:    4631        1F      MOV      r1,r6
        0x0800069c:    e00f        ..      B        0x80006be ; BubbleSortForCurrent + 42
        0x0800069e:    eb0002c1    ....    ADD      r2,r0,r1,LSL #3
        0x080006a2:    68d5        .h      LDR      r5,[r2,#0xc]
        0x080006a4:    6854        Th      LDR      r4,[r2,#4]
        0x080006a6:    42ac        .B      CMP      r4,r5
        0x080006a8:    dd08        ..      BLE      0x80006bc ; BubbleSortForCurrent + 40
        0x080006aa:    f8506031    P.1`    LDR      r6,[r0,r1,LSL #3]
        0x080006ae:    6055        U`      STR      r5,[r2,#4]
        0x080006b0:    6895        .h      LDR      r5,[r2,#8]
        0x080006b2:    f8405031    @.1P    STR      r5,[r0,r1,LSL #3]
        0x080006b6:    e9c26402    ...d    STRD     r6,r4,[r2,#8]
        0x080006ba:    2601        .&      MOVS     r6,#1
        0x080006bc:    1c49        I.      ADDS     r1,r1,#1
        0x080006be:    4299        .B      CMP      r1,r3
        0x080006c0:    dbed        ..      BLT      0x800069e ; BubbleSortForCurrent + 10
        0x080006c2:    2e00        ..      CMP      r6,#0
        0x080006c4:    d002        ..      BEQ      0x80006cc ; BubbleSortForCurrent + 56
        0x080006c6:    1e5b        [.      SUBS     r3,r3,#1
        0x080006c8:    2b00        .+      CMP      r3,#0
        0x080006ca:    dce5        ..      BGT      0x8000698 ; BubbleSortForCurrent + 4
        0x080006cc:    bd70        p.      POP      {r4-r6,pc}
    i.BusFaultHandler
    BusFaultHandler
        0x080006ce:    4770        pG      BX       lr
    i.CHP_IRQHandler
    CHP_IRQHandler
        0x080006d0:    480c        .H      LDR      r0,[pc,#48] ; [0x8000704] = 0x40020000
        0x080006d2:    6b81        .k      LDR      r1,[r0,#0x38]
        0x080006d4:    048a        ..      LSLS     r2,r1,#18
        0x080006d6:    490c        .I      LDR      r1,[pc,#48] ; [0x8000708] = 0x2000009c
        0x080006d8:    d507        ..      BPL      0x80006ea ; CHP_IRQHandler + 26
        0x080006da:    680a        .h      LDR      r2,[r1,#0]
        0x080006dc:    f4422280    B.."    ORR      r2,r2,#0x40000
        0x080006e0:    600a        .`      STR      r2,[r1,#0]
        0x080006e2:    6b82        .k      LDR      r2,[r0,#0x38]
        0x080006e4:    f4425200    B..R    ORR      r2,r2,#0x2000
        0x080006e8:    6382        .c      STR      r2,[r0,#0x38]
        0x080006ea:    6b82        .k      LDR      r2,[r0,#0x38]
        0x080006ec:    0452        R.      LSLS     r2,r2,#17
        0x080006ee:    d507        ..      BPL      0x8000700 ; CHP_IRQHandler + 48
        0x080006f0:    680a        .h      LDR      r2,[r1,#0]
        0x080006f2:    f4422200    B.."    ORR      r2,r2,#0x80000
        0x080006f6:    600a        .`      STR      r2,[r1,#0]
        0x080006f8:    6b81        .k      LDR      r1,[r0,#0x38]
        0x080006fa:    f4414180    A..A    ORR      r1,r1,#0x4000
        0x080006fe:    6381        .c      STR      r1,[r0,#0x38]
        0x08000700:    4770        pG      BX       lr
    $d
        0x08000702:    0000        ..      DCW    0
        0x08000704:    40020000    ...@    DCD    1073872896
        0x08000708:    2000009c    ...     DCD    536871068
    $t
    i.CalcOpenLoop
    CalcOpenLoop
        0x0800070c:    b510        ..      PUSH     {r4,lr}
        0x0800070e:    460a        .F      MOV      r2,r1
        0x08000710:    8041        A.      STRH     r1,[r0,#2]
        0x08000712:    4604        .F      MOV      r4,r0
        0x08000714:    f100010c    ....    ADD      r1,r0,#0xc
        0x08000718:    4610        .F      MOV      r0,r2
        0x0800071a:    f000fd73    ..s.    BL       GCF_IntegratorTR_F16 ; 0x8001204
        0x0800071e:    8020         .      STRH     r0,[r4,#0]
        0x08000720:    bd10        ..      POP      {r4,pc}
        0x08000722:    0000        ..      MOVS     r0,r0
    i.CalculateCheckSum
    CalculateCheckSum
        0x08000724:    4b0f        .K      LDR      r3,[pc,#60] ; [0x8000764] = 0x200000bc
        0x08000726:    b510        ..      PUSH     {r4,lr}
        0x08000728:    2100        .!      MOVS     r1,#0
        0x0800072a:    460a        .F      MOV      r2,r1
        0x0800072c:    785b        [x      LDRB     r3,[r3,#1]
        0x0800072e:    e009        ..      B        0x8000744 ; CalculateCheckSum + 32
        0x08000730:    1884        ..      ADDS     r4,r0,r2
        0x08000732:    7864        dx      LDRB     r4,[r4,#1]
        0x08000734:    4421        !D      ADD      r1,r1,r4
        0x08000736:    b289        ..      UXTH     r1,r1
        0x08000738:    29ff        .)      CMP      r1,#0xff
        0x0800073a:    d901        ..      BLS      0x8000740 ; CalculateCheckSum + 28
        0x0800073c:    b2c9        ..      UXTB     r1,r1
        0x0800073e:    1c49        I.      ADDS     r1,r1,#1
        0x08000740:    1c52        R.      ADDS     r2,r2,#1
        0x08000742:    b2d2        ..      UXTB     r2,r2
        0x08000744:    429a        .B      CMP      r2,r3
        0x08000746:    d3f3        ..      BCC      0x8000730 ; CalculateCheckSum + 12
        0x08000748:    7800        .x      LDRB     r0,[r0,#0]
        0x0800074a:    f000023f    ..?.    AND      r2,r0,#0x3f
        0x0800074e:    2a3c        <*      CMP      r2,#0x3c
        0x08000750:    d205        ..      BCS      0x800075e ; CalculateCheckSum + 58
        0x08000752:    4408        .D      ADD      r0,r0,r1
        0x08000754:    b281        ..      UXTH     r1,r0
        0x08000756:    29ff        .)      CMP      r1,#0xff
        0x08000758:    d901        ..      BLS      0x800075e ; CalculateCheckSum + 58
        0x0800075a:    b2c9        ..      UXTB     r1,r1
        0x0800075c:    1c49        I.      ADDS     r1,r1,#1
        0x0800075e:    43c8        .C      MVNS     r0,r1
        0x08000760:    b2c0        ..      UXTB     r0,r0
        0x08000762:    bd10        ..      POP      {r4,pc}
    $d
        0x08000764:    200000bc    ...     DCD    536871100
    $t
    i.DebugMonHandler
    DebugMonHandler
        0x08000768:    4770        pG      BX       lr
        0x0800076a:    0000        ..      MOVS     r0,r0
    i.DisableOutput
    DisableOutput
        0x0800076c:    4807        .H      LDR      r0,[pc,#28] ; [0x800078c] = 0x40021000
        0x0800076e:    6f81        .o      LDR      r1,[r0,#0x78]
        0x08000770:    f02101ff    !...    BIC      r1,r1,#0xff
        0x08000774:    3155        U1      ADDS     r1,r1,#0x55
        0x08000776:    6781        .g      STR      r1,[r0,#0x78]
        0x08000778:    2107        .!      MOVS     r1,#7
        0x0800077a:    65c1        .e      STR      r1,[r0,#0x5c]
        0x0800077c:    213f        ?!      MOVS     r1,#0x3f
        0x0800077e:    6581        .e      STR      r1,[r0,#0x58]
        0x08000780:    6f81        .o      LDR      r1,[r0,#0x78]
        0x08000782:    f02101ff    !...    BIC      r1,r1,#0xff
        0x08000786:    31aa        .1      ADDS     r1,r1,#0xaa
        0x08000788:    6781        .g      STR      r1,[r0,#0x78]
        0x0800078a:    4770        pG      BX       lr
    $d
        0x0800078c:    40021000    ...@    DCD    1073876992
    $t
    i.EPWM_IRQHandler
    EPWM_IRQHandler
        0x08000790:    e92d41f0    -..A    PUSH     {r4-r8,lr}
        0x08000794:    4e3b        ;N      LDR      r6,[pc,#236] ; [0x8000884] = 0x40021000
        0x08000796:    6f75        uo      LDR      r5,[r6,#0x74]
        0x08000798:    483b        ;H      LDR      r0,[pc,#236] ; [0x8000888] = 0x40022000
        0x0800079a:    6b41        Ak      LDR      r1,[r0,#0x34]
        0x0800079c:    4c3b        ;L      LDR      r4,[pc,#236] ; [0x800088c] = 0x200000cc
        0x0800079e:    f3c1010b    ....    UBFX     r1,r1,#0,#12
        0x080007a2:    81e1        ..      STRH     r1,[r4,#0xe]
        0x080007a4:    6b81        .k      LDR      r1,[r0,#0x38]
        0x080007a6:    f3c1010b    ....    UBFX     r1,r1,#0,#12
        0x080007aa:    8221        !.      STRH     r1,[r4,#0x10]
        0x080007ac:    6bc1        .k      LDR      r1,[r0,#0x3c]
        0x080007ae:    f3c1010b    ....    UBFX     r1,r1,#0,#12
        0x080007b2:    8261        a.      STRH     r1,[r4,#0x12]
        0x080007b4:    6c02        .l      LDR      r2,[r0,#0x40]
        0x080007b6:    f3c2020b    ....    UBFX     r2,r2,#0,#12
        0x080007ba:    82a2        ..      STRH     r2,[r4,#0x14]
        0x080007bc:    6c42        Bl      LDR      r2,[r0,#0x44]
        0x080007be:    f3c2020b    ....    UBFX     r2,r2,#0,#12
        0x080007c2:    82e2        ..      STRH     r2,[r4,#0x16]
        0x080007c4:    6c82        .l      LDR      r2,[r0,#0x48]
        0x080007c6:    f3c2020b    ....    UBFX     r2,r2,#0,#12
        0x080007ca:    8322        ".      STRH     r2,[r4,#0x18]
        0x080007cc:    6cc2        .l      LDR      r2,[r0,#0x4c]
        0x080007ce:    f3c2020b    ....    UBFX     r2,r2,#0,#12
        0x080007d2:    8362        b.      STRH     r2,[r4,#0x1a]
        0x080007d4:    6d00        .m      LDR      r0,[r0,#0x50]
        0x080007d6:    f3c0000b    ....    UBFX     r0,r0,#0,#12
        0x080007da:    83a0        ..      STRH     r0,[r4,#0x1c]
        0x080007dc:    00c8        ..      LSLS     r0,r1,#3
        0x080007de:    f50471b2    ...q    ADD      r1,r4,#0x164
        0x080007e2:    f000fd21    ..!.    BL       GCF_LpFilterMA_F16 ; 0x8001228
        0x080007e6:    83e0        ..      STRH     r0,[r4,#0x1e]
        0x080007e8:    f9b40014    ....    LDRSH    r0,[r4,#0x14]
        0x080007ec:    f24041ea    @..A    MOV      r1,#0x4ea
        0x080007f0:    4348        HC      MULS     r0,r1,r0
        0x080007f2:    f2427110    B..q    MOV      r1,#0x2710
        0x080007f6:    fb90f0f1    ....    SDIV     r0,r0,r1
        0x080007fa:    f5a07090    ...p    SUB      r0,r0,#0x120
        0x080007fe:    8460        `.      STRH     r0,[r4,#0x22]
        0x08000800:    4823        #H      LDR      r0,[pc,#140] ; [0x8000890] = 0x20000330
        0x08000802:    f000fe69    ..i.    BL       GetPhaseCurr_1rps ; 0x80014d8
        0x08000806:    4f22        "O      LDR      r7,[pc,#136] ; [0x8000890] = 0x20000330
        0x08000808:    4922        "I      LDR      r1,[pc,#136] ; [0x8000894] = 0x20000010
        0x0800080a:    f8b70058    ..X.    LDRH     r0,[r7,#0x58]
        0x0800080e:    8520         .      STRH     r0,[r4,#0x28]
        0x08000810:    f8b7005a    ..Z.    LDRH     r0,[r7,#0x5a]
        0x08000814:    8560        `.      STRH     r0,[r4,#0x2a]
        0x08000816:    f8b7005c    ..\.    LDRH     r0,[r7,#0x5c]
        0x0800081a:    85a0        ..      STRH     r0,[r4,#0x2c]
        0x0800081c:    f44f6096    O..`    MOV      r0,#0x4b0
        0x08000820:    8048        H.      STRH     r0,[r1,#2]
        0x08000822:    0668        h.      LSLS     r0,r5,#25
        0x08000824:    d525        %.      BPL      0x8000872 ; EPWM_IRQHandler + 226
        0x08000826:    7860        `x      LDRB     r0,[r4,#1]
        0x08000828:    491b        .I      LDR      r1,[pc,#108] ; [0x8000898] = 0x8002fa0
        0x0800082a:    ebc000c0    ....    RSB      r0,r0,r0,LSL #3
        0x0800082e:    eb010080    ....    ADD      r0,r1,r0,LSL #2
        0x08000832:    7821        !x      LDRB     r1,[r4,#0]
        0x08000834:    f8500021    P.!.    LDR      r0,[r0,r1,LSL #2]
        0x08000838:    4780        .G      BLX      r0
        0x0800083a:    f9b40152    ..R.    LDRSH    r0,[r4,#0x152]
        0x0800083e:    f44f6196    O..a    MOV      r1,#0x4b0
        0x08000842:    4348        HC      MULS     r0,r1,r0
        0x08000844:    13c0        ..      ASRS     r0,r0,#15
        0x08000846:    f8270f6a    '.j.    STRH     r0,[r7,#0x6a]!
        0x0800084a:    f9b40154    ..T.    LDRSH    r0,[r4,#0x154]
        0x0800084e:    4348        HC      MULS     r0,r1,r0
        0x08000850:    13c0        ..      ASRS     r0,r0,#15
        0x08000852:    8078        x.      STRH     r0,[r7,#2]
        0x08000854:    f9b40156    ..V.    LDRSH    r0,[r4,#0x156]
        0x08000858:    4348        HC      MULS     r0,r1,r0
        0x0800085a:    13c0        ..      ASRS     r0,r0,#15
        0x0800085c:    80b8        ..      STRH     r0,[r7,#4]
        0x0800085e:    480c        .H      LDR      r0,[pc,#48] ; [0x8000890] = 0x20000330
        0x08000860:    f002f8b6    ....    BL       Svm1rpsTrig ; 0x80029d0
        0x08000864:    480a        .H      LDR      r0,[pc,#40] ; [0x8000890] = 0x20000330
        0x08000866:    f001feb1    ....    BL       SetPwmDuty ; 0x80025cc
        0x0800086a:    6f70        po      LDR      r0,[r6,#0x74]
        0x0800086c:    f0400040    @.@.    ORR      r0,r0,#0x40
        0x08000870:    6770        pg      STR      r0,[r6,#0x74]
        0x08000872:    0628        (.      LSLS     r0,r5,#24
        0x08000874:    d503        ..      BPL      0x800087e ; EPWM_IRQHandler + 238
        0x08000876:    6f70        po      LDR      r0,[r6,#0x74]
        0x08000878:    f0400080    @...    ORR      r0,r0,#0x80
        0x0800087c:    6770        pg      STR      r0,[r6,#0x74]
        0x0800087e:    e8bd81f0    ....    POP      {r4-r8,pc}
    $d
        0x08000882:    0000        ..      DCW    0
        0x08000884:    40021000    ...@    DCD    1073876992
        0x08000888:    40022000    . .@    DCD    1073881088
        0x0800088c:    200000cc    ...     DCD    536871116
        0x08000890:    20000330    0..     DCD    536871728
        0x08000894:    20000010    ...     DCD    536870928
        0x08000898:    08002fa0    ./..    DCD    134229920
    $t
    i.EnableOutput
    EnableOutput
        0x0800089c:    4807        .H      LDR      r0,[pc,#28] ; [0x80008bc] = 0x40021000
        0x0800089e:    6f81        .o      LDR      r1,[r0,#0x78]
        0x080008a0:    f02101ff    !...    BIC      r1,r1,#0xff
        0x080008a4:    3155        U1      ADDS     r1,r1,#0x55
        0x080008a6:    6781        .g      STR      r1,[r0,#0x78]
        0x080008a8:    2107        .!      MOVS     r1,#7
        0x080008aa:    65c1        .e      STR      r1,[r0,#0x5c]
        0x080008ac:    2100        .!      MOVS     r1,#0
        0x080008ae:    6581        .e      STR      r1,[r0,#0x58]
        0x080008b0:    6f81        .o      LDR      r1,[r0,#0x78]
        0x080008b2:    f02101ff    !...    BIC      r1,r1,#0xff
        0x080008b6:    31aa        .1      ADDS     r1,r1,#0xaa
        0x080008b8:    6781        .g      STR      r1,[r0,#0x78]
        0x080008ba:    4770        pG      BX       lr
    $d
        0x080008bc:    40021000    ...@    DCD    1073876992
    $t
    i.FAULT_Init
    FAULT_Init
        0x080008c0:    4932        2I      LDR      r1,[pc,#200] ; [0x800098c] = 0x8002f34
        0x080008c2:    4833        3H      LDR      r0,[pc,#204] ; [0x8000990] = 0x2000031c
        0x080008c4:    8b8a        ..      LDRH     r2,[r1,#0x1c]
        0x080008c6:    8002        ..      STRH     r2,[r0,#0]
        0x080008c8:    8b8a        ..      LDRH     r2,[r1,#0x1c]
        0x080008ca:    f2a21253    ..S.    SUB      r2,r2,#0x153
        0x080008ce:    8042        B.      STRH     r2,[r0,#2]
        0x080008d0:    8b4a        J.      LDRH     r2,[r1,#0x1a]
        0x080008d2:    8082        ..      STRH     r2,[r0,#4]
        0x080008d4:    8b49        I.      LDRH     r1,[r1,#0x1a]
        0x080008d6:    2282        ."      MOVS     r2,#0x82
        0x080008d8:    f2011153    ..S.    ADD      r1,r1,#0x153
        0x080008dc:    80c1        ..      STRH     r1,[r0,#6]
        0x080008de:    218c        .!      MOVS     r1,#0x8c
        0x080008e0:    8101        ..      STRH     r1,[r0,#8]
        0x080008e2:    8142        B.      STRH     r2,[r0,#0xa]
        0x080008e4:    229b        ."      MOVS     r2,#0x9b
        0x080008e6:    8182        ..      STRH     r2,[r0,#0xc]
        0x080008e8:    81c1        ..      STRH     r1,[r0,#0xe]
        0x080008ea:    f06f0127    o.'.    MVN      r1,#0x27
        0x080008ee:    8201        ..      STRH     r1,[r0,#0x10]
        0x080008f0:    f44f717a    O.zq    MOV      r1,#0x3e8
        0x080008f4:    8241        A.      STRH     r1,[r0,#0x12]
        0x080008f6:    4827        'H      LDR      r0,[pc,#156] ; [0x8000994] = 0x40020000
        0x080008f8:    6a81        .j      LDR      r1,[r0,#0x28]
        0x080008fa:    f4211100    !...    BIC      r1,r1,#0x200000
        0x080008fe:    6281        .b      STR      r1,[r0,#0x28]
        0x08000900:    6a81        .j      LDR      r1,[r0,#0x28]
        0x08000902:    f4213180    !..1    BIC      r1,r1,#0x10000
        0x08000906:    6281        .b      STR      r1,[r0,#0x28]
        0x08000908:    6a81        .j      LDR      r1,[r0,#0x28]
        0x0800090a:    f02101f0    !...    BIC      r1,r1,#0xf0
        0x0800090e:    3140        @1      ADDS     r1,r1,#0x40
        0x08000910:    6281        .b      STR      r1,[r0,#0x28]
        0x08000912:    6a81        .j      LDR      r1,[r0,#0x28]
        0x08000914:    f4211180    !...    BIC      r1,r1,#0x100000
        0x08000918:    6281        .b      STR      r1,[r0,#0x28]
        0x0800091a:    6a81        .j      LDR      r1,[r0,#0x28]
        0x0800091c:    f4215140    !.@Q    BIC      r1,r1,#0x3000
        0x08000920:    f5015100    ...Q    ADD      r1,r1,#0x2000
        0x08000924:    6281        .b      STR      r1,[r0,#0x28]
        0x08000926:    6a81        .j      LDR      r1,[r0,#0x28]
        0x08000928:    f021010f    !...    BIC      r1,r1,#0xf
        0x0800092c:    1d09        ..      ADDS     r1,r1,#4
        0x0800092e:    6281        .b      STR      r1,[r0,#0x28]
        0x08000930:    6a81        .j      LDR      r1,[r0,#0x28]
        0x08000932:    f4410180    A...    ORR      r1,r1,#0x400000
        0x08000936:    6281        .b      STR      r1,[r0,#0x28]
        0x08000938:    6a81        .j      LDR      r1,[r0,#0x28]
        0x0800093a:    f4216170    !.pa    BIC      r1,r1,#0xf00
        0x0800093e:    f5016180    ...a    ADD      r1,r1,#0x400
        0x08000942:    6281        .b      STR      r1,[r0,#0x28]
        0x08000944:    6a81        .j      LDR      r1,[r0,#0x28]
        0x08000946:    f42121c0    !..!    BIC      r1,r1,#0x60000
        0x0800094a:    6281        .b      STR      r1,[r0,#0x28]
        0x0800094c:    6a81        .j      LDR      r1,[r0,#0x28]
        0x0800094e:    f4213180    !..1    BIC      r1,r1,#0x10000
        0x08000952:    6281        .b      STR      r1,[r0,#0x28]
        0x08000954:    6b81        .k      LDR      r1,[r0,#0x38]
        0x08000956:    f4214100    !..A    BIC      r1,r1,#0x8000
        0x0800095a:    6381        .c      STR      r1,[r0,#0x38]
        0x0800095c:    6b81        .k      LDR      r1,[r0,#0x38]
        0x0800095e:    f4215180    !..Q    BIC      r1,r1,#0x1000
        0x08000962:    6381        .c      STR      r1,[r0,#0x38]
        0x08000964:    6b81        .k      LDR      r1,[r0,#0x38]
        0x08000966:    f44161c0    A..a    ORR      r1,r1,#0x600
        0x0800096a:    6381        .c      STR      r1,[r0,#0x38]
        0x0800096c:    6b81        .k      LDR      r1,[r0,#0x38]
        0x0800096e:    f4416100    A..a    ORR      r1,r1,#0x800
        0x08000972:    6381        .c      STR      r1,[r0,#0x38]
        0x08000974:    f04f22e0    O.."    MOV      r2,#0xe000e000
        0x08000978:    f44f4100    O..A    MOV      r1,#0x8000
        0x0800097c:    2000        .       MOVS     r0,#0
        0x0800097e:    f8c21100    ....    STR      r1,[r2,#0x100]
        0x08000982:    4905        .I      LDR      r1,[pc,#20] ; [0x8000998] = 0xe000e00f
        0x08000984:    f8810400    ....    STRB     r0,[r1,#0x400]
        0x08000988:    4770        pG      BX       lr
    $d
        0x0800098a:    0000        ..      DCW    0
        0x0800098c:    08002f34    4/..    DCD    134229812
        0x08000990:    2000031c    ...     DCD    536871708
        0x08000994:    40020000    ...@    DCD    1073872896
        0x08000998:    e000e00f    ....    DCD    3758153743
    $t
    i.FLASH_IRQHandler
    FLASH_IRQHandler
        0x0800099c:    4770        pG      BX       lr
        0x0800099e:    0000        ..      MOVS     r0,r0
    i.FLT_ElecDetection
    FLT_ElecDetection
        0x080009a0:    b5f0        ..      PUSH     {r4-r7,lr}
        0x080009a2:    4d49        IM      LDR      r5,[pc,#292] ; [0x8000ac8] = 0x2000007c
        0x080009a4:    4e49        IN      LDR      r6,[pc,#292] ; [0x8000acc] = 0x2000031c
        0x080009a6:    f04f0c00    O...    MOV      r12,#0
        0x080009aa:    80a8        ..      STRH     r0,[r5,#4]
        0x080009ac:    4631        1F      MOV      r1,r6
        0x080009ae:    f9b63002    ...0    LDRSH    r3,[r6,#2]
        0x080009b2:    f9b11012    ....    LDRSH    r1,[r1,#0x12]
        0x080009b6:    f1050220    .. .    ADD      r2,r5,#0x20
        0x080009ba:    4283        .B      CMP      r3,r0
        0x080009bc:    da24        $.      BGE      0x8000a08 ; FLT_ElecDetection + 104
        0x080009be:    462c        ,F      MOV      r4,r5
        0x080009c0:    f9b67000    ...p    LDRSH    r7,[r6,#0]
        0x080009c4:    8924        $.      LDRH     r4,[r4,#8]
        0x080009c6:    1c64        d.      ADDS     r4,r4,#1
        0x080009c8:    b224        $.      SXTH     r4,r4
        0x080009ca:    4287        .B      CMP      r7,r0
        0x080009cc:    da02        ..      BGE      0x80009d4 ; FLT_ElecDetection + 52
        0x080009ce:    88ef        ..      LDRH     r7,[r5,#6]
        0x080009d0:    1c7f        ..      ADDS     r7,r7,#1
        0x080009d2:    80ef        ..      STRH     r7,[r5,#6]
        0x080009d4:    812c        ,.      STRH     r4,[r5,#8]
        0x080009d6:    b227        '.      SXTH     r7,r4
        0x080009d8:    4c3b        ;L      LDR      r4,[pc,#236] ; [0x8000ac8] = 0x2000007c
        0x080009da:    3420         4      ADDS     r4,r4,#0x20
        0x080009dc:    42b9        .B      CMP      r1,r7
        0x080009de:    6824        $h      LDR      r4,[r4,#0]
        0x080009e0:    da08        ..      BGE      0x80009f4 ; FLT_ElecDetection + 84
        0x080009e2:    f9b57006    ...p    LDRSH    r7,[r5,#6]
        0x080009e6:    42b9        .B      CMP      r1,r7
        0x080009e8:    dd04        ..      BLE      0x80009f4 ; FLT_ElecDetection + 84
        0x080009ea:    f0240404    $...    BIC      r4,r4,#4
        0x080009ee:    f0440408    D...    ORR      r4,r4,#8
        0x080009f2:    e007        ..      B        0x8000a04 ; FLT_ElecDetection + 100
        0x080009f4:    f9b57006    ...p    LDRSH    r7,[r5,#6]
        0x080009f8:    42b9        .B      CMP      r1,r7
        0x080009fa:    dc09        ..      BGT      0x8000a10 ; FLT_ElecDetection + 112
        0x080009fc:    f0240418    $...    BIC      r4,r4,#0x18
        0x08000a00:    f0440404    D...    ORR      r4,r4,#4
        0x08000a04:    6014        .`      STR      r4,[r2,#0]
        0x08000a06:    e003        ..      B        0x8000a10 ; FLT_ElecDetection + 112
        0x08000a08:    f8a5c006    ....    STRH     r12,[r5,#6]
        0x08000a0c:    f8a5c008    ....    STRH     r12,[r5,#8]
        0x08000a10:    f9b64006    ...@    LDRSH    r4,[r6,#6]
        0x08000a14:    4284        .B      CMP      r4,r0
        0x08000a16:    dc17        ..      BGT      0x8000a48 ; FLT_ElecDetection + 168
        0x08000a18:    4283        .B      CMP      r3,r0
        0x08000a1a:    db15        ..      BLT      0x8000a48 ; FLT_ElecDetection + 168
        0x08000a1c:    6817        .h      LDR      r7,[r2,#0]
        0x08000a1e:    ea5f7e47    _.G~    LSLS     lr,r7,#29
        0x08000a22:    d402        ..      BMI      0x8000a2a ; FLT_ElecDetection + 138
        0x08000a24:    ea5f7e07    _..~    LSLS     lr,r7,#28
        0x08000a28:    d50e        ..      BPL      0x8000a48 ; FLT_ElecDetection + 168
        0x08000a2a:    f8b5e00a    ....    LDRH     lr,[r5,#0xa]
        0x08000a2e:    f10e0e01    ....    ADD      lr,lr,#1
        0x08000a32:    fa0ffe8e    ....    SXTH     lr,lr
        0x08000a36:    f8a5e00a    ....    STRH     lr,[r5,#0xa]
        0x08000a3a:    4571        qE      CMP      r1,lr
        0x08000a3c:    da04        ..      BGE      0x8000a48 ; FLT_ElecDetection + 168
        0x08000a3e:    f027070c    '...    BIC      r7,r7,#0xc
        0x08000a42:    f0470710    G...    ORR      r7,r7,#0x10
        0x08000a46:    6017        .`      STR      r7,[r2,#0]
        0x08000a48:    4284        .B      CMP      r4,r0
        0x08000a4a:    dd23        #.      BLE      0x8000a94 ; FLT_ElecDetection + 244
        0x08000a4c:    f9b67004    ...p    LDRSH    r7,[r6,#4]
        0x08000a50:    4e1d        .N      LDR      r6,[pc,#116] ; [0x8000ac8] = 0x2000007c
        0x08000a52:    89f6        ..      LDRH     r6,[r6,#0xe]
        0x08000a54:    1c76        v.      ADDS     r6,r6,#1
        0x08000a56:    b236        6.      SXTH     r6,r6
        0x08000a58:    4287        .B      CMP      r7,r0
        0x08000a5a:    dd02        ..      BLE      0x8000a62 ; FLT_ElecDetection + 194
        0x08000a5c:    89af        ..      LDRH     r7,[r5,#0xc]
        0x08000a5e:    1c7f        ..      ADDS     r7,r7,#1
        0x08000a60:    81af        ..      STRH     r7,[r5,#0xc]
        0x08000a62:    81ee        ..      STRH     r6,[r5,#0xe]
        0x08000a64:    b236        6.      SXTH     r6,r6
        0x08000a66:    42b1        .B      CMP      r1,r6
        0x08000a68:    da09        ..      BGE      0x8000a7e ; FLT_ElecDetection + 222
        0x08000a6a:    f9b5600c    ...`    LDRSH    r6,[r5,#0xc]
        0x08000a6e:    42b1        .B      CMP      r1,r6
        0x08000a70:    dd05        ..      BLE      0x8000a7e ; FLT_ElecDetection + 222
        0x08000a72:    6816        .h      LDR      r6,[r2,#0]
        0x08000a74:    f0260620    &. .    BIC      r6,r6,#0x20
        0x08000a78:    f0460640    F.@.    ORR      r6,r6,#0x40
        0x08000a7c:    e008        ..      B        0x8000a90 ; FLT_ElecDetection + 240
        0x08000a7e:    f9b5600c    ...`    LDRSH    r6,[r5,#0xc]
        0x08000a82:    42b1        .B      CMP      r1,r6
        0x08000a84:    dc0a        ..      BGT      0x8000a9c ; FLT_ElecDetection + 252
        0x08000a86:    6816        .h      LDR      r6,[r2,#0]
        0x08000a88:    f02606c0    &...    BIC      r6,r6,#0xc0
        0x08000a8c:    f0460620    F. .    ORR      r6,r6,#0x20
        0x08000a90:    6016        .`      STR      r6,[r2,#0]
        0x08000a92:    e003        ..      B        0x8000a9c ; FLT_ElecDetection + 252
        0x08000a94:    f8a5c00c    ....    STRH     r12,[r5,#0xc]
        0x08000a98:    f8a5c00e    ....    STRH     r12,[r5,#0xe]
        0x08000a9c:    4283        .B      CMP      r3,r0
        0x08000a9e:    db11        ..      BLT      0x8000ac4 ; FLT_ElecDetection + 292
        0x08000aa0:    4284        .B      CMP      r4,r0
        0x08000aa2:    dc0f        ..      BGT      0x8000ac4 ; FLT_ElecDetection + 292
        0x08000aa4:    6810        .h      LDR      r0,[r2,#0]
        0x08000aa6:    0643        C.      LSLS     r3,r0,#25
        0x08000aa8:    d401        ..      BMI      0x8000aae ; FLT_ElecDetection + 270
        0x08000aaa:    0683        ..      LSLS     r3,r0,#26
        0x08000aac:    d50a        ..      BPL      0x8000ac4 ; FLT_ElecDetection + 292
        0x08000aae:    8a2b        +.      LDRH     r3,[r5,#0x10]
        0x08000ab0:    1c5b        [.      ADDS     r3,r3,#1
        0x08000ab2:    b21b        ..      SXTH     r3,r3
        0x08000ab4:    822b        +.      STRH     r3,[r5,#0x10]
        0x08000ab6:    4299        .B      CMP      r1,r3
        0x08000ab8:    da04        ..      BGE      0x8000ac4 ; FLT_ElecDetection + 292
        0x08000aba:    f0200060     .`.    BIC      r0,r0,#0x60
        0x08000abe:    f0400080    @...    ORR      r0,r0,#0x80
        0x08000ac2:    6010        .`      STR      r0,[r2,#0]
        0x08000ac4:    bdf0        ..      POP      {r4-r7,pc}
    $d
        0x08000ac6:    0000        ..      DCW    0
        0x08000ac8:    2000007c    |..     DCD    536871036
        0x08000acc:    2000031c    ...     DCD    536871708
    $t
    i.FOC_AdcInit
    FOC_AdcInit
        0x08000ad0:    4842        BH      LDR      r0,[pc,#264] ; [0x8000bdc] = 0x40020000
        0x08000ad2:    b510        ..      PUSH     {r4,lr}
        0x08000ad4:    f24871e4    H..q    MOV      r1,#0x87e4
        0x08000ad8:    6401        .d      STR      r1,[r0,#0x40]
        0x08000ada:    6941        Ai      LDR      r1,[r0,#0x14]
        0x08000adc:    f0410110    A...    ORR      r1,r1,#0x10
        0x08000ae0:    6141        Aa      STR      r1,[r0,#0x14]
        0x08000ae2:    6881        .h      LDR      r1,[r0,#8]
        0x08000ae4:    f0410110    A...    ORR      r1,r1,#0x10
        0x08000ae8:    6081        .`      STR      r1,[r0,#8]
        0x08000aea:    4c3d        =L      LDR      r4,[pc,#244] ; [0x8000be0] = 0x40022000
        0x08000aec:    6820         h      LDR      r0,[r4,#0]
        0x08000aee:    f020001c     ...    BIC      r0,r0,#0x1c
        0x08000af2:    3010        .0      ADDS     r0,r0,#0x10
        0x08000af4:    6020         `      STR      r0,[r4,#0]
        0x08000af6:    6820         h      LDR      r0,[r4,#0]
        0x08000af8:    f42070e0     ..p    BIC      r0,r0,#0x1c0
        0x08000afc:    6020         `      STR      r0,[r4,#0]
        0x08000afe:    6820         h      LDR      r0,[r4,#0]
        0x08000b00:    f4206080     ..`    BIC      r0,r0,#0x400
        0x08000b04:    6020         `      STR      r0,[r4,#0]
        0x08000b06:    6820         h      LDR      r0,[r4,#0]
        0x08000b08:    f4205000     ..P    BIC      r0,r0,#0x2000
        0x08000b0c:    6020         `      STR      r0,[r4,#0]
        0x08000b0e:    6820         h      LDR      r0,[r4,#0]
        0x08000b10:    f4406000    @..`    ORR      r0,r0,#0x800
        0x08000b14:    6020         `      STR      r0,[r4,#0]
        0x08000b16:    6820         h      LDR      r0,[r4,#0]
        0x08000b18:    f4205080     ..P    BIC      r0,r0,#0x1000
        0x08000b1c:    6020         `      STR      r0,[r4,#0]
        0x08000b1e:    6860        `h      LDR      r0,[r4,#4]
        0x08000b20:    f020003f     .?.    BIC      r0,r0,#0x3f
        0x08000b24:    300f        .0      ADDS     r0,r0,#0xf
        0x08000b26:    6060        ``      STR      r0,[r4,#4]
        0x08000b28:    68e0        .h      LDR      r0,[r4,#0xc]
        0x08000b2a:    f0400010    @...    ORR      r0,r0,#0x10
        0x08000b2e:    60e0        .`      STR      r0,[r4,#0xc]
        0x08000b30:    68e0        .h      LDR      r0,[r4,#0xc]
        0x08000b32:    f020000f     ...    BIC      r0,r0,#0xf
        0x08000b36:    1cc0        ..      ADDS     r0,r0,#3
        0x08000b38:    60e0        .`      STR      r0,[r4,#0xc]
        0x08000b3a:    68e0        .h      LDR      r0,[r4,#0xc]
        0x08000b3c:    f4407000    @..p    ORR      r0,r0,#0x200
        0x08000b40:    60e0        .`      STR      r0,[r4,#0xc]
        0x08000b42:    68e0        .h      LDR      r0,[r4,#0xc]
        0x08000b44:    f42070f0     ..p    BIC      r0,r0,#0x1e0
        0x08000b48:    3060        `0      ADDS     r0,r0,#0x60
        0x08000b4a:    60e0        .`      STR      r0,[r4,#0xc]
        0x08000b4c:    68e0        .h      LDR      r0,[r4,#0xc]
        0x08000b4e:    f4404080    @..@    ORR      r0,r0,#0x4000
        0x08000b52:    60e0        .`      STR      r0,[r4,#0xc]
        0x08000b54:    68e0        .h      LDR      r0,[r4,#0xc]
        0x08000b56:    f4205070     .pP    BIC      r0,r0,#0x3c00
        0x08000b5a:    f5006080    ...`    ADD      r0,r0,#0x400
        0x08000b5e:    60e0        .`      STR      r0,[r4,#0xc]
        0x08000b60:    68e0        .h      LDR      r0,[r4,#0xc]
        0x08000b62:    f4202000     ..     BIC      r0,r0,#0x80000
        0x08000b66:    60e0        .`      STR      r0,[r4,#0xc]
        0x08000b68:    68e0        .h      LDR      r0,[r4,#0xc]
        0x08000b6a:    f42020f0     ..     BIC      r0,r0,#0x78000
        0x08000b6e:    f5003080    ...0    ADD      r0,r0,#0x10000
        0x08000b72:    60e0        .`      STR      r0,[r4,#0xc]
        0x08000b74:    6960        `i      LDR      r0,[r4,#0x14]
        0x08000b76:    f4204000     ..@    BIC      r0,r0,#0x8000
        0x08000b7a:    6160        `a      STR      r0,[r4,#0x14]
        0x08000b7c:    6960        `i      LDR      r0,[r4,#0x14]
        0x08000b7e:    f36f000e    o...    BFC      r0,#0,#15
        0x08000b82:    1c40        @.      ADDS     r0,r0,#1
        0x08000b84:    6160        `a      STR      r0,[r4,#0x14]
        0x08000b86:    69a0        .i      LDR      r0,[r4,#0x18]
        0x08000b88:    f4204000     ..@    BIC      r0,r0,#0x8000
        0x08000b8c:    61a0        .a      STR      r0,[r4,#0x18]
        0x08000b8e:    69a0        .i      LDR      r0,[r4,#0x18]
        0x08000b90:    f36f000e    o...    BFC      r0,#0,#15
        0x08000b94:    3030        00      ADDS     r0,r0,#0x30
        0x08000b96:    61a0        .a      STR      r0,[r4,#0x18]
        0x08000b98:    69e0        .i      LDR      r0,[r4,#0x1c]
        0x08000b9a:    f4404000    @..@    ORR      r0,r0,#0x8000
        0x08000b9e:    61e0        .a      STR      r0,[r4,#0x1c]
        0x08000ba0:    69e0        .i      LDR      r0,[r4,#0x1c]
        0x08000ba2:    f36f000e    o...    BFC      r0,#0,#15
        0x08000ba6:    3064        d0      ADDS     r0,r0,#0x64
        0x08000ba8:    61e0        .a      STR      r0,[r4,#0x1c]
        0x08000baa:    6a20         j      LDR      r0,[r4,#0x20]
        0x08000bac:    f4404000    @..@    ORR      r0,r0,#0x8000
        0x08000bb0:    6220         b      STR      r0,[r4,#0x20]
        0x08000bb2:    6a20         j      LDR      r0,[r4,#0x20]
        0x08000bb4:    f36f000e    o...    BFC      r0,#0,#15
        0x08000bb8:    3064        d0      ADDS     r0,r0,#0x64
        0x08000bba:    6220         b      STR      r0,[r4,#0x20]
        0x08000bbc:    2006        .       MOVS     r0,#6
        0x08000bbe:    f001fc06    ....    BL       NVIC_DisableIRQ ; 0x80023ce
        0x08000bc2:    2102        .!      MOVS     r1,#2
        0x08000bc4:    2006        .       MOVS     r0,#6
        0x08000bc6:    f001fc0d    ....    BL       NVIC_SetPriority ; 0x80023e4
        0x08000bca:    6da0        .m      LDR      r0,[r4,#0x58]
        0x08000bcc:    f0200001     ...    BIC      r0,r0,#1
        0x08000bd0:    65a0        .e      STR      r0,[r4,#0x58]
        0x08000bd2:    6820         h      LDR      r0,[r4,#0]
        0x08000bd4:    f0400001    @...    ORR      r0,r0,#1
        0x08000bd8:    6020         `      STR      r0,[r4,#0]
        0x08000bda:    bd10        ..      POP      {r4,pc}
    $d
        0x08000bdc:    40020000    ...@    DCD    1073872896
        0x08000be0:    40022000    . .@    DCD    1073881088
    $t
    i.FOC_EpwmInit
    FOC_EpwmInit
        0x08000be4:    483b        ;H      LDR      r0,[pc,#236] ; [0x8000cd4] = 0x40020000
        0x08000be6:    b510        ..      PUSH     {r4,lr}
        0x08000be8:    f24871e4    H..q    MOV      r1,#0x87e4
        0x08000bec:    6401        .d      STR      r1,[r0,#0x40]
        0x08000bee:    6881        .h      LDR      r1,[r0,#8]
        0x08000bf0:    f0410120    A. .    ORR      r1,r1,#0x20
        0x08000bf4:    6081        .`      STR      r1,[r0,#8]
        0x08000bf6:    4c38        8L      LDR      r4,[pc,#224] ; [0x8000cd8] = 0x40021000
        0x08000bf8:    6fa0        .o      LDR      r0,[r4,#0x78]
        0x08000bfa:    f02000ff     ...    BIC      r0,r0,#0xff
        0x08000bfe:    3055        U0      ADDS     r0,r0,#0x55
        0x08000c00:    67a0        .g      STR      r0,[r4,#0x78]
        0x08000c02:    6960        `i      LDR      r0,[r4,#0x14]
        0x08000c04:    f36f000f    o...    BFC      r0,#0,#16
        0x08000c08:    6160        `a      STR      r0,[r4,#0x14]
        0x08000c0a:    68e0        .h      LDR      r0,[r4,#0xc]
        0x08000c0c:    f36f000f    o...    BFC      r0,#0,#16
        0x08000c10:    f5006096    ...`    ADD      r0,r0,#0x4b0
        0x08000c14:    60e0        .`      STR      r0,[r4,#0xc]
        0x08000c16:    6860        `h      LDR      r0,[r4,#4]
        0x08000c18:    f42040e0     ..@    BIC      r0,r0,#0x7000
        0x08000c1c:    f5005080    ...P    ADD      r0,r0,#0x1000
        0x08000c20:    6060        ``      STR      r0,[r4,#4]
        0x08000c22:    6860        `h      LDR      r0,[r4,#4]
        0x08000c24:    f4206040     .@`    BIC      r0,r0,#0xc00
        0x08000c28:    f5006080    ...`    ADD      r0,r0,#0x400
        0x08000c2c:    6060        ``      STR      r0,[r4,#4]
        0x08000c2e:    6860        `h      LDR      r0,[r4,#4]
        0x08000c30:    f4204000     ..@    BIC      r0,r0,#0x8000
        0x08000c34:    6060        ``      STR      r0,[r4,#4]
        0x08000c36:    68a0        .h      LDR      r0,[r4,#8]
        0x08000c38:    f4207000     ..p    BIC      r0,r0,#0x200
        0x08000c3c:    60a0        .`      STR      r0,[r4,#8]
        0x08000c3e:    68a0        .h      LDR      r0,[r4,#8]
        0x08000c40:    f4406000    @..`    ORR      r0,r0,#0x800
        0x08000c44:    60a0        .`      STR      r0,[r4,#8]
        0x08000c46:    6860        `h      LDR      r0,[r4,#4]
        0x08000c48:    f4407000    @..p    ORR      r0,r0,#0x200
        0x08000c4c:    6060        ``      STR      r0,[r4,#4]
        0x08000c4e:    6860        `h      LDR      r0,[r4,#4]
        0x08000c50:    f0400040    @.@.    ORR      r0,r0,#0x40
        0x08000c54:    6060        ``      STR      r0,[r4,#4]
        0x08000c56:    6860        `h      LDR      r0,[r4,#4]
        0x08000c58:    f0400080    @...    ORR      r0,r0,#0x80
        0x08000c5c:    6060        ``      STR      r0,[r4,#4]
        0x08000c5e:    6860        `h      LDR      r0,[r4,#4]
        0x08000c60:    f4407080    @..p    ORR      r0,r0,#0x100
        0x08000c64:    6060        ``      STR      r0,[r4,#4]
        0x08000c66:    6860        `h      LDR      r0,[r4,#4]
        0x08000c68:    f0200001     ...    BIC      r0,r0,#1
        0x08000c6c:    6060        ``      STR      r0,[r4,#4]
        0x08000c6e:    6860        `h      LDR      r0,[r4,#4]
        0x08000c70:    f0200002     ...    BIC      r0,r0,#2
        0x08000c74:    6060        ``      STR      r0,[r4,#4]
        0x08000c76:    6860        `h      LDR      r0,[r4,#4]
        0x08000c78:    f0200004     ...    BIC      r0,r0,#4
        0x08000c7c:    6060        ``      STR      r0,[r4,#4]
        0x08000c7e:    6860        `h      LDR      r0,[r4,#4]
        0x08000c80:    f0400008    @...    ORR      r0,r0,#8
        0x08000c84:    6060        ``      STR      r0,[r4,#4]
        0x08000c86:    6860        `h      LDR      r0,[r4,#4]
        0x08000c88:    f0400010    @...    ORR      r0,r0,#0x10
        0x08000c8c:    6060        ``      STR      r0,[r4,#4]
        0x08000c8e:    6860        `h      LDR      r0,[r4,#4]
        0x08000c90:    f0400020    @. .    ORR      r0,r0,#0x20
        0x08000c94:    6060        ``      STR      r0,[r4,#4]
        0x08000c96:    2030        0       MOVS     r0,#0x30
        0x08000c98:    6420         d      STR      r0,[r4,#0x40]
        0x08000c9a:    6460        `d      STR      r0,[r4,#0x44]
        0x08000c9c:    64a0        .d      STR      r0,[r4,#0x48]
        0x08000c9e:    64e0        .d      STR      r0,[r4,#0x4c]
        0x08000ca0:    6520         e      STR      r0,[r4,#0x50]
        0x08000ca2:    6560        `e      STR      r0,[r4,#0x54]
        0x08000ca4:    2000        .       MOVS     r0,#0
        0x08000ca6:    61a0        .a      STR      r0,[r4,#0x18]
        0x08000ca8:    6220         b      STR      r0,[r4,#0x20]
        0x08000caa:    62a0        .b      STR      r0,[r4,#0x28]
        0x08000cac:    2004        .       MOVS     r0,#4
        0x08000cae:    f001fb8e    ....    BL       NVIC_DisableIRQ ; 0x80023ce
        0x08000cb2:    2101        .!      MOVS     r1,#1
        0x08000cb4:    2004        .       MOVS     r0,#4
        0x08000cb6:    f001fb95    ....    BL       NVIC_SetPriority ; 0x80023e4
        0x08000cba:    6f20         o      LDR      r0,[r4,#0x70]
        0x08000cbc:    f0400040    @.@.    ORR      r0,r0,#0x40
        0x08000cc0:    6720         g      STR      r0,[r4,#0x70]
        0x08000cc2:    2001        .       MOVS     r0,#1
        0x08000cc4:    6020         `      STR      r0,[r4,#0]
        0x08000cc6:    6fa0        .o      LDR      r0,[r4,#0x78]
        0x08000cc8:    f02000ff     ...    BIC      r0,r0,#0xff
        0x08000ccc:    30aa        .0      ADDS     r0,r0,#0xaa
        0x08000cce:    67a0        .g      STR      r0,[r4,#0x78]
        0x08000cd0:    bd10        ..      POP      {r4,pc}
    $d
        0x08000cd2:    0000        ..      DCW    0
        0x08000cd4:    40020000    ...@    DCD    1073872896
        0x08000cd8:    40021000    ...@    DCD    1073876992
    $t
    i.FOC_GduInit
    FOC_GduInit
        0x08000cdc:    4880        .H      LDR      r0,[pc,#512] ; [0x8000ee0] = 0x40020000
        0x08000cde:    f24871e4    H..q    MOV      r1,#0x87e4
        0x08000ce2:    6401        .d      STR      r1,[r0,#0x40]
        0x08000ce4:    6841        Ah      LDR      r1,[r0,#4]
        0x08000ce6:    f0410101    A...    ORR      r1,r1,#1
        0x08000cea:    6041        A`      STR      r1,[r0,#4]
        0x08000cec:    0340        @.      LSLS     r0,r0,#13
        0x08000cee:    6801        .h      LDR      r1,[r0,#0]
        0x08000cf0:    f0210108    !...    BIC      r1,r1,#8
        0x08000cf4:    6001        .`      STR      r1,[r0,#0]
        0x08000cf6:    6801        .h      LDR      r1,[r0,#0]
        0x08000cf8:    f0210110    !...    BIC      r1,r1,#0x10
        0x08000cfc:    6001        .`      STR      r1,[r0,#0]
        0x08000cfe:    6801        .h      LDR      r1,[r0,#0]
        0x08000d00:    f0410140    A.@.    ORR      r1,r1,#0x40
        0x08000d04:    6001        .`      STR      r1,[r0,#0]
        0x08000d06:    6801        .h      LDR      r1,[r0,#0]
        0x08000d08:    f0210120    !. .    BIC      r1,r1,#0x20
        0x08000d0c:    6001        .`      STR      r1,[r0,#0]
        0x08000d0e:    6801        .h      LDR      r1,[r0,#0]
        0x08000d10:    f4414100    A..A    ORR      r1,r1,#0x8000
        0x08000d14:    6001        .`      STR      r1,[r0,#0]
        0x08000d16:    6801        .h      LDR      r1,[r0,#0]
        0x08000d18:    f4413180    A..1    ORR      r1,r1,#0x10000
        0x08000d1c:    6001        .`      STR      r1,[r0,#0]
        0x08000d1e:    6801        .h      LDR      r1,[r0,#0]
        0x08000d20:    f4210180    !...    BIC      r1,r1,#0x400000
        0x08000d24:    6001        .`      STR      r1,[r0,#0]
        0x08000d26:    6801        .h      LDR      r1,[r0,#0]
        0x08000d28:    f02171c0    !..q    BIC      r1,r1,#0x1800000
        0x08000d2c:    f5010100    ....    ADD      r1,r1,#0x800000
        0x08000d30:    6001        .`      STR      r1,[r0,#0]
        0x08000d32:    6801        .h      LDR      r1,[r0,#0]
        0x08000d34:    f0217100    !..q    BIC      r1,r1,#0x2000000
        0x08000d38:    6001        .`      STR      r1,[r0,#0]
        0x08000d3a:    6801        .h      LDR      r1,[r0,#0]
        0x08000d3c:    f02141e0    !..A    BIC      r1,r1,#0x70000000
        0x08000d40:    f1015100    ...Q    ADD      r1,r1,#0x20000000
        0x08000d44:    6001        .`      STR      r1,[r0,#0]
        0x08000d46:    6801        .h      LDR      r1,[r0,#0]
        0x08000d48:    f4217180    !..q    BIC      r1,r1,#0x100
        0x08000d4c:    6001        .`      STR      r1,[r0,#0]
        0x08000d4e:    6801        .h      LDR      r1,[r0,#0]
        0x08000d50:    f4217100    !..q    BIC      r1,r1,#0x200
        0x08000d54:    6001        .`      STR      r1,[r0,#0]
        0x08000d56:    6801        .h      LDR      r1,[r0,#0]
        0x08000d58:    f4216180    !..a    BIC      r1,r1,#0x400
        0x08000d5c:    6001        .`      STR      r1,[r0,#0]
        0x08000d5e:    6801        .h      LDR      r1,[r0,#0]
        0x08000d60:    f4216100    !..a    BIC      r1,r1,#0x800
        0x08000d64:    6001        .`      STR      r1,[r0,#0]
        0x08000d66:    6801        .h      LDR      r1,[r0,#0]
        0x08000d68:    f4215180    !..Q    BIC      r1,r1,#0x1000
        0x08000d6c:    6001        .`      STR      r1,[r0,#0]
        0x08000d6e:    6801        .h      LDR      r1,[r0,#0]
        0x08000d70:    f4215100    !..Q    BIC      r1,r1,#0x2000
        0x08000d74:    6001        .`      STR      r1,[r0,#0]
        0x08000d76:    6841        Ah      LDR      r1,[r0,#4]
        0x08000d78:    f0410107    A...    ORR      r1,r1,#7
        0x08000d7c:    6041        A`      STR      r1,[r0,#4]
        0x08000d7e:    6841        Ah      LDR      r1,[r0,#4]
        0x08000d80:    f0410138    A.8.    ORR      r1,r1,#0x38
        0x08000d84:    6041        A`      STR      r1,[r0,#4]
        0x08000d86:    6841        Ah      LDR      r1,[r0,#4]
        0x08000d88:    f421517f    !..Q    BIC      r1,r1,#0x3fc0
        0x08000d8c:    f5016140    ..@a    ADD      r1,r1,#0xc00
        0x08000d90:    6041        A`      STR      r1,[r0,#4]
        0x08000d92:    6841        Ah      LDR      r1,[r0,#4]
        0x08000d94:    f44f72f0    O..r    MOV      r2,#0x1e0
        0x08000d98:    f3623196    b..1    BFI      r1,r2,#14,#9
        0x08000d9c:    6041        A`      STR      r1,[r0,#4]
        0x08000d9e:    6841        Ah      LDR      r1,[r0,#4]
        0x08000da0:    f3c10116    ....    UBFX     r1,r1,#0,#23
        0x08000da4:    f1a15180    ...Q    SUB      r1,r1,#0x10000000
        0x08000da8:    6041        A`      STR      r1,[r0,#4]
        0x08000daa:    6801        .h      LDR      r1,[r0,#0]
        0x08000dac:    f4414180    A..A    ORR      r1,r1,#0x4000
        0x08000db0:    6001        .`      STR      r1,[r0,#0]
        0x08000db2:    68c1        .h      LDR      r1,[r0,#0xc]
        0x08000db4:    f0210101    !...    BIC      r1,r1,#1
        0x08000db8:    60c1        .`      STR      r1,[r0,#0xc]
        0x08000dba:    68c1        .h      LDR      r1,[r0,#0xc]
        0x08000dbc:    f021011e    !...    BIC      r1,r1,#0x1e
        0x08000dc0:    60c1        .`      STR      r1,[r0,#0xc]
        0x08000dc2:    6a01        .j      LDR      r1,[r0,#0x20]
        0x08000dc4:    f04101ff    A...    ORR      r1,r1,#0xff
        0x08000dc8:    6201        .b      STR      r1,[r0,#0x20]
        0x08000dca:    6801        .h      LDR      r1,[r0,#0]
        0x08000dcc:    f4413100    A..1    ORR      r1,r1,#0x20000
        0x08000dd0:    6001        .`      STR      r1,[r0,#0]
        0x08000dd2:    6801        .h      LDR      r1,[r0,#0]
        0x08000dd4:    f4412180    A..!    ORR      r1,r1,#0x40000
        0x08000dd8:    6001        .`      STR      r1,[r0,#0]
        0x08000dda:    6801        .h      LDR      r1,[r0,#0]
        0x08000ddc:    f0216180    !..a    BIC      r1,r1,#0x4000000
        0x08000de0:    6001        .`      STR      r1,[r0,#0]
        0x08000de2:    6801        .h      LDR      r1,[r0,#0]
        0x08000de4:    f0216100    !..a    BIC      r1,r1,#0x8000000
        0x08000de8:    6001        .`      STR      r1,[r0,#0]
        0x08000dea:    6901        .i      LDR      r1,[r0,#0x10]
        0x08000dec:    f0210178    !.x.    BIC      r1,r1,#0x78
        0x08000df0:    3128        (1      ADDS     r1,r1,#0x28
        0x08000df2:    6101        .a      STR      r1,[r0,#0x10]
        0x08000df4:    6901        .i      LDR      r1,[r0,#0x10]
        0x08000df6:    f0410107    A...    ORR      r1,r1,#7
        0x08000dfa:    6101        .a      STR      r1,[r0,#0x10]
        0x08000dfc:    6901        .i      LDR      r1,[r0,#0x10]
        0x08000dfe:    f42141f0    !..A    BIC      r1,r1,#0x7800
        0x08000e02:    f5015120    .. Q    ADD      r1,r1,#0x2800
        0x08000e06:    6101        .a      STR      r1,[r0,#0x10]
        0x08000e08:    6901        .i      LDR      r1,[r0,#0x10]
        0x08000e0a:    f44161e0    A..a    ORR      r1,r1,#0x700
        0x08000e0e:    6101        .a      STR      r1,[r0,#0x10]
        0x08000e10:    6901        .i      LDR      r1,[r0,#0x10]
        0x08000e12:    f42101f0    !...    BIC      r1,r1,#0x780000
        0x08000e16:    f5011120    .. .    ADD      r1,r1,#0x280000
        0x08000e1a:    6101        .a      STR      r1,[r0,#0x10]
        0x08000e1c:    6901        .i      LDR      r1,[r0,#0x10]
        0x08000e1e:    f44121e0    A..!    ORR      r1,r1,#0x70000
        0x08000e22:    6101        .a      STR      r1,[r0,#0x10]
        0x08000e24:    6901        .i      LDR      r1,[r0,#0x10]
        0x08000e26:    f02141f0    !..A    BIC      r1,r1,#0x78000000
        0x08000e2a:    f1015120    .. Q    ADD      r1,r1,#0x28000000
        0x08000e2e:    6101        .a      STR      r1,[r0,#0x10]
        0x08000e30:    6901        .i      LDR      r1,[r0,#0x10]
        0x08000e32:    f04161e0    A..a    ORR      r1,r1,#0x7000000
        0x08000e36:    6101        .a      STR      r1,[r0,#0x10]
        0x08000e38:    6941        Ai      LDR      r1,[r0,#0x14]
        0x08000e3a:    f0210178    !.x.    BIC      r1,r1,#0x78
        0x08000e3e:    3128        (1      ADDS     r1,r1,#0x28
        0x08000e40:    6141        Aa      STR      r1,[r0,#0x14]
        0x08000e42:    6941        Ai      LDR      r1,[r0,#0x14]
        0x08000e44:    f0410107    A...    ORR      r1,r1,#7
        0x08000e48:    6141        Aa      STR      r1,[r0,#0x14]
        0x08000e4a:    6941        Ai      LDR      r1,[r0,#0x14]
        0x08000e4c:    f42141f0    !..A    BIC      r1,r1,#0x7800
        0x08000e50:    f5015120    .. Q    ADD      r1,r1,#0x2800
        0x08000e54:    6141        Aa      STR      r1,[r0,#0x14]
        0x08000e56:    6941        Ai      LDR      r1,[r0,#0x14]
        0x08000e58:    f44161e0    A..a    ORR      r1,r1,#0x700
        0x08000e5c:    6141        Aa      STR      r1,[r0,#0x14]
        0x08000e5e:    6941        Ai      LDR      r1,[r0,#0x14]
        0x08000e60:    f42101f0    !...    BIC      r1,r1,#0x780000
        0x08000e64:    f5011120    .. .    ADD      r1,r1,#0x280000
        0x08000e68:    6141        Aa      STR      r1,[r0,#0x14]
        0x08000e6a:    6941        Ai      LDR      r1,[r0,#0x14]
        0x08000e6c:    f44121e0    A..!    ORR      r1,r1,#0x70000
        0x08000e70:    6141        Aa      STR      r1,[r0,#0x14]
        0x08000e72:    6941        Ai      LDR      r1,[r0,#0x14]
        0x08000e74:    f02141f0    !..A    BIC      r1,r1,#0x78000000
        0x08000e78:    f1015120    .. Q    ADD      r1,r1,#0x28000000
        0x08000e7c:    6141        Aa      STR      r1,[r0,#0x14]
        0x08000e7e:    6941        Ai      LDR      r1,[r0,#0x14]
        0x08000e80:    f04161e0    A..a    ORR      r1,r1,#0x7000000
        0x08000e84:    6141        Aa      STR      r1,[r0,#0x14]
        0x08000e86:    6a41        Aj      LDR      r1,[r0,#0x24]
        0x08000e88:    f0210101    !...    BIC      r1,r1,#1
        0x08000e8c:    6241        Ab      STR      r1,[r0,#0x24]
        0x08000e8e:    6a41        Aj      LDR      r1,[r0,#0x24]
        0x08000e90:    f0210108    !...    BIC      r1,r1,#8
        0x08000e94:    6241        Ab      STR      r1,[r0,#0x24]
        0x08000e96:    6a41        Aj      LDR      r1,[r0,#0x24]
        0x08000e98:    f0210102    !...    BIC      r1,r1,#2
        0x08000e9c:    6241        Ab      STR      r1,[r0,#0x24]
        0x08000e9e:    6a41        Aj      LDR      r1,[r0,#0x24]
        0x08000ea0:    f0210110    !...    BIC      r1,r1,#0x10
        0x08000ea4:    6241        Ab      STR      r1,[r0,#0x24]
        0x08000ea6:    6a41        Aj      LDR      r1,[r0,#0x24]
        0x08000ea8:    f0210104    !...    BIC      r1,r1,#4
        0x08000eac:    6241        Ab      STR      r1,[r0,#0x24]
        0x08000eae:    6a41        Aj      LDR      r1,[r0,#0x24]
        0x08000eb0:    f0210120    !. .    BIC      r1,r1,#0x20
        0x08000eb4:    6241        Ab      STR      r1,[r0,#0x24]
        0x08000eb6:    6a41        Aj      LDR      r1,[r0,#0x24]
        0x08000eb8:    f0210140    !.@.    BIC      r1,r1,#0x40
        0x08000ebc:    6241        Ab      STR      r1,[r0,#0x24]
        0x08000ebe:    6801        .h      LDR      r1,[r0,#0]
        0x08000ec0:    f0410101    A...    ORR      r1,r1,#1
        0x08000ec4:    6001        .`      STR      r1,[r0,#0]
        0x08000ec6:    6801        .h      LDR      r1,[r0,#0]
        0x08000ec8:    f0410102    A...    ORR      r1,r1,#2
        0x08000ecc:    6001        .`      STR      r1,[r0,#0]
        0x08000ece:    6801        .h      LDR      r1,[r0,#0]
        0x08000ed0:    f0410104    A...    ORR      r1,r1,#4
        0x08000ed4:    6001        .`      STR      r1,[r0,#0]
        0x08000ed6:    6801        .h      LDR      r1,[r0,#0]
        0x08000ed8:    f4411100    A...    ORR      r1,r1,#0x200000
        0x08000edc:    6001        .`      STR      r1,[r0,#0]
        0x08000ede:    4770        pG      BX       lr
    $d
        0x08000ee0:    40020000    ...@    DCD    1073872896
    $t
    i.FocFastLoop
    FocFastLoop
        0x08000ee4:    b570        p.      PUSH     {r4-r6,lr}
        0x08000ee6:    4932        2I      LDR      r1,[pc,#200] ; [0x8000fb0] = 0x200000f4
        0x08000ee8:    1d88        ..      ADDS     r0,r1,#6
        0x08000eea:    4606        .F      MOV      r6,r0
        0x08000eec:    f000f9e2    ....    BL       GMC_ClarkeF16 ; 0x80012b4
        0x08000ef0:    4c2f        /L      LDR      r4,[pc,#188] ; [0x8000fb0] = 0x200000f4
        0x08000ef2:    3c28        (<      SUBS     r4,r4,#0x28
        0x08000ef4:    f104014a    ..J.    ADD      r1,r4,#0x4a
        0x08000ef8:    f9b4008c    ....    LDRSH    r0,[r4,#0x8c]
        0x08000efc:    460d        .F      MOV      r5,r1
        0x08000efe:    341e        .4      ADDS     r4,r4,#0x1e
        0x08000f00:    f001f9d6    ....    BL       MM_ThetaTransferTrigonoLut ; 0x80022b0
        0x08000f04:    462a        *F      MOV      r2,r5
        0x08000f06:    4631        1F      MOV      r1,r6
        0x08000f08:    f1040014    ....    ADD      r0,r4,#0x14
        0x08000f0c:    f000fa40    ..@.    BL       GMC_ParkeF16 ; 0x8001390
        0x08000f10:    f9b4101c    ....    LDRSH    r1,[r4,#0x1c]
        0x08000f14:    f9b40014    ....    LDRSH    r0,[r4,#0x14]
        0x08000f18:    1a08        ..      SUBS     r0,r1,r0
        0x08000f1a:    f300000f    ....    SSAT     r0,#16,r0
        0x08000f1e:    8320         .      STRH     r0,[r4,#0x18]
        0x08000f20:    f9b4201e    ...     LDRSH    r2,[r4,#0x1e]
        0x08000f24:    f9b41016    ....    LDRSH    r1,[r4,#0x16]
        0x08000f28:    1a51        Q.      SUBS     r1,r2,r1
        0x08000f2a:    f301010f    ....    SSAT     r1,#16,r1
        0x08000f2e:    8361        a.      STRH     r1,[r4,#0x1a]
        0x08000f30:    f9b41000    ....    LDRSH    r1,[r4,#0]
        0x08000f34:    f2445274    D.tR    MOV      r2,#0x4574
        0x08000f38:    4351        QC      MULS     r1,r2,r1
        0x08000f3a:    13c9        ..      ASRS     r1,r1,#15
        0x08000f3c:    8721        !.      STRH     r1,[r4,#0x38]
        0x08000f3e:    4249        IB      RSBS     r1,r1,#0
        0x08000f40:    8761        a.      STRH     r1,[r4,#0x3a]
        0x08000f42:    f1040132    ..2.    ADD      r1,r4,#0x32
        0x08000f46:    f000f916    ....    BL       GCF_CtrlPIrAW_F16 ; 0x8001176
        0x08000f4a:    8420         .      STRH     r0,[r4,#0x20]
        0x08000f4c:    f9b41038    ..8.    LDRSH    r1,[r4,#0x38]
        0x08000f50:    4340        @C      MULS     r0,r0,r0
        0x08000f52:    4349        IC      MULS     r1,r1,r1
        0x08000f54:    f34131cf    A..1    SBFX     r1,r1,#15,#16
        0x08000f58:    f34030cf    @..0    SBFX     r0,r0,#15,#16
        0x08000f5c:    1a08        ..      SUBS     r0,r1,r0
        0x08000f5e:    f300000f    ....    SSAT     r0,#16,r0
        0x08000f62:    f001f91f    ....    BL       MM_Sqrt_F16 ; 0x80021a4
        0x08000f66:    f8a40048    ..H.    STRH     r0,[r4,#0x48]
        0x08000f6a:    4240        @B      RSBS     r0,r0,#0
        0x08000f6c:    f8a4004a    ..J.    STRH     r0,[r4,#0x4a]
        0x08000f70:    f9b4001a    ....    LDRSH    r0,[r4,#0x1a]
        0x08000f74:    f1040142    ..B.    ADD      r1,r4,#0x42
        0x08000f78:    f000f8fd    ....    BL       GCF_CtrlPIrAW_F16 ; 0x8001176
        0x08000f7c:    8460        `.      STRH     r0,[r4,#0x22]
        0x08000f7e:    f1040120    .. .    ADD      r1,r4,#0x20
        0x08000f82:    462a        *F      MOV      r2,r5
        0x08000f84:    1d08        ..      ADDS     r0,r1,#4
        0x08000f86:    4605        .F      MOV      r5,r0
        0x08000f88:    f000f9dc    ....    BL       GMC_InvParkF16 ; 0x8001344
        0x08000f8c:    8820         .      LDRH     r0,[r4,#0]
        0x08000f8e:    f8a4013a    ..:.    STRH     r0,[r4,#0x13a]
        0x08000f92:    f504729d    ...r    ADD      r2,r4,#0x13a
        0x08000f96:    f5a27089    ...p    SUB      r0,r2,#0x112
        0x08000f9a:    4629        )F      MOV      r1,r5
        0x08000f9c:    4604        .F      MOV      r4,r0
        0x08000f9e:    f000f99c    ....    BL       GMC_DcBusCompF16 ; 0x80012da
        0x08000fa2:    4621        !F      MOV      r1,r4
        0x08000fa4:    4803        .H      LDR      r0,[pc,#12] ; [0x8000fb4] = 0x20000212
        0x08000fa6:    f000fa33    ..3.    BL       GMC_Svm ; 0x8001410
        0x08000faa:    2001        .       MOVS     r0,#1
        0x08000fac:    bd70        p.      POP      {r4-r6,pc}
    $d
        0x08000fae:    0000        ..      DCW    0
        0x08000fb0:    200000f4    ...     DCD    536871156
        0x08000fb4:    20000212    ...     DCD    536871442
    $t
    i.FocSlowLoop
    FocSlowLoop
        0x08000fb8:    b570        p.      PUSH     {r4-r6,lr}
        0x08000fba:    4c2f        /L      LDR      r4,[pc,#188] ; [0x8001078] = 0x200000cc
        0x08000fbc:    2600        .&      MOVS     r6,#0
        0x08000fbe:    f1040184    ....    ADD      r1,r4,#0x84
        0x08000fc2:    8766        f.      STRH     r6,[r4,#0x3a]
        0x08000fc4:    f9b40092    ....    LDRSH    r0,[r4,#0x92]
        0x08000fc8:    f000f950    ..P.    BL       GCF_Ramp_F16 ; 0x800126c
        0x08000fcc:    f8a40094    ....    STRH     r0,[r4,#0x94]
        0x08000fd0:    f9b4108e    ....    LDRSH    r1,[r4,#0x8e]
        0x08000fd4:    1a40        @.      SUBS     r0,r0,r1
        0x08000fd6:    f300000f    ....    SSAT     r0,#16,r0
        0x08000fda:    f8a40096    ....    STRH     r0,[r4,#0x96]
        0x08000fde:    f1040170    ..p.    ADD      r1,r4,#0x70
        0x08000fe2:    f000f84d    ..M.    BL       GCF_CtrlPIpAW_F16 ; 0x8001080
        0x08000fe6:    87a0        ..      STRH     r0,[r4,#0x3c]
        0x08000fe8:    f8940144    ..D.    LDRB     r0,[r4,#0x144]
        0x08000fec:    4d23        #M      LDR      r5,[pc,#140] ; [0x800107c] = 0x20000010
        0x08000fee:    b140        @.      CBZ      r0,0x8001002 ; FocSlowLoop + 74
        0x08000ff0:    2801        .(      CMP      r0,#1
        0x08000ff2:    d00d        ..      BEQ      0x8001010 ; FocSlowLoop + 88
        0x08000ff4:    2802        .(      CMP      r0,#2
        0x08000ff6:    d03c        <.      BEQ      0x8001072 ; FocSlowLoop + 186
        0x08000ff8:    2002        .       MOVS     r0,#2
        0x08000ffa:    f8840144    ..D.    STRB     r0,[r4,#0x144]
        0x08000ffe:    2001        .       MOVS     r0,#1
        0x08001000:    bd70        p.      POP      {r4-r6,pc}
        0x08001002:    f8b400b0    ....    LDRH     r0,[r4,#0xb0]
        0x08001006:    80e8        ..      STRH     r0,[r5,#6]
        0x08001008:    812e        ..      STRH     r6,[r5,#8]
        0x0800100a:    8760        `.      STRH     r0,[r4,#0x3a]
        0x0800100c:    87a6        ..      STRH     r6,[r4,#0x3c]
        0x0800100e:    e7f6        ..      B        0x8000ffe ; FocSlowLoop + 70
        0x08001010:    f8b400b0    ....    LDRH     r0,[r4,#0xb0]
        0x08001014:    80e8        ..      STRH     r0,[r5,#6]
        0x08001016:    f9b410ae    ....    LDRSH    r1,[r4,#0xae]
        0x0800101a:    1e0a        ..      SUBS     r2,r1,#0
        0x0800101c:    dc00        ..      BGT      0x8001020 ; FocSlowLoop + 104
        0x0800101e:    4251        QB      RSBS     r1,r2,#0
        0x08001020:    b208        ..      SXTH     r0,r1
        0x08001022:    f9b410c8    ....    LDRSH    r1,[r4,#0xc8]
        0x08001026:    1a40        @.      SUBS     r0,r0,r1
        0x08001028:    f300000f    ....    SSAT     r0,#16,r0
        0x0800102c:    8128        (.      STRH     r0,[r5,#8]
        0x0800102e:    f9b410ca    ....    LDRSH    r1,[r4,#0xca]
        0x08001032:    1a89        ..      SUBS     r1,r1,r2
        0x08001034:    f301010f    ....    SSAT     r1,#16,r1
        0x08001038:    f001f876    ..v.    BL       MM_SatDivF16 ; 0x8002128
        0x0800103c:    8128        (.      STRH     r0,[r5,#8]
        0x0800103e:    f64771ff    G..q    MOV      r1,#0x7fff
        0x08001042:    1a08        ..      SUBS     r0,r1,r0
        0x08001044:    f300000f    ....    SSAT     r0,#16,r0
        0x08001048:    f001f892    ....    BL       MM_SqrtLut_F16 ; 0x8002170
        0x0800104c:    f9b51006    ....    LDRSH    r1,[r5,#6]
        0x08001050:    2900        .)      CMP      r1,#0
        0x08001052:    dc00        ..      BGT      0x8001056 ; FocSlowLoop + 158
        0x08001054:    4249        IB      RSBS     r1,r1,#0
        0x08001056:    b209        ..      SXTH     r1,r1
        0x08001058:    4348        HC      MULS     r0,r1,r0
        0x0800105a:    13c0        ..      ASRS     r0,r0,#15
        0x0800105c:    8760        `.      STRH     r0,[r4,#0x3a]
        0x0800105e:    f9b50008    ....    LDRSH    r0,[r5,#8]
        0x08001062:    f001f885    ....    BL       MM_SqrtLut_F16 ; 0x8002170
        0x08001066:    f9b51006    ....    LDRSH    r1,[r5,#6]
        0x0800106a:    4348        HC      MULS     r0,r1,r0
        0x0800106c:    13c0        ..      ASRS     r0,r0,#15
        0x0800106e:    87a0        ..      STRH     r0,[r4,#0x3c]
        0x08001070:    e7c5        ..      B        0x8000ffe ; FocSlowLoop + 70
        0x08001072:    8766        f.      STRH     r6,[r4,#0x3a]
        0x08001074:    e7c3        ..      B        0x8000ffe ; FocSlowLoop + 70
    $d
        0x08001076:    0000        ..      DCW    0
        0x08001078:    200000cc    ...     DCD    536871116
        0x0800107c:    20000010    ...     DCD    536870928
    $t
    i.GCF_CtrlPIpAW_F16
    GCF_CtrlPIpAW_F16
        0x08001080:    e92d43f0    -..C    PUSH     {r4-r9,lr}
        0x08001084:    f9b14000    ...@    LDRSH    r4,[r1,#0]
        0x08001088:    f9b12004    ...     LDRSH    r2,[r1,#4]
        0x0800108c:    f06f4540    o.@E    MVN      r5,#0xc0000000
        0x08001090:    4344        DC      MULS     r4,r0,r4
        0x08001092:    07ab        ..      LSLS     r3,r5,#30
        0x08001094:    f04f4800    O..H    MOV      r8,#0x80000000
        0x08001098:    2a00        .*      CMP      r2,#0
        0x0800109a:    da02        ..      BGE      0x80010a2 ; GCF_CtrlPIpAW_F16 + 34
        0x0800109c:    4252        RB      RSBS     r2,r2,#0
        0x0800109e:    4114        .A      ASRS     r4,r4,r2
        0x080010a0:    e00e        ..      B        0x80010c0 ; GCF_CtrlPIpAW_F16 + 64
        0x080010a2:    b296        ..      UXTH     r6,r2
        0x080010a4:    fa04f206    ....    LSL      r2,r4,r6
        0x080010a8:    fa25f706    %...    LSR      r7,r5,r6
        0x080010ac:    42bc        .B      CMP      r4,r7
        0x080010ae:    dd01        ..      BLE      0x80010b4 ; GCF_CtrlPIpAW_F16 + 52
        0x080010b0:    462a        *F      MOV      r2,r5
        0x080010b2:    e004        ..      B        0x80010be ; GCF_CtrlPIpAW_F16 + 62
        0x080010b4:    fa48f706    H...    ASR      r7,r8,r6
        0x080010b8:    42bc        .B      CMP      r4,r7
        0x080010ba:    dc00        ..      BGT      0x80010be ; GCF_CtrlPIpAW_F16 + 62
        0x080010bc:    461a        .F      MOV      r2,r3
        0x080010be:    4614        .F      MOV      r4,r2
        0x080010c0:    f9b12002    ...     LDRSH    r2,[r1,#2]
        0x080010c4:    f9b1700c    ...p    LDRSH    r7,[r1,#0xc]
        0x080010c8:    fb02f600    ....    MUL      r6,r2,r0
        0x080010cc:    fb026207    ...b    MLA      r2,r2,r7,r6
        0x080010d0:    f04f4780    O..G    MOV      r7,#0x40000000
        0x080010d4:    46a1        .F      MOV      r9,r4
        0x080010d6:    42ba        .B      CMP      r2,r7
        0x080010d8:    db01        ..      BLT      0x80010de ; GCF_CtrlPIpAW_F16 + 94
        0x080010da:    462a        *F      MOV      r2,r5
        0x080010dc:    e002        ..      B        0x80010e4 ; GCF_CtrlPIpAW_F16 + 100
        0x080010de:    429a        .B      CMP      r2,r3
        0x080010e0:    da00        ..      BGE      0x80010e4 ; GCF_CtrlPIpAW_F16 + 100
        0x080010e2:    461a        .F      MOV      r2,r3
        0x080010e4:    8188        ..      STRH     r0,[r1,#0xc]
        0x080010e6:    f9b10006    ....    LDRSH    r0,[r1,#6]
        0x080010ea:    690e        .i      LDR      r6,[r1,#0x10]
        0x080010ec:    2800        .(      CMP      r0,#0
        0x080010ee:    db12        ..      BLT      0x8001116 ; GCF_CtrlPIpAW_F16 + 150
        0x080010f0:    88c8        ..      LDRH     r0,[r1,#6]
        0x080010f2:    4614        .F      MOV      r4,r2
        0x080010f4:    4082        .@      LSLS     r2,r2,r0
        0x080010f6:    fa25fc00    %...    LSR      r12,r5,r0
        0x080010fa:    4564        dE      CMP      r4,r12
        0x080010fc:    dd01        ..      BLE      0x8001102 ; GCF_CtrlPIpAW_F16 + 130
        0x080010fe:    462a        *F      MOV      r2,r5
        0x08001100:    e004        ..      B        0x800110c ; GCF_CtrlPIpAW_F16 + 140
        0x08001102:    fa48f800    H...    ASR      r8,r8,r0
        0x08001106:    4544        DE      CMP      r4,r8
        0x08001108:    dc00        ..      BGT      0x800110c ; GCF_CtrlPIpAW_F16 + 140
        0x0800110a:    461a        .F      MOV      r2,r3
        0x0800110c:    4432        2D      ADD      r2,r2,r6
        0x0800110e:    42ba        .B      CMP      r2,r7
        0x08001110:    db04        ..      BLT      0x800111c ; GCF_CtrlPIpAW_F16 + 156
        0x08001112:    462a        *F      MOV      r2,r5
        0x08001114:    e005        ..      B        0x8001122 ; GCF_CtrlPIpAW_F16 + 162
        0x08001116:    4240        @B      RSBS     r0,r0,#0
        0x08001118:    4102        .A      ASRS     r2,r2,r0
        0x0800111a:    e7f7        ..      B        0x800110c ; GCF_CtrlPIpAW_F16 + 140
        0x0800111c:    429a        .B      CMP      r2,r3
        0x0800111e:    da00        ..      BGE      0x8001122 ; GCF_CtrlPIpAW_F16 + 162
        0x08001120:    461a        .F      MOV      r2,r3
        0x08001122:    f9b1600a    ...`    LDRSH    r6,[r1,#0xa]
        0x08001126:    f9b14008    ...@    LDRSH    r4,[r1,#8]
        0x0800112a:    03f0        ..      LSLS     r0,r6,#15
        0x0800112c:    ea4f3cc4    O..<    LSL      r12,r4,#15
        0x08001130:    4282        .B      CMP      r2,r0
        0x08001132:    dd00        ..      BLE      0x8001136 ; GCF_CtrlPIpAW_F16 + 182
        0x08001134:    4602        .F      MOV      r2,r0
        0x08001136:    4562        bE      CMP      r2,r12
        0x08001138:    da00        ..      BGE      0x800113c ; GCF_CtrlPIpAW_F16 + 188
        0x0800113a:    4662        bF      MOV      r2,r12
        0x0800113c:    610a        .a      STR      r2,[r1,#0x10]
        0x0800113e:    eb090102    ....    ADD      r1,r9,r2
        0x08001142:    42b9        .B      CMP      r1,r7
        0x08001144:    db01        ..      BLT      0x800114a ; GCF_CtrlPIpAW_F16 + 202
        0x08001146:    4629        )F      MOV      r1,r5
        0x08001148:    e002        ..      B        0x8001150 ; GCF_CtrlPIpAW_F16 + 208
        0x0800114a:    4299        .B      CMP      r1,r3
        0x0800114c:    da00        ..      BGE      0x8001150 ; GCF_CtrlPIpAW_F16 + 208
        0x0800114e:    4619        .F      MOV      r1,r3
        0x08001150:    f5014180    ...A    ADD      r1,r1,#0x4000
        0x08001154:    42b9        .B      CMP      r1,r7
        0x08001156:    db01        ..      BLT      0x800115c ; GCF_CtrlPIpAW_F16 + 220
        0x08001158:    4629        )F      MOV      r1,r5
        0x0800115a:    e002        ..      B        0x8001162 ; GCF_CtrlPIpAW_F16 + 226
        0x0800115c:    4299        .B      CMP      r1,r3
        0x0800115e:    da00        ..      BGE      0x8001162 ; GCF_CtrlPIpAW_F16 + 226
        0x08001160:    4619        .F      MOV      r1,r3
        0x08001162:    f34130cf    A..0    SBFX     r0,r1,#15,#16
        0x08001166:    4286        .B      CMP      r6,r0
        0x08001168:    dc00        ..      BGT      0x800116c ; GCF_CtrlPIpAW_F16 + 236
        0x0800116a:    4630        0F      MOV      r0,r6
        0x0800116c:    4284        .B      CMP      r4,r0
        0x0800116e:    db00        ..      BLT      0x8001172 ; GCF_CtrlPIpAW_F16 + 242
        0x08001170:    4620         F      MOV      r0,r4
        0x08001172:    e8bd83f0    ....    POP      {r4-r9,pc}
    i.GCF_CtrlPIrAW_F16
    GCF_CtrlPIrAW_F16
        0x08001176:    b5f0        ..      PUSH     {r4-r7,lr}
        0x08001178:    f9b13004    ...0    LDRSH    r3,[r1,#4]
        0x0800117c:    f9b12002    ...     LDRSH    r2,[r1,#2]
        0x08001180:    8088        ..      STRH     r0,[r1,#4]
        0x08001182:    4353        SC      MULS     r3,r2,r3
        0x08001184:    f9b12000    ...     LDRSH    r2,[r1,#0]
        0x08001188:    f04f4640    O.@F    MOV      r6,#0xc0000000
        0x0800118c:    4342        BC      MULS     r2,r0,r2
        0x0800118e:    17d4        ..      ASRS     r4,r2,#31
        0x08001190:    18d2        ..      ADDS     r2,r2,r3
        0x08001192:    68c8        .h      LDR      r0,[r1,#0xc]
        0x08001194:    eb4474e3    D..t    ADC      r4,r4,r3,ASR #31
        0x08001198:    ea4f73e0    O..s    ASR      r3,r0,#31
        0x0800119c:    1810        ..      ADDS     r0,r2,r0
        0x0800119e:    415c        \A      ADCS     r4,r4,r3
        0x080011a0:    43f5        .C      MVNS     r5,r6
        0x080011a2:    1b82        ..      SUBS     r2,r0,r6
        0x080011a4:    f17432ff    t..2    SBCS     r2,r4,#0xffffffff
        0x080011a8:    da01        ..      BGE      0x80011ae ; GCF_CtrlPIrAW_F16 + 56
        0x080011aa:    4630        0F      MOV      r0,r6
        0x080011ac:    e006        ..      B        0x80011bc ; GCF_CtrlPIrAW_F16 + 70
        0x080011ae:    f06f4340    o.@C    MVN      r3,#0xc0000000
        0x080011b2:    2200        ."      MOVS     r2,#0
        0x080011b4:    1a1b        ..      SUBS     r3,r3,r0
        0x080011b6:    41a2        .A      SBCS     r2,r2,r4
        0x080011b8:    da00        ..      BGE      0x80011bc ; GCF_CtrlPIrAW_F16 + 70
        0x080011ba:    4628        (F      MOV      r0,r5
        0x080011bc:    894a        J.      LDRH     r2,[r1,#0xa]
        0x080011be:    f9b13006    ...0    LDRSH    r3,[r1,#6]
        0x080011c2:    f1c2040f    ....    RSB      r4,r2,#0xf
        0x080011c6:    f9b17008    ...p    LDRSH    r7,[r1,#8]
        0x080011ca:    40a3        .@      LSLS     r3,r3,r4
        0x080011cc:    40a7        .@      LSLS     r7,r7,r4
        0x080011ce:    42b8        .B      CMP      r0,r7
        0x080011d0:    dc01        ..      BGT      0x80011d6 ; GCF_CtrlPIrAW_F16 + 96
        0x080011d2:    4638        8F      MOV      r0,r7
        0x080011d4:    e002        ..      B        0x80011dc ; GCF_CtrlPIrAW_F16 + 102
        0x080011d6:    4298        .B      CMP      r0,r3
        0x080011d8:    db00        ..      BLT      0x80011dc ; GCF_CtrlPIrAW_F16 + 102
        0x080011da:    4618        .F      MOV      r0,r3
        0x080011dc:    60c8        .`      STR      r0,[r1,#0xc]
        0x080011de:    4601        .F      MOV      r1,r0
        0x080011e0:    4090        .@      LSLS     r0,r0,r2
        0x080011e2:    fa25f302    %...    LSR      r3,r5,r2
        0x080011e6:    4299        .B      CMP      r1,r3
        0x080011e8:    dd01        ..      BLE      0x80011ee ; GCF_CtrlPIrAW_F16 + 120
        0x080011ea:    4628        (F      MOV      r0,r5
        0x080011ec:    e005        ..      B        0x80011fa ; GCF_CtrlPIrAW_F16 + 132
        0x080011ee:    f04f4300    O..C    MOV      r3,#0x80000000
        0x080011f2:    4113        .A      ASRS     r3,r3,r2
        0x080011f4:    4299        .B      CMP      r1,r3
        0x080011f6:    dc00        ..      BGT      0x80011fa ; GCF_CtrlPIrAW_F16 + 132
        0x080011f8:    4630        0F      MOV      r0,r6
        0x080011fa:    f5004080    ...@    ADD      r0,r0,#0x4000
        0x080011fe:    f34030cf    @..0    SBFX     r0,r0,#15,#16
        0x08001202:    bdf0        ..      POP      {r4-r7,pc}
    i.GCF_IntegratorTR_F16
    GCF_IntegratorTR_F16
        0x08001204:    b510        ..      PUSH     {r4,lr}
        0x08001206:    f9b12002    ...     LDRSH    r2,[r1,#2]
        0x0800120a:    f9b14000    ...@    LDRSH    r4,[r1,#0]
        0x0800120e:    fb00f302    ....    MUL      r3,r0,r2
        0x08001212:    8008        ..      STRH     r0,[r1,#0]
        0x08001214:    fb043002    ...0    MLA      r0,r4,r2,r3
        0x08001218:    688a        .h      LDR      r2,[r1,#8]
        0x0800121a:    4410        .D      ADD      r0,r0,r2
        0x0800121c:    6088        .`      STR      r0,[r1,#8]
        0x0800121e:    f5004080    ...@    ADD      r0,r0,#0x4000
        0x08001222:    f34030cf    @..0    SBFX     r0,r0,#15,#16
        0x08001226:    bd10        ..      POP      {r4,pc}
    i.GCF_LpFilterMA_F16
    GCF_LpFilterMA_F16
        0x08001228:    b570        p.      PUSH     {r4-r6,lr}
        0x0800122a:    68ca        .h      LDR      r2,[r1,#0xc]
        0x0800122c:    f04f4680    O..F    MOV      r6,#0x40000000
        0x08001230:    1e75        u.      SUBS     r5,r6,#1
        0x08001232:    4410        .D      ADD      r0,r0,r2
        0x08001234:    07ac        ..      LSLS     r4,r5,#30
        0x08001236:    42b0        .B      CMP      r0,r6
        0x08001238:    db01        ..      BLT      0x800123e ; GCF_LpFilterMA_F16 + 22
        0x0800123a:    4628        (F      MOV      r0,r5
        0x0800123c:    e002        ..      B        0x8001244 ; GCF_LpFilterMA_F16 + 28
        0x0800123e:    42a0        .B      CMP      r0,r4
        0x08001240:    da00        ..      BGE      0x8001244 ; GCF_LpFilterMA_F16 + 28
        0x08001242:    4620         F      MOV      r0,r4
        0x08001244:    60c8        .`      STR      r0,[r1,#0xc]
        0x08001246:    7a0b        .z      LDRB     r3,[r1,#8]
        0x08001248:    4602        .F      MOV      r2,r0
        0x0800124a:    4118        .A      ASRS     r0,r0,r3
        0x0800124c:    4b06        .K      LDR      r3,[pc,#24] ; [0x8001268] = 0x200000b0
        0x0800124e:    6018        .`      STR      r0,[r3,#0]
        0x08001250:    4603        .F      MOV      r3,r0
        0x08001252:    1ad0        ..      SUBS     r0,r2,r3
        0x08001254:    42b0        .B      CMP      r0,r6
        0x08001256:    db01        ..      BLT      0x800125c ; GCF_LpFilterMA_F16 + 52
        0x08001258:    4628        (F      MOV      r0,r5
        0x0800125a:    e002        ..      B        0x8001262 ; GCF_LpFilterMA_F16 + 58
        0x0800125c:    42a0        .B      CMP      r0,r4
        0x0800125e:    da00        ..      BGE      0x8001262 ; GCF_LpFilterMA_F16 + 58
        0x08001260:    4620         F      MOV      r0,r4
        0x08001262:    60c8        .`      STR      r0,[r1,#0xc]
        0x08001264:    b218        ..      SXTH     r0,r3
        0x08001266:    bd70        p.      POP      {r4-r6,pc}
    $d
        0x08001268:    200000b0    ...     DCD    536871088
    $t
    i.GCF_Ramp_F16
    GCF_Ramp_F16
        0x0800126c:    f9b12000    ...     LDRSH    r2,[r1,#0]
        0x08001270:    2800        .(      CMP      r0,#0
        0x08001272:    dd05        ..      BLE      0x8001280 ; GCF_Ramp_F16 + 20
        0x08001274:    4282        .B      CMP      r2,r0
        0x08001276:    da01        ..      BGE      0x800127c ; GCF_Ramp_F16 + 16
        0x08001278:    8848        H.      LDRH     r0,[r1,#2]
        0x0800127a:    e004        ..      B        0x8001286 ; GCF_Ramp_F16 + 26
        0x0800127c:    8888        ..      LDRH     r0,[r1,#4]
        0x0800127e:    e005        ..      B        0x800128c ; GCF_Ramp_F16 + 32
        0x08001280:    4282        .B      CMP      r2,r0
        0x08001282:    da02        ..      BGE      0x800128a ; GCF_Ramp_F16 + 30
        0x08001284:    8888        ..      LDRH     r0,[r1,#4]
        0x08001286:    4410        .D      ADD      r0,r0,r2
        0x08001288:    e001        ..      B        0x800128e ; GCF_Ramp_F16 + 34
        0x0800128a:    8848        H.      LDRH     r0,[r1,#2]
        0x0800128c:    1a10        ..      SUBS     r0,r2,r0
        0x0800128e:    8008        ..      STRH     r0,[r1,#0]
        0x08001290:    b200        ..      SXTH     r0,r0
        0x08001292:    4770        pG      BX       lr
    i.GDU_IRQHandler
    GDU_IRQHandler
        0x08001294:    f04f4080    O..@    MOV      r0,#0x40000000
        0x08001298:    6a81        .j      LDR      r1,[r0,#0x28]
        0x0800129a:    0649        I.      LSLS     r1,r1,#25
        0x0800129c:    d006        ..      BEQ      0x80012ac ; GDU_IRQHandler + 24
        0x0800129e:    4904        .I      LDR      r1,[pc,#16] ; [0x80012b0] = 0x2000009c
        0x080012a0:    680a        .h      LDR      r2,[r1,#0]
        0x080012a2:    f4427200    B..r    ORR      r2,r2,#0x200
        0x080012a6:    600a        .`      STR      r2,[r1,#0]
        0x080012a8:    217f        .!      MOVS     r1,#0x7f
        0x080012aa:    6281        .b      STR      r1,[r0,#0x28]
        0x080012ac:    4770        pG      BX       lr
    $d
        0x080012ae:    0000        ..      DCW    0
        0x080012b0:    2000009c    ...     DCD    536871068
    $t
    i.GMC_ClarkeF16
    GMC_ClarkeF16
        0x080012b4:    880a        ..      LDRH     r2,[r1,#0]
        0x080012b6:    8002        ..      STRH     r2,[r0,#0]
        0x080012b8:    f9b12002    ...     LDRSH    r2,[r1,#2]
        0x080012bc:    f64413e7    D...    MOV      r3,#0x49e7
        0x080012c0:    f9b11004    ....    LDRSH    r1,[r1,#4]
        0x080012c4:    435a        ZC      MULS     r2,r3,r2
        0x080012c6:    4359        YC      MULS     r1,r3,r1
        0x080012c8:    f34232cf    B..2    SBFX     r2,r2,#15,#16
        0x080012cc:    f34131cf    A..1    SBFX     r1,r1,#15,#16
        0x080012d0:    1a51        Q.      SUBS     r1,r2,r1
        0x080012d2:    f301010f    ....    SSAT     r1,#16,r1
        0x080012d6:    8041        A.      STRH     r1,[r0,#2]
        0x080012d8:    4770        pG      BX       lr
    i.GMC_DcBusCompF16
    GMC_DcBusCompF16
        0x080012da:    b5f0        ..      PUSH     {r4-r7,lr}
        0x080012dc:    f9b23000    ...0    LDRSH    r3,[r2,#0]
        0x080012e0:    f9b22002    ...     LDRSH    r2,[r2,#2]
        0x080012e4:    105b        [.      ASRS     r3,r3,#1
        0x080012e6:    f0430301    C...    ORR      r3,r3,#1
        0x080012ea:    03d2        ..      LSLS     r2,r2,#15
        0x080012ec:    fb92fcf3    ....    SDIV     r12,r2,r3
        0x080012f0:    f9b12000    ...     LDRSH    r2,[r1,#0]
        0x080012f4:    03d2        ..      LSLS     r2,r2,#15
        0x080012f6:    fb8c2302    ...#    SMULL    r2,r3,r12,r2
        0x080012fa:    009c        ..      LSLS     r4,r3,#2
        0x080012fc:    ea447392    D..s    ORR      r3,r4,r2,LSR #30
        0x08001300:    f06f4440    o.@D    MVN      r4,#0xc0000000
        0x08001304:    03da        ..      LSLS     r2,r3,#15
        0x08001306:    13e5        ..      ASRS     r5,r4,#15
        0x08001308:    0427        '.      LSLS     r7,r4,#16
        0x0800130a:    07a6        ..      LSLS     r6,r4,#30
        0x0800130c:    42ab        .B      CMP      r3,r5
        0x0800130e:    dd01        ..      BLE      0x8001314 ; GMC_DcBusCompF16 + 58
        0x08001310:    4622        "F      MOV      r2,r4
        0x08001312:    e002        ..      B        0x800131a ; GMC_DcBusCompF16 + 64
        0x08001314:    42bb        .B      CMP      r3,r7
        0x08001316:    dc00        ..      BGT      0x800131a ; GMC_DcBusCompF16 + 64
        0x08001318:    4632        2F      MOV      r2,r6
        0x0800131a:    13d2        ..      ASRS     r2,r2,#15
        0x0800131c:    8002        ..      STRH     r2,[r0,#0]
        0x0800131e:    f9b11002    ....    LDRSH    r1,[r1,#2]
        0x08001322:    03c9        ..      LSLS     r1,r1,#15
        0x08001324:    fb8c2101    ...!    SMULL    r2,r1,r12,r1
        0x08001328:    008b        ..      LSLS     r3,r1,#2
        0x0800132a:    ea437192    C..q    ORR      r1,r3,r2,LSR #30
        0x0800132e:    03ca        ..      LSLS     r2,r1,#15
        0x08001330:    42a9        .B      CMP      r1,r5
        0x08001332:    dd01        ..      BLE      0x8001338 ; GMC_DcBusCompF16 + 94
        0x08001334:    4622        "F      MOV      r2,r4
        0x08001336:    e002        ..      B        0x800133e ; GMC_DcBusCompF16 + 100
        0x08001338:    42b9        .B      CMP      r1,r7
        0x0800133a:    dc00        ..      BGT      0x800133e ; GMC_DcBusCompF16 + 100
        0x0800133c:    4632        2F      MOV      r2,r6
        0x0800133e:    13d1        ..      ASRS     r1,r2,#15
        0x08001340:    8041        A.      STRH     r1,[r0,#2]
        0x08001342:    bdf0        ..      POP      {r4-r7,pc}
    i.GMC_InvParkF16
    GMC_InvParkF16
        0x08001344:    b530        0.      PUSH     {r4,r5,lr}
        0x08001346:    f9b14000    ...@    LDRSH    r4,[r1,#0]
        0x0800134a:    f9b23002    ...0    LDRSH    r3,[r2,#2]
        0x0800134e:    f9b25000    ...P    LDRSH    r5,[r2,#0]
        0x08001352:    435c        \C      MULS     r4,r3,r4
        0x08001354:    f9b13002    ...0    LDRSH    r3,[r1,#2]
        0x08001358:    f34434cf    D..4    SBFX     r4,r4,#15,#16
        0x0800135c:    436b        kC      MULS     r3,r5,r3
        0x0800135e:    f34333cf    C..3    SBFX     r3,r3,#15,#16
        0x08001362:    1ae3        ..      SUBS     r3,r4,r3
        0x08001364:    f303030f    ....    SSAT     r3,#16,r3
        0x08001368:    8003        ..      STRH     r3,[r0,#0]
        0x0800136a:    f9b13000    ...0    LDRSH    r3,[r1,#0]
        0x0800136e:    f9b24000    ...@    LDRSH    r4,[r2,#0]
        0x08001372:    f9b11002    ....    LDRSH    r1,[r1,#2]
        0x08001376:    4363        cC      MULS     r3,r4,r3
        0x08001378:    f9b22002    ...     LDRSH    r2,[r2,#2]
        0x0800137c:    f34333cf    C..3    SBFX     r3,r3,#15,#16
        0x08001380:    4351        QC      MULS     r1,r2,r1
        0x08001382:    f34131cf    A..1    SBFX     r1,r1,#15,#16
        0x08001386:    4419        .D      ADD      r1,r1,r3
        0x08001388:    f301010f    ....    SSAT     r1,#16,r1
        0x0800138c:    8041        A.      STRH     r1,[r0,#2]
        0x0800138e:    bd30        0.      POP      {r4,r5,pc}
    i.GMC_ParkeF16
    GMC_ParkeF16
        0x08001390:    b5f0        ..      PUSH     {r4-r7,lr}
        0x08001392:    f9b13000    ...0    LDRSH    r3,[r1,#0]
        0x08001396:    f9b24002    ...@    LDRSH    r4,[r2,#2]
        0x0800139a:    f9b25000    ...P    LDRSH    r5,[r2,#0]
        0x0800139e:    4363        cC      MULS     r3,r4,r3
        0x080013a0:    f9b14002    ...@    LDRSH    r4,[r1,#2]
        0x080013a4:    f04f4680    O..F    MOV      r6,#0x40000000
        0x080013a8:    fb043305    ...3    MLA      r3,r4,r5,r3
        0x080013ac:    1e75        u.      SUBS     r5,r6,#1
        0x080013ae:    07ac        ..      LSLS     r4,r5,#30
        0x080013b0:    42b3        .B      CMP      r3,r6
        0x080013b2:    db01        ..      BLT      0x80013b8 ; GMC_ParkeF16 + 40
        0x080013b4:    462b        +F      MOV      r3,r5
        0x080013b6:    e002        ..      B        0x80013be ; GMC_ParkeF16 + 46
        0x080013b8:    42a3        .B      CMP      r3,r4
        0x080013ba:    da00        ..      BGE      0x80013be ; GMC_ParkeF16 + 46
        0x080013bc:    4623        #F      MOV      r3,r4
        0x080013be:    f5034380    ...C    ADD      r3,r3,#0x4000
        0x080013c2:    42b3        .B      CMP      r3,r6
        0x080013c4:    db01        ..      BLT      0x80013ca ; GMC_ParkeF16 + 58
        0x080013c6:    462b        +F      MOV      r3,r5
        0x080013c8:    e002        ..      B        0x80013d0 ; GMC_ParkeF16 + 64
        0x080013ca:    42a3        .B      CMP      r3,r4
        0x080013cc:    da00        ..      BGE      0x80013d0 ; GMC_ParkeF16 + 64
        0x080013ce:    4623        #F      MOV      r3,r4
        0x080013d0:    13db        ..      ASRS     r3,r3,#15
        0x080013d2:    8003        ..      STRH     r3,[r0,#0]
        0x080013d4:    f9b13002    ...0    LDRSH    r3,[r1,#2]
        0x080013d8:    f9b27002    ...p    LDRSH    r7,[r2,#2]
        0x080013dc:    f9b11000    ....    LDRSH    r1,[r1,#0]
        0x080013e0:    f9b22000    ...     LDRSH    r2,[r2,#0]
        0x080013e4:    437b        {C      MULS     r3,r7,r3
        0x080013e6:    fb013312    ...3    MLS      r3,r1,r2,r3
        0x080013ea:    42b3        .B      CMP      r3,r6
        0x080013ec:    db01        ..      BLT      0x80013f2 ; GMC_ParkeF16 + 98
        0x080013ee:    462b        +F      MOV      r3,r5
        0x080013f0:    e002        ..      B        0x80013f8 ; GMC_ParkeF16 + 104
        0x080013f2:    42a3        .B      CMP      r3,r4
        0x080013f4:    da00        ..      BGE      0x80013f8 ; GMC_ParkeF16 + 104
        0x080013f6:    4623        #F      MOV      r3,r4
        0x080013f8:    f5034380    ...C    ADD      r3,r3,#0x4000
        0x080013fc:    42b3        .B      CMP      r3,r6
        0x080013fe:    db01        ..      BLT      0x8001404 ; GMC_ParkeF16 + 116
        0x08001400:    462b        +F      MOV      r3,r5
        0x08001402:    e002        ..      B        0x800140a ; GMC_ParkeF16 + 122
        0x08001404:    42a3        .B      CMP      r3,r4
        0x08001406:    da00        ..      BGE      0x800140a ; GMC_ParkeF16 + 122
        0x08001408:    4623        #F      MOV      r3,r4
        0x0800140a:    13d9        ..      ASRS     r1,r3,#15
        0x0800140c:    8041        A.      STRH     r1,[r0,#2]
        0x0800140e:    bdf0        ..      POP      {r4-r7,pc}
    i.GMC_Svm
    GMC_Svm
        0x08001410:    b530        0.      PUSH     {r4,r5,lr}
        0x08001412:    f9b12000    ...     LDRSH    r2,[r1,#0]
        0x08001416:    f243736c    C.ls    MOV      r3,#0x376c
        0x0800141a:    435a        ZC      MULS     r2,r3,r2
        0x0800141c:    f9b13002    ...0    LDRSH    r3,[r1,#2]
        0x08001420:    13d2        ..      ASRS     r2,r2,#15
        0x08001422:    109b        ..      ASRS     r3,r3,#2
        0x08001424:    d404        ..      BMI      0x8001430 ; GMC_Svm + 32
        0x08001426:    2400        .$      MOVS     r4,#0
        0x08001428:    8004        ..      STRH     r4,[r0,#0]
        0x0800142a:    4615        .F      MOV      r5,r2
        0x0800142c:    461c        .F      MOV      r4,r3
        0x0800142e:    e004        ..      B        0x800143a ; GMC_Svm + 42
        0x08001430:    2403        .$      MOVS     r4,#3
        0x08001432:    8004        ..      STRH     r4,[r0,#0]
        0x08001434:    4254        TB      RSBS     r4,r2,#0
        0x08001436:    b225        %.      SXTH     r5,r4
        0x08001438:    425c        \B      RSBS     r4,r3,#0
        0x0800143a:    42a5        .B      CMP      r5,r4
        0x0800143c:    dd11        ..      BLE      0x8001462 ; GMC_Svm + 82
        0x0800143e:    441a        .D      ADD      r2,r2,r3
        0x08001440:    f9b11002    ....    LDRSH    r1,[r1,#2]
        0x08001444:    b212        ..      SXTH     r2,r2
        0x08001446:    1a89        ..      SUBS     r1,r1,r2
        0x08001448:    f301010f    ....    SSAT     r1,#16,r1
        0x0800144c:    f5014180    ...A    ADD      r1,r1,#0x4000
        0x08001450:    f301030f    ....    SSAT     r3,#16,r1
        0x08001454:    8804        ..      LDRH     r4,[r0,#0]
        0x08001456:    f5c24180    ...A    RSB      r1,r2,#0x4000
        0x0800145a:    f301010f    ....    SSAT     r1,#16,r1
        0x0800145e:    1c64        d.      ADDS     r4,r4,#1
        0x08001460:    e023        #.      B        0x80014aa ; GMC_Svm + 154
        0x08001462:    426d        mB      RSBS     r5,r5,#0
        0x08001464:    42a5        .B      CMP      r5,r4
        0x08001466:    dd11        ..      BLE      0x800148c ; GMC_Svm + 124
        0x08001468:    1ad2        ..      SUBS     r2,r2,r3
        0x0800146a:    b212        ..      SXTH     r2,r2
        0x0800146c:    f9b11002    ....    LDRSH    r1,[r1,#2]
        0x08001470:    8804        ..      LDRH     r4,[r0,#0]
        0x08001472:    4411        .D      ADD      r1,r1,r2
        0x08001474:    f301010f    ....    SSAT     r1,#16,r1
        0x08001478:    f5c24380    ...C    RSB      r3,r2,#0x4000
        0x0800147c:    f5c14180    ...A    RSB      r1,r1,#0x4000
        0x08001480:    f303030f    ....    SSAT     r3,#16,r3
        0x08001484:    f301010f    ....    SSAT     r1,#16,r1
        0x08001488:    1ce4        ..      ADDS     r4,r4,#3
        0x0800148a:    e00e        ..      B        0x80014aa ; GMC_Svm + 154
        0x0800148c:    f9b11002    ....    LDRSH    r1,[r1,#2]
        0x08001490:    0052        R.      LSLS     r2,r2,#1
        0x08001492:    104b        K.      ASRS     r3,r1,#1
        0x08001494:    f5c34180    ...A    RSB      r1,r3,#0x4000
        0x08001498:    8804        ..      LDRH     r4,[r0,#0]
        0x0800149a:    f5034380    ...C    ADD      r3,r3,#0x4000
        0x0800149e:    b212        ..      SXTH     r2,r2
        0x080014a0:    f301010f    ....    SSAT     r1,#16,r1
        0x080014a4:    f303030f    ....    SSAT     r3,#16,r3
        0x080014a8:    1ca4        ..      ADDS     r4,r4,#2
        0x080014aa:    b2a4        ..      UXTH     r4,r4
        0x080014ac:    1e64        d.      SUBS     r4,r4,#1
        0x080014ae:    f5024280    ...B    ADD      r2,r2,#0x4000
        0x080014b2:    f302020f    ....    SSAT     r2,#16,r2
        0x080014b6:    8004        ..      STRH     r4,[r0,#0]
        0x080014b8:    2a00        .*      CMP      r2,#0
        0x080014ba:    da00        ..      BGE      0x80014be ; GMC_Svm + 174
        0x080014bc:    2200        ."      MOVS     r2,#0
        0x080014be:    2b00        .+      CMP      r3,#0
        0x080014c0:    da00        ..      BGE      0x80014c4 ; GMC_Svm + 180
        0x080014c2:    2300        .#      MOVS     r3,#0
        0x080014c4:    2900        .)      CMP      r1,#0
        0x080014c6:    da00        ..      BGE      0x80014ca ; GMC_Svm + 186
        0x080014c8:    2100        .!      MOVS     r1,#0
        0x080014ca:    8182        ..      STRH     r2,[r0,#0xc]
        0x080014cc:    81c3        ..      STRH     r3,[r0,#0xe]
        0x080014ce:    8201        ..      STRH     r1,[r0,#0x10]
        0x080014d0:    2101        .!      MOVS     r1,#1
        0x080014d2:    80c1        ..      STRH     r1,[r0,#6]
        0x080014d4:    bd30        0.      POP      {r4,r5,pc}
        0x080014d6:    0000        ..      MOVS     r0,r0
    i.GetPhaseCurr_1rps
    GetPhaseCurr_1rps
        0x080014d8:    4a47        GJ      LDR      r2,[pc,#284] ; [0x80015f8] = 0x40022000
        0x080014da:    6b51        Qk      LDR      r1,[r2,#0x34]
        0x080014dc:    f3c1010b    ....    UBFX     r1,r1,#0,#12
        0x080014e0:    f8a01042    ..B.    STRH     r1,[r0,#0x42]
        0x080014e4:    6b92        .k      LDR      r2,[r2,#0x38]
        0x080014e6:    f3c2020b    ....    UBFX     r2,r2,#0,#12
        0x080014ea:    f8a02044    ..D     STRH     r2,[r0,#0x44]
        0x080014ee:    f9b03064    ..d0    LDRSH    r3,[r0,#0x64]
        0x080014f2:    1ac9        ..      SUBS     r1,r1,r3
        0x080014f4:    f301110f    ....    SSAT     r1,#16,r1,LSL #4
        0x080014f8:    1ad2        ..      SUBS     r2,r2,r3
        0x080014fa:    87c1        ..      STRH     r1,[r0,#0x3e]
        0x080014fc:    f302120f    ....    SSAT     r2,#16,r2,LSL #4
        0x08001500:    f8a02040    ..@     STRH     r2,[r0,#0x40]
        0x08001504:    6b03        .k      LDR      r3,[r0,#0x30]
        0x08001506:    2b01        .+      CMP      r3,#1
        0x08001508:    d00e        ..      BEQ      0x8001528 ; GetPhaseCurr_1rps + 80
        0x0800150a:    2b02        .+      CMP      r3,#2
        0x0800150c:    d033        3.      BEQ      0x8001576 ; GetPhaseCurr_1rps + 158
        0x0800150e:    2b03        .+      CMP      r3,#3
        0x08001510:    d126        &.      BNE      0x8001560 ; GetPhaseCurr_1rps + 136
        0x08001512:    6a83        .j      LDR      r3,[r0,#0x28]
        0x08001514:    2b02        .+      CMP      r3,#2
        0x08001516:    d056        V.      BEQ      0x80015c6 ; GetPhaseCurr_1rps + 238
        0x08001518:    2b01        .+      CMP      r3,#1
        0x0800151a:    d121        !.      BNE      0x8001560 ; GetPhaseCurr_1rps + 136
        0x0800151c:    f9b03048    ..H0    LDRSH    r3,[r0,#0x48]
        0x08001520:    b3a3        ..      CBZ      r3,0x800158c ; GetPhaseCurr_1rps + 180
        0x08001522:    2b01        .+      CMP      r3,#1
        0x08001524:    d054        T.      BEQ      0x80015d0 ; GetPhaseCurr_1rps + 248
        0x08001526:    e009        ..      B        0x800153c ; GetPhaseCurr_1rps + 100
        0x08001528:    6a83        .j      LDR      r3,[r0,#0x28]
        0x0800152a:    2b02        .+      CMP      r3,#2
        0x0800152c:    d00a        ..      BEQ      0x8001544 ; GetPhaseCurr_1rps + 108
        0x0800152e:    2b03        .+      CMP      r3,#3
        0x08001530:    d116        ..      BNE      0x8001560 ; GetPhaseCurr_1rps + 136
        0x08001532:    f9b03048    ..H0    LDRSH    r3,[r0,#0x48]
        0x08001536:    b1c3        ..      CBZ      r3,0x800156a ; GetPhaseCurr_1rps + 146
        0x08001538:    2b01        .+      CMP      r3,#1
        0x0800153a:    d00f        ..      BEQ      0x800155c ; GetPhaseCurr_1rps + 132
        0x0800153c:    2b02        .+      CMP      r3,#2
        0x0800153e:    d10f        ..      BNE      0x8001560 ; GetPhaseCurr_1rps + 136
        0x08001540:    4251        QB      RSBS     r1,r2,#0
        0x08001542:    e033        3.      B        0x80015ac ; GetPhaseCurr_1rps + 212
        0x08001544:    f9b03048    ..H0    LDRSH    r3,[r0,#0x48]
        0x08001548:    b113        ..      CBZ      r3,0x8001550 ; GetPhaseCurr_1rps + 120
        0x0800154a:    2b01        .+      CMP      r3,#1
        0x0800154c:    d006        ..      BEQ      0x800155c ; GetPhaseCurr_1rps + 132
        0x0800154e:    e008        ..      B        0x8001562 ; GetPhaseCurr_1rps + 138
        0x08001550:    f8201f58     .X.    STRH     r1,[r0,#0x58]!
        0x08001554:    4252        RB      RSBS     r2,r2,#0
        0x08001556:    8082        ..      STRH     r2,[r0,#4]
        0x08001558:    4411        .D      ADD      r1,r1,r2
        0x0800155a:    e042        B.      B        0x80015e2 ; GetPhaseCurr_1rps + 266
        0x0800155c:    f8a01058    ..X.    STRH     r1,[r0,#0x58]
        0x08001560:    4770        pG      BX       lr
        0x08001562:    2b02        .+      CMP      r3,#2
        0x08001564:    d1fc        ..      BNE      0x8001560 ; GetPhaseCurr_1rps + 136
        0x08001566:    4251        QB      RSBS     r1,r2,#0
        0x08001568:    e032        2.      B        0x80015d0 ; GetPhaseCurr_1rps + 248
        0x0800156a:    f8201f58     .X.    STRH     r1,[r0,#0x58]!
        0x0800156e:    4252        RB      RSBS     r2,r2,#0
        0x08001570:    8042        B.      STRH     r2,[r0,#2]
        0x08001572:    4411        .D      ADD      r1,r1,r2
        0x08001574:    e017        ..      B        0x80015a6 ; GetPhaseCurr_1rps + 206
        0x08001576:    6a83        .j      LDR      r3,[r0,#0x28]
        0x08001578:    2b03        .+      CMP      r3,#3
        0x0800157a:    d008        ..      BEQ      0x800158e ; GetPhaseCurr_1rps + 182
        0x0800157c:    2b01        .+      CMP      r3,#1
        0x0800157e:    d1ef        ..      BNE      0x8001560 ; GetPhaseCurr_1rps + 136
        0x08001580:    f9b03048    ..H0    LDRSH    r3,[r0,#0x48]
        0x08001584:    b1cb        ..      CBZ      r3,0x80015ba ; GetPhaseCurr_1rps + 226
        0x08001586:    2b01        .+      CMP      r3,#1
        0x08001588:    d010        ..      BEQ      0x80015ac ; GetPhaseCurr_1rps + 212
        0x0800158a:    e7ea        ..      B        0x8001562 ; GetPhaseCurr_1rps + 138
        0x0800158c:    e02c        ,.      B        0x80015e8 ; GetPhaseCurr_1rps + 272
        0x0800158e:    f9b03048    ..H0    LDRSH    r3,[r0,#0x48]
        0x08001592:    b113        ..      CBZ      r3,0x800159a ; GetPhaseCurr_1rps + 194
        0x08001594:    2b01        .+      CMP      r3,#1
        0x08001596:    d009        ..      BEQ      0x80015ac ; GetPhaseCurr_1rps + 212
        0x08001598:    e00b        ..      B        0x80015b2 ; GetPhaseCurr_1rps + 218
        0x0800159a:    f8a0105a    ..Z.    STRH     r1,[r0,#0x5a]
        0x0800159e:    4252        RB      RSBS     r2,r2,#0
        0x080015a0:    f8202f58     .X/    STRH     r2,[r0,#0x58]!
        0x080015a4:    4411        .D      ADD      r1,r1,r2
        0x080015a6:    4249        IB      RSBS     r1,r1,#0
        0x080015a8:    8081        ..      STRH     r1,[r0,#4]
        0x080015aa:    4770        pG      BX       lr
        0x080015ac:    f8a0105a    ..Z.    STRH     r1,[r0,#0x5a]
        0x080015b0:    4770        pG      BX       lr
        0x080015b2:    2b02        .+      CMP      r3,#2
        0x080015b4:    d1fc        ..      BNE      0x80015b0 ; GetPhaseCurr_1rps + 216
        0x080015b6:    4251        QB      RSBS     r1,r2,#0
        0x080015b8:    e7d0        ..      B        0x800155c ; GetPhaseCurr_1rps + 132
        0x080015ba:    f8a0105a    ..Z.    STRH     r1,[r0,#0x5a]
        0x080015be:    4252        RB      RSBS     r2,r2,#0
        0x080015c0:    f8a0205c    ..\     STRH     r2,[r0,#0x5c]
        0x080015c4:    e015        ..      B        0x80015f2 ; GetPhaseCurr_1rps + 282
        0x080015c6:    f9b03048    ..H0    LDRSH    r3,[r0,#0x48]
        0x080015ca:    b123        #.      CBZ      r3,0x80015d6 ; GetPhaseCurr_1rps + 254
        0x080015cc:    2b01        .+      CMP      r3,#1
        0x080015ce:    d1f0        ..      BNE      0x80015b2 ; GetPhaseCurr_1rps + 218
        0x080015d0:    f8a0105c    ..\.    STRH     r1,[r0,#0x5c]
        0x080015d4:    4770        pG      BX       lr
        0x080015d6:    f8a0105c    ..\.    STRH     r1,[r0,#0x5c]
        0x080015da:    4252        RB      RSBS     r2,r2,#0
        0x080015dc:    f8202f58     .X/    STRH     r2,[r0,#0x58]!
        0x080015e0:    4411        .D      ADD      r1,r1,r2
        0x080015e2:    4249        IB      RSBS     r1,r1,#0
        0x080015e4:    8041        A.      STRH     r1,[r0,#2]
        0x080015e6:    4770        pG      BX       lr
        0x080015e8:    f8a0105c    ..\.    STRH     r1,[r0,#0x5c]
        0x080015ec:    4252        RB      RSBS     r2,r2,#0
        0x080015ee:    f8a0205a    ..Z     STRH     r2,[r0,#0x5a]
        0x080015f2:    4411        .D      ADD      r1,r1,r2
        0x080015f4:    4249        IB      RSBS     r1,r1,#0
        0x080015f6:    e7b1        ..      B        0x800155c ; GetPhaseCurr_1rps + 132
    $d
        0x080015f8:    40022000    . .@    DCD    1073881088
    $t
    i.GotoSleep
    GotoSleep
        0x080015fc:    4804        .H      LDR      r0,[pc,#16] ; [0x8001610] = 0x40020000
        0x080015fe:    f24871e4    H..q    MOV      r1,#0x87e4
        0x08001602:    6401        .d      STR      r1,[r0,#0x40]
        0x08001604:    6b01        .k      LDR      r1,[r0,#0x30]
        0x08001606:    f0410102    A...    ORR      r1,r1,#2
        0x0800160a:    6301        .c      STR      r1,[r0,#0x30]
        0x0800160c:    e7fe        ..      B        0x800160c ; GotoSleep + 16
    $d
        0x0800160e:    0000        ..      DCW    0
        0x08001610:    40020000    ...@    DCD    1073872896
    $t
    i.HardFaultHandler
    HardFaultHandler
        0x08001614:    e7fe        ..      B        HardFaultHandler ; 0x8001614
        0x08001616:    0000        ..      MOVS     r0,r0
    i.InitFocParas
    InitFocParas
        0x08001618:    b570        p.      PUSH     {r4-r6,lr}
        0x0800161a:    4c82        .L      LDR      r4,[pc,#520] ; [0x8001824] = 0x200000cc
        0x0800161c:    4e82        .N      LDR      r6,[pc,#520] ; [0x8001828] = 0x8002f34
        0x0800161e:    2500        .%      MOVS     r5,#0
        0x08001620:    8065        e.      STRH     r5,[r4,#2]
        0x08001622:    8cb0        ..      LDRH     r0,[r6,#0x24]
        0x08001624:    80a0        ..      STRH     r0,[r4,#4]
        0x08001626:    80e5        ..      STRH     r5,[r4,#6]
        0x08001628:    4628        (F      MOV      r0,r5
        0x0800162a:    60a5        .`      STR      r5,[r4,#8]
        0x0800162c:    eb040140    ..@.    ADD      r1,r4,r0,LSL #1
        0x08001630:    1c40        @.      ADDS     r0,r0,#1
        0x08001632:    b2c0        ..      UXTB     r0,r0
        0x08001634:    81cd        ..      STRH     r5,[r1,#0xe]
        0x08001636:    2808        .(      CMP      r0,#8
        0x08001638:    d3f8        ..      BCC      0x800162c ; InitFocParas + 20
        0x0800163a:    f8845144    ..DQ    STRB     r5,[r4,#0x144]
        0x0800163e:    f8245f28    $.(_    STRH     r5,[r4,#0x28]!
        0x08001642:    2032        2       MOVS     r0,#0x32
        0x08001644:    8065        e.      STRH     r5,[r4,#2]
        0x08001646:    80a5        ..      STRH     r5,[r4,#4]
        0x08001648:    80e5        ..      STRH     r5,[r4,#6]
        0x0800164a:    8125        %.      STRH     r5,[r4,#8]
        0x0800164c:    8165        e.      STRH     r5,[r4,#0xa]
        0x0800164e:    81a5        ..      STRH     r5,[r4,#0xc]
        0x08001650:    81e5        ..      STRH     r5,[r4,#0xe]
        0x08001652:    8225        %.      STRH     r5,[r4,#0x10]
        0x08001654:    8265        e.      STRH     r5,[r4,#0x12]
        0x08001656:    82a5        ..      STRH     r5,[r4,#0x14]
        0x08001658:    82e5        ..      STRH     r5,[r4,#0x16]
        0x0800165a:    8325        %.      STRH     r5,[r4,#0x18]
        0x0800165c:    8365        e.      STRH     r5,[r4,#0x1a]
        0x0800165e:    83a5        ..      STRH     r5,[r4,#0x1c]
        0x08001660:    8465        e.      STRH     r5,[r4,#0x22]
        0x08001662:    84a5        ..      STRH     r5,[r4,#0x24]
        0x08001664:    f8a4511e    ...Q    STRH     r5,[r4,#0x11e]
        0x08001668:    f8a4512a    ..*Q    STRH     r5,[r4,#0x12a]
        0x0800166c:    f8a4512c    ..,Q    STRH     r5,[r4,#0x12c]
        0x08001670:    f8a4512e    ...Q    STRH     r5,[r4,#0x12e]
        0x08001674:    f8a4515c    ..\Q    STRH     r5,[r4,#0x15c]
        0x08001678:    f8a4515e    ..^Q    STRH     r5,[r4,#0x15e]
        0x0800167c:    f8a45160    ..`Q    STRH     r5,[r4,#0x160]
        0x08001680:    f8a45162    ..bQ    STRH     r5,[r4,#0x162]
        0x08001684:    f8a45164    ..dQ    STRH     r5,[r4,#0x164]
        0x08001688:    f8a45166    ..fQ    STRH     r5,[r4,#0x166]
        0x0800168c:    f8a45168    ..hQ    STRH     r5,[r4,#0x168]
        0x08001690:    f8a4016a    ..j.    STRH     r0,[r4,#0x16a]
        0x08001694:    2064        d       MOVS     r0,#0x64
        0x08001696:    f8a4016e    ..n.    STRH     r0,[r4,#0x16e]
        0x0800169a:    2096        .       MOVS     r0,#0x96
        0x0800169c:    f8a40170    ..p.    STRH     r0,[r4,#0x170]
        0x080016a0:    6365        ec      STR      r5,[r4,#0x34]
        0x080016a2:    8db0        ..      LDRH     r0,[r6,#0x2c]
        0x080016a4:    8520         .      STRH     r0,[r4,#0x28]
        0x080016a6:    8df0        ..      LDRH     r0,[r6,#0x2e]
        0x080016a8:    8560        `.      STRH     r0,[r4,#0x2a]
        0x080016aa:    85a5        ..      STRH     r5,[r4,#0x2c]
        0x080016ac:    f8360f28    6.(.    LDRH     r0,[r6,#0x28]!
        0x080016b0:    85e0        ..      STRH     r0,[r4,#0x2e]
        0x080016b2:    8830        0.      LDRH     r0,[r6,#0]
        0x080016b4:    4240        @B      RSBS     r0,r0,#0
        0x080016b6:    8620         .      STRH     r0,[r4,#0x30]
        0x080016b8:    8871        q.      LDRH     r1,[r6,#2]
        0x080016ba:    8661        a.      STRH     r1,[r4,#0x32]
        0x080016bc:    6465        ed      STR      r5,[r4,#0x44]
        0x080016be:    8971        q.      LDRH     r1,[r6,#0xa]
        0x080016c0:    8721        !.      STRH     r1,[r4,#0x38]
        0x080016c2:    89b1        ..      LDRH     r1,[r6,#0xc]
        0x080016c4:    8761        a.      STRH     r1,[r4,#0x3a]
        0x080016c6:    87a5        ..      STRH     r5,[r4,#0x3c]
        0x080016c8:    8831        1.      LDRH     r1,[r6,#0]
        0x080016ca:    87e1        ..      STRH     r1,[r4,#0x3e]
        0x080016cc:    f8a40040    ..@.    STRH     r0,[r4,#0x40]
        0x080016d0:    8930        0.      LDRH     r0,[r6,#8]
        0x080016d2:    f8a40042    ..B.    STRH     r0,[r4,#0x42]
        0x080016d6:    f8a4505c    ..\P    STRH     r5,[r4,#0x5c]
        0x080016da:    8b70        p.      LDRH     r0,[r6,#0x1a]
        0x080016dc:    f8a4005e    ..^.    STRH     r0,[r4,#0x5e]
        0x080016e0:    8bb0        ..      LDRH     r0,[r6,#0x1c]
        0x080016e2:    f8a40060    ..`.    STRH     r0,[r4,#0x60]
        0x080016e6:    f8b60040    ..@.    LDRH     r0,[r6,#0x40]
        0x080016ea:    f8a400a0    ....    STRH     r0,[r4,#0xa0]
        0x080016ee:    f8b60042    ..B.    LDRH     r0,[r6,#0x42]
        0x080016f2:    f8a400a2    ....    STRH     r0,[r4,#0xa2]
        0x080016f6:    89f0        ..      LDRH     r0,[r6,#0xe]
        0x080016f8:    f8a40048    ..H.    STRH     r0,[r4,#0x48]
        0x080016fc:    8a70        p.      LDRH     r0,[r6,#0x12]
        0x080016fe:    f8a4004a    ..J.    STRH     r0,[r4,#0x4a]
        0x08001702:    8a30        0.      LDRH     r0,[r6,#0x10]
        0x08001704:    f8a4004c    ..L.    STRH     r0,[r4,#0x4c]
        0x08001708:    8ab0        ..      LDRH     r0,[r6,#0x14]
        0x0800170a:    f8a4004e    ..N.    STRH     r0,[r4,#0x4e]
        0x0800170e:    8af0        ..      LDRH     r0,[r6,#0x16]
        0x08001710:    f8a40052    ..R.    STRH     r0,[r4,#0x52]
        0x08001714:    8b30        0.      LDRH     r0,[r6,#0x18]
        0x08001716:    f8240f50    $.P.    STRH     r0,[r4,#0x50]!
        0x0800171a:    80a5        ..      STRH     r5,[r4,#4]
        0x0800171c:    60a5        .`      STR      r5,[r4,#8]
        0x0800171e:    f8a45040    ..@P    STRH     r5,[r4,#0x40]
        0x08001722:    64a5        .d      STR      r5,[r4,#0x48]
        0x08001724:    8f30        0.      LDRH     r0,[r6,#0x38]
        0x08001726:    f8a40042    ..B.    STRH     r0,[r4,#0x42]
        0x0800172a:    8f70        p.      LDRH     r0,[r6,#0x3a]
        0x0800172c:    f8a40044    ..D.    STRH     r0,[r4,#0x44]
        0x08001730:    86a5        ..      STRH     r5,[r4,#0x34]
        0x08001732:    86e5        ..      STRH     r5,[r4,#0x36]
        0x08001734:    8ff0        ..      LDRH     r0,[r6,#0x3e]
        0x08001736:    8720         .      STRH     r0,[r4,#0x38]
        0x08001738:    8ff0        ..      LDRH     r0,[r6,#0x3e]
        0x0800173a:    4240        @B      RSBS     r0,r0,#0
        0x0800173c:    8760        `.      STRH     r0,[r4,#0x3a]
        0x0800173e:    8c30        0.      LDRH     r0,[r6,#0x20]
        0x08001740:    85a0        ..      STRH     r0,[r4,#0x2c]
        0x08001742:    6325        %c      STR      r5,[r4,#0x30]
        0x08001744:    83a5        ..      STRH     r5,[r4,#0x1c]
        0x08001746:    8db0        ..      LDRH     r0,[r6,#0x2c]
        0x08001748:    f8a40068    ..h.    STRH     r0,[r4,#0x68]
        0x0800174c:    8df0        ..      LDRH     r0,[r6,#0x2e]
        0x0800174e:    f8240f6a    $.j.    STRH     r0,[r4,#0x6a]!
        0x08001752:    8e30        0.      LDRH     r0,[r6,#0x30]
        0x08001754:    8120         .      STRH     r0,[r4,#8]
        0x08001756:    f64770ff    G..p    MOV      r0,#0x7fff
        0x0800175a:    f8240f04    $...    STRH     r0,[r4,#4]!
        0x0800175e:    43c1        .C      MVNS     r1,r0
        0x08001760:    8061        a.      STRH     r1,[r4,#2]
        0x08001762:    f8c45006    ...P    STR      r5,[r4,#6]
        0x08001766:    f8245c02    $..\    STRH     r5,[r4,#-2]
        0x0800176a:    8db2        ..      LDRH     r2,[r6,#0x2c]
        0x0800176c:    8162        b.      STRH     r2,[r4,#0xa]
        0x0800176e:    8df2        ..      LDRH     r2,[r6,#0x2e]
        0x08001770:    f8242f0c    $../    STRH     r2,[r4,#0xc]!
        0x08001774:    8e32        2.      LDRH     r2,[r6,#0x30]
        0x08001776:    8122        ".      STRH     r2,[r4,#8]
        0x08001778:    80a0        ..      STRH     r0,[r4,#4]
        0x0800177a:    80e1        ..      STRH     r1,[r4,#6]
        0x0800177c:    f8c4500a    ...P    STR      r5,[r4,#0xa]
        0x08001780:    f8245f02    $.._    STRH     r5,[r4,#2]!
        0x08001784:    8cb2        ..      LDRH     r2,[r6,#0x24]
        0x08001786:    8362        b.      STRH     r2,[r4,#0x1a]
        0x08001788:    8cf2        ..      LDRH     r2,[r6,#0x26]
        0x0800178a:    83a2        ..      STRH     r2,[r4,#0x1c]
        0x0800178c:    8d32        2.      LDRH     r2,[r6,#0x28]
        0x0800178e:    83e2        ..      STRH     r2,[r4,#0x1e]
        0x08001790:    8c72        r.      LDRH     r2,[r6,#0x22]
        0x08001792:    8422        ".      STRH     r2,[r4,#0x20]
        0x08001794:    8d72        r.      LDRH     r2,[r6,#0x2a]
        0x08001796:    8462        b.      STRH     r2,[r4,#0x22]
        0x08001798:    8e72        r.      LDRH     r2,[r6,#0x32]
        0x0800179a:    84a2        ..      STRH     r2,[r4,#0x24]
        0x0800179c:    8eb2        ..      LDRH     r2,[r6,#0x34]
        0x0800179e:    84e2        ..      STRH     r2,[r4,#0x26]
        0x080017a0:    8ef2        ..      LDRH     r2,[r6,#0x36]
        0x080017a2:    85e2        ..      STRH     r2,[r4,#0x2e]
        0x080017a4:    8560        `.      STRH     r0,[r4,#0x2a]
        0x080017a6:    85a1        ..      STRH     r1,[r4,#0x2c]
        0x080017a8:    6325        %c      STR      r5,[r4,#0x30]
        0x080017aa:    8525        %.      STRH     r5,[r4,#0x28]
        0x080017ac:    8f30        0.      LDRH     r0,[r6,#0x38]
        0x080017ae:    86e0        ..      STRH     r0,[r4,#0x36]
        0x080017b0:    8f70        p.      LDRH     r0,[r6,#0x3a]
        0x080017b2:    8720         .      STRH     r0,[r4,#0x38]
        0x080017b4:    8c30        0.      LDRH     r0,[r6,#0x20]
        0x080017b6:    f8a40048    ..H.    STRH     r0,[r4,#0x48]
        0x080017ba:    481a        .H      LDR      r0,[pc,#104] ; [0x8001824] = 0x200000cc
        0x080017bc:    64e5        .d      STR      r5,[r4,#0x4c]
        0x080017be:    30d4        .0      ADDS     r0,r0,#0xd4
        0x080017c0:    f7fefd02    ....    BL       AMC_InitObsrv_F16 ; 0x80001c8
        0x080017c4:    8af0        ..      LDRH     r0,[r6,#0x16]
        0x080017c6:    f8240c26    $.&.    STRH     r0,[r4,#-0x26]
        0x080017ca:    8b30        0.      LDRH     r0,[r6,#0x18]
        0x080017cc:    f8240c24    $.$.    STRH     r0,[r4,#-0x24]
        0x080017d0:    f8a45064    ..dP    STRH     r5,[r4,#0x64]
        0x080017d4:    f64660d9    F..`    MOV      r0,#0x6ed9
        0x080017d8:    f8a40066    ..f.    STRH     r0,[r4,#0x66]
        0x080017dc:    f8a45068    ..hP    STRH     r5,[r4,#0x68]
        0x080017e0:    f884506c    ..lP    STRB     r5,[r4,#0x6c]
        0x080017e4:    f8a4506a    ..jP    STRH     r5,[r4,#0x6a]
        0x080017e8:    f8360c06    6...    LDRH     r0,[r6,#-6]
        0x080017ec:    f8a40078    ..x.    STRH     r0,[r4,#0x78]
        0x080017f0:    2006        .       MOVS     r0,#6
        0x080017f2:    67e5        .g      STR      r5,[r4,#0x7c]
        0x080017f4:    f8a40088    ....    STRH     r0,[r4,#0x88]
        0x080017f8:    2001        .       MOVS     r0,#1
        0x080017fa:    f8c4508c    ...P    STR      r5,[r4,#0x8c]
        0x080017fe:    f8240cd0    $...    STRH     r0,[r4,#-0xd0]
        0x08001802:    4c0a        .L      LDR      r4,[pc,#40] ; [0x800182c] = 0x20000010
        0x08001804:    2060        `       MOVS     r0,#0x60
        0x08001806:    80a0        ..      STRH     r0,[r4,#4]
        0x08001808:    4809        .H      LDR      r0,[pc,#36] ; [0x8001830] = 0x20000330
        0x0800180a:    f000f813    ....    BL       InitMotorParameter ; 0x8001834
        0x0800180e:    f9b6003c    ..<.    LDRSH    r0,[r6,#0x3c]
        0x08001812:    60e0        .`      STR      r0,[r4,#0xc]
        0x08001814:    f9b6001a    ....    LDRSH    r0,[r6,#0x1a]
        0x08001818:    6120         a      STR      r0,[r4,#0x10]
        0x0800181a:    f9b6001c    ....    LDRSH    r0,[r6,#0x1c]
        0x0800181e:    6160        `a      STR      r0,[r4,#0x14]
        0x08001820:    bd70        p.      POP      {r4-r6,pc}
    $d
        0x08001822:    0000        ..      DCW    0
        0x08001824:    200000cc    ...     DCD    536871116
        0x08001828:    08002f34    4/..    DCD    134229812
        0x0800182c:    20000010    ...     DCD    536870928
        0x08001830:    20000330    0..     DCD    536871728
    $t
    i.InitMotorParameter
    InitMotorParameter
        0x08001834:    490b        .I      LDR      r1,[pc,#44] ; [0x8001864] = 0x40021000
        0x08001836:    6c09        .l      LDR      r1,[r1,#0x40]
        0x08001838:    4a0b        .J      LDR      r2,[pc,#44] ; [0x8001868] = 0x20000014
        0x0800183a:    1c49        I.      ADDS     r1,r1,#1
        0x0800183c:    f8a01056    ..V.    STRH     r1,[r0,#0x56]
        0x08001840:    8812        ..      LDRH     r2,[r2,#0]
        0x08001842:    1c52        R.      ADDS     r2,r2,#1
        0x08001844:    4411        .D      ADD      r1,r1,r2
        0x08001846:    4a09        .J      LDR      r2,[pc,#36] ; [0x800186c] = 0x40022000
        0x08001848:    f8201f4a     .J.    STRH     r1,[r0,#0x4a]!
        0x0800184c:    6852        Rh      LDR      r2,[r2,#4]
        0x0800184e:    f002023f    ..?.    AND      r2,r2,#0x3f
        0x08001852:    1c52        R.      ADDS     r2,r2,#1
        0x08001854:    8042        B.      STRH     r2,[r0,#2]
        0x08001856:    1a8a        ..      SUBS     r2,r1,r2
        0x08001858:    8082        ..      STRH     r2,[r0,#4]
        0x0800185a:    2302        .#      MOVS     r3,#2
        0x0800185c:    80c3        ..      STRH     r3,[r0,#6]
        0x0800185e:    8101        ..      STRH     r1,[r0,#8]
        0x08001860:    8142        B.      STRH     r2,[r0,#0xa]
        0x08001862:    4770        pG      BX       lr
    $d
        0x08001864:    40021000    ...@    DCD    1073876992
        0x08001868:    20000014    ...     DCD    536870932
        0x0800186c:    40022000    . .@    DCD    1073881088
    $t
    i.LINPORT_IRQHandler
    LINPORT_IRQHandler
        0x08001870:    b570        p.      PUSH     {r4-r6,lr}
        0x08001872:    4c1b        .L      LDR      r4,[pc,#108] ; [0x80018e0] = 0x40002000
        0x08001874:    68a0        .h      LDR      r0,[r4,#8]
        0x08001876:    0780        ..      LSLS     r0,r0,#30
        0x08001878:    d508        ..      BPL      0x800188c ; LINPORT_IRQHandler + 28
        0x0800187a:    68a0        .h      LDR      r0,[r4,#8]
        0x0800187c:    07c0        ..      LSLS     r0,r0,#31
        0x0800187e:    d105        ..      BNE      0x800188c ; LINPORT_IRQHandler + 28
        0x08001880:    2002        .       MOVS     r0,#2
        0x08001882:    60a0        .`      STR      r0,[r4,#8]
        0x08001884:    f7fefea0    ....    BL       BSM_Reset ; 0x80005c8
        0x08001888:    f000fe6c    ..l.    BL       ResetProtocolState ; 0x8002564
        0x0800188c:    68a0        .h      LDR      r0,[r4,#8]
        0x0800188e:    f04f0510    O...    MOV      r5,#0x10
        0x08001892:    07c0        ..      LSLS     r0,r0,#31
        0x08001894:    d017        ..      BEQ      0x80018c6 ; LINPORT_IRQHandler + 86
        0x08001896:    2003        .       MOVS     r0,#3
        0x08001898:    60a0        .`      STR      r0,[r4,#8]
        0x0800189a:    4912        .I      LDR      r1,[pc,#72] ; [0x80018e4] = 0x20000064
        0x0800189c:    7948        Hy      LDRB     r0,[r1,#5]
        0x0800189e:    b990        ..      CBNZ     r0,0x80018c6 ; LINPORT_IRQHandler + 86
        0x080018a0:    60a5        .`      STR      r5,[r4,#8]
        0x080018a2:    6065        e`      STR      r5,[r4,#4]
        0x080018a4:    2201        ."      MOVS     r2,#1
        0x080018a6:    6022        "`      STR      r2,[r4,#0]
        0x080018a8:    f101030a    ....    ADD      r3,r1,#0xa
        0x080018ac:    2000        .       MOVS     r0,#0
        0x080018ae:    8018        ..      STRH     r0,[r3,#0]
        0x080018b0:    1c9b        ..      ADDS     r3,r3,#2
        0x080018b2:    8018        ..      STRH     r0,[r3,#0]
        0x080018b4:    1c9b        ..      ADDS     r3,r3,#2
        0x080018b6:    8018        ..      STRH     r0,[r3,#0]
        0x080018b8:    7908        .y      LDRB     r0,[r1,#4]
        0x080018ba:    b120         .      CBZ      r0,0x80018c6 ; LINPORT_IRQHandler + 86
        0x080018bc:    2804        .(      CMP      r0,#4
        0x080018be:    d202        ..      BCS      0x80018c6 ; LINPORT_IRQHandler + 86
        0x080018c0:    710a        .q      STRB     r2,[r1,#4]
        0x080018c2:    f7fefe31    ..1.    BL       BSM_InitShuntMeasurement ; 0x8000528
        0x080018c6:    68a0        .h      LDR      r0,[r4,#8]
        0x080018c8:    06c0        ..      LSLS     r0,r0,#27
        0x080018ca:    d508        ..      BPL      0x80018de ; LINPORT_IRQHandler + 110
        0x080018cc:    60a5        .`      STR      r5,[r4,#8]
        0x080018ce:    4a05        .J      LDR      r2,[pc,#20] ; [0x80018e4] = 0x20000064
        0x080018d0:    e8bd4070    ..p@    POP      {r4-r6,lr}
        0x080018d4:    320e        .2      ADDS     r2,r2,#0xe
        0x080018d6:    1e91        ..      SUBS     r1,r2,#2
        0x080018d8:    1e88        ..      SUBS     r0,r1,#2
        0x080018da:    f7febda1    ....    B        BSM_BitEndCallback ; 0x8000420
        0x080018de:    bd70        p.      POP      {r4-r6,pc}
    $d
        0x080018e0:    40002000    . .@    DCD    1073750016
        0x080018e4:    20000064    d..     DCD    536871012
    $t
    i.LINUART_IRQHandler
    LINUART_IRQHandler
        0x080018e8:    b570        p.      PUSH     {r4-r6,lr}
        0x080018ea:    4c1f        .L      LDR      r4,[pc,#124] ; [0x8001968] = 0x40003000
        0x080018ec:    6960        `i      LDR      r0,[r4,#0x14]
        0x080018ee:    4d1f        .M      LDR      r5,[pc,#124] ; [0x800196c] = 0x200000c2
        0x080018f0:    05c0        ..      LSLS     r0,r0,#23
        0x080018f2:    d517        ..      BPL      0x8001924 ; LINUART_IRQHandler + 60
        0x080018f4:    78a8        .x      LDRB     r0,[r5,#2]
        0x080018f6:    2801        .(      CMP      r0,#1
        0x080018f8:    d114        ..      BNE      0x8001924 ; LINUART_IRQHandler + 60
        0x080018fa:    f44f4001    O..@    MOV      r0,#0x8100
        0x080018fe:    6160        `a      STR      r0,[r4,#0x14]
        0x08001900:    6960        `i      LDR      r0,[r4,#0x14]
        0x08001902:    f3c06084    ...`    UBFX     r0,r0,#26,#5
        0x08001906:    2801        .(      CMP      r0,#1
        0x08001908:    d100        ..      BNE      0x800190c ; LINUART_IRQHandler + 36
        0x0800190a:    69a0        .i      LDR      r0,[r4,#0x18]
        0x0800190c:    4e17        .N      LDR      r6,[pc,#92] ; [0x800196c] = 0x200000c2
        0x0800190e:    1fb6        ..      SUBS     r6,r6,#6
        0x08001910:    7830        0x      LDRB     r0,[r6,#0]
        0x08001912:    b910        ..      CBNZ     r0,0x800191a ; LINUART_IRQHandler + 50
        0x08001914:    6960        `i      LDR      r0,[r4,#0x14]
        0x08001916:    0400        ..      LSLS     r0,r0,#16
        0x08001918:    d402        ..      BMI      0x8001920 ; LINUART_IRQHandler + 56
        0x0800191a:    2001        .       MOVS     r0,#1
        0x0800191c:    f000fd76    ..v.    BL       NotifyRxTxStatus ; 0x800240c
        0x08001920:    2001        .       MOVS     r0,#1
        0x08001922:    7030        0p      STRB     r0,[r6,#0]
        0x08001924:    6960        `i      LDR      r0,[r4,#0x14]
        0x08001926:    0640        @.      LSLS     r0,r0,#25
        0x08001928:    d516        ..      BPL      0x8001958 ; LINUART_IRQHandler + 112
        0x0800192a:    2040        @       MOVS     r0,#0x40
        0x0800192c:    6160        `a      STR      r0,[r4,#0x14]
        0x0800192e:    0080        ..      LSLS     r0,r0,#2
        0x08001930:    6160        `a      STR      r0,[r4,#0x14]
        0x08001932:    6960        `i      LDR      r0,[r4,#0x14]
        0x08001934:    6961        ai      LDR      r1,[r4,#0x14]
        0x08001936:    f3c020c0    ...     UBFX     r0,r0,#11,#1
        0x0800193a:    f3c141c0    ...A    UBFX     r1,r1,#19,#1
        0x0800193e:    4308        .C      ORRS     r0,r0,r1
        0x08001940:    d003        ..      BEQ      0x800194a ; LINUART_IRQHandler + 98
        0x08001942:    480b        .H      LDR      r0,[pc,#44] ; [0x8001970] = 0x80800
        0x08001944:    6160        `a      STR      r0,[r4,#0x14]
        0x08001946:    f000fe29    ..).    BL       SetLINResponseError ; 0x800259c
        0x0800194a:    2002        .       MOVS     r0,#2
        0x0800194c:    7028        (p      STRB     r0,[r5,#0]
        0x0800194e:    2100        .!      MOVS     r1,#0
        0x08001950:    70a9        .p      STRB     r1,[r5,#2]
        0x08001952:    7068        hp      STRB     r0,[r5,#1]
        0x08001954:    4807        .H      LDR      r0,[pc,#28] ; [0x8001974] = 0x20040
        0x08001956:    6120         a      STR      r0,[r4,#0x10]
        0x08001958:    6960        `i      LDR      r0,[r4,#0x14]
        0x0800195a:    4d07        .M      LDR      r5,[pc,#28] ; [0x8001978] = 0xe0900
        0x0800195c:    4228        (B      TST      r0,r5
        0x0800195e:    d002        ..      BEQ      0x8001966 ; LINUART_IRQHandler + 126
        0x08001960:    f001fa2c    ..,.    BL       l_ifc_rx_MyLinIfc ; 0x8002dbc
        0x08001964:    6165        ea      STR      r5,[r4,#0x14]
        0x08001966:    bd70        p.      POP      {r4-r6,pc}
    $d
        0x08001968:    40003000    .0.@    DCD    1073754112
        0x0800196c:    200000c2    ...     DCD    536871106
        0x08001970:    00080800    ....    DCD    526336
        0x08001974:    00020040    @...    DCD    131136
        0x08001978:    000e0900    ....    DCD    919808
    $t
    i.LINUART_Init
    LINUART_Init
        0x0800197c:    4825        %H      LDR      r0,[pc,#148] ; [0x8001a14] = 0x40002000
        0x0800197e:    6941        Ai      LDR      r1,[r0,#0x14]
        0x08001980:    f0210140    !.@.    BIC      r1,r1,#0x40
        0x08001984:    6141        Aa      STR      r1,[r0,#0x14]
        0x08001986:    6941        Ai      LDR      r1,[r0,#0x14]
        0x08001988:    f4217140    !.@q    BIC      r1,r1,#0x300
        0x0800198c:    6141        Aa      STR      r1,[r0,#0x14]
        0x0800198e:    6941        Ai      LDR      r1,[r0,#0x14]
        0x08001990:    f4413180    A..1    ORR      r1,r1,#0x10000
        0x08001994:    6141        Aa      STR      r1,[r0,#0x14]
        0x08001996:    6941        Ai      LDR      r1,[r0,#0x14]
        0x08001998:    f4216140    !.@a    BIC      r1,r1,#0xc00
        0x0800199c:    f5016180    ...a    ADD      r1,r1,#0x400
        0x080019a0:    6141        Aa      STR      r1,[r0,#0x14]
        0x080019a2:    6941        Ai      LDR      r1,[r0,#0x14]
        0x080019a4:    f4415100    A..Q    ORR      r1,r1,#0x2000
        0x080019a8:    6141        Aa      STR      r1,[r0,#0x14]
        0x080019aa:    6941        Ai      LDR      r1,[r0,#0x14]
        0x080019ac:    f4414100    A..A    ORR      r1,r1,#0x8000
        0x080019b0:    6141        Aa      STR      r1,[r0,#0x14]
        0x080019b2:    4819        .H      LDR      r0,[pc,#100] ; [0x8001a18] = 0x40003000
        0x080019b4:    2100        .!      MOVS     r1,#0
        0x080019b6:    6001        .`      STR      r1,[r0,#0]
        0x080019b8:    6802        .h      LDR      r2,[r0,#0]
        0x080019ba:    f0420204    B...    ORR      r2,r2,#4
        0x080019be:    6002        .`      STR      r2,[r0,#0]
        0x080019c0:    6802        .h      LDR      r2,[r0,#0]
        0x080019c2:    f0420208    B...    ORR      r2,r2,#8
        0x080019c6:    6002        .`      STR      r2,[r0,#0]
        0x080019c8:    6802        .h      LDR      r2,[r0,#0]
        0x080019ca:    f0424280    B..B    ORR      r2,r2,#0x40000000
        0x080019ce:    6002        .`      STR      r2,[r0,#0]
        0x080019d0:    6802        .h      LDR      r2,[r0,#0]
        0x080019d2:    f0425280    B..R    ORR      r2,r2,#0x10000000
        0x080019d6:    6002        .`      STR      r2,[r0,#0]
        0x080019d8:    6802        .h      LDR      r2,[r0,#0]
        0x080019da:    f4423200    B..2    ORR      r2,r2,#0x20000
        0x080019de:    6002        .`      STR      r2,[r0,#0]
        0x080019e0:    4a0e        .J      LDR      r2,[pc,#56] ; [0x8001a1c] = 0x20040
        0x080019e2:    6102        .a      STR      r2,[r0,#0x10]
        0x080019e4:    f04f23e0    O..#    MOV      r3,#0xe000e000
        0x080019e8:    2208        ."      MOVS     r2,#8
        0x080019ea:    f8c32100    ...!    STR      r2,[r3,#0x100]
        0x080019ee:    1cda        ..      ADDS     r2,r3,#3
        0x080019f0:    f8821400    ....    STRB     r1,[r2,#0x400]
        0x080019f4:    f64f71ff    O..q    MOV      r1,#0xffff
        0x080019f8:    6141        Aa      STR      r1,[r0,#0x14]
        0x080019fa:    6801        .h      LDR      r1,[r0,#0]
        0x080019fc:    f0210101    !...    BIC      r1,r1,#1
        0x08001a00:    6001        .`      STR      r1,[r0,#0]
        0x08001a02:    6801        .h      LDR      r1,[r0,#0]
        0x08001a04:    f4413180    A..1    ORR      r1,r1,#0x10000
        0x08001a08:    6001        .`      STR      r1,[r0,#0]
        0x08001a0a:    6801        .h      LDR      r1,[r0,#0]
        0x08001a0c:    f0415100    A..Q    ORR      r1,r1,#0x20000000
        0x08001a10:    6001        .`      STR      r1,[r0,#0]
        0x08001a12:    4770        pG      BX       lr
    $d
        0x08001a14:    40002000    . .@    DCD    1073750016
        0x08001a18:    40003000    .0.@    DCD    1073754112
        0x08001a1c:    00020040    @...    DCD    131136
    $t
    i.LINUART_TransmitDataByFIFO
    LINUART_TransmitDataByFIFO
        0x08001a20:    b570        p.      PUSH     {r4-r6,lr}
        0x08001a22:    4d15        .M      LDR      r5,[pc,#84] ; [0x8001a78] = 0x40003000
        0x08001a24:    6928        (i      LDR      r0,[r5,#0x10]
        0x08001a26:    4915        .I      LDR      r1,[pc,#84] ; [0x8001a7c] = 0xc0100
        0x08001a28:    4308        .C      ORRS     r0,r0,r1
        0x08001a2a:    6128        (a      STR      r0,[r5,#0x10]
        0x08001a2c:    6828        (h      LDR      r0,[r5,#0]
        0x08001a2e:    f0407070    @.pp    ORR      r0,r0,#0x3c00000
        0x08001a32:    6028        (`      STR      r0,[r5,#0]
        0x08001a34:    4912        .I      LDR      r1,[pc,#72] ; [0x8001a80] = 0x40002000
        0x08001a36:    2004        .       MOVS     r0,#4
        0x08001a38:    6088        .`      STR      r0,[r1,#8]
        0x08001a3a:    4e12        .N      LDR      r6,[pc,#72] ; [0x8001a84] = 0x200000bc
        0x08001a3c:    4c12        .L      LDR      r4,[pc,#72] ; [0x8001a88] = 0x200003a0
        0x08001a3e:    68f0        .h      LDR      r0,[r6,#0xc]
        0x08001a40:    7872        rx      LDRB     r2,[r6,#1]
        0x08001a42:    6841        Ah      LDR      r1,[r0,#4]
        0x08001a44:    1c60        `.      ADDS     r0,r4,#1
        0x08001a46:    f7fefb78    ..x.    BL       __aeabi_memcpy ; 0x800013a
        0x08001a4a:    4620         F      MOV      r0,r4
        0x08001a4c:    f7fefe6a    ..j.    BL       CalculateCheckSum ; 0x8000724
        0x08001a50:    7872        rx      LDRB     r2,[r6,#1]
        0x08001a52:    18a1        ..      ADDS     r1,r4,r2
        0x08001a54:    7048        Hp      STRB     r0,[r1,#1]
        0x08001a56:    b672        r.      CPSID    i
        0x08001a58:    6828        (h      LDR      r0,[r5,#0]
        0x08001a5a:    f4201070     .p.    BIC      r0,r0,#0x3c0000
        0x08001a5e:    6028        (`      STR      r0,[r5,#0]
        0x08001a60:    2101        .!      MOVS     r1,#1
        0x08001a62:    1c52        R.      ADDS     r2,r2,#1
        0x08001a64:    e003        ..      B        0x8001a6e ; LINUART_TransmitDataByFIFO + 78
        0x08001a66:    5c60        `\      LDRB     r0,[r4,r1]
        0x08001a68:    61e8        .a      STR      r0,[r5,#0x1c]
        0x08001a6a:    1c49        I.      ADDS     r1,r1,#1
        0x08001a6c:    b2c9        ..      UXTB     r1,r1
        0x08001a6e:    4291        .B      CMP      r1,r2
        0x08001a70:    d9f9        ..      BLS      0x8001a66 ; LINUART_TransmitDataByFIFO + 70
        0x08001a72:    b662        b.      CPSIE    i
        0x08001a74:    bd70        p.      POP      {r4-r6,pc}
    $d
        0x08001a76:    0000        ..      DCW    0
        0x08001a78:    40003000    .0.@    DCD    1073754112
        0x08001a7c:    000c0100    ....    DCD    786688
        0x08001a80:    40002000    . .@    DCD    1073750016
        0x08001a84:    200000bc    ...     DCD    536871100
        0x08001a88:    200003a0    ...     DCD    536871840
    $t
    i.LIN_AssignFrame
    LIN_AssignFrame
        0x08001a8c:    b510        ..      PUSH     {r4,lr}
        0x08001a8e:    4c20         L      LDR      r4,[pc,#128] ; [0x8001b10] = 0x800313c
        0x08001a90:    6a60        `j      LDR      r0,[r4,#0x24]
        0x08001a92:    7800        .x      LDRB     r0,[r0,#0]
        0x08001a94:    f000fc6a    ..j.    BL       MatchNAD ; 0x800236c
        0x08001a98:    2800        .(      CMP      r0,#0
        0x08001a9a:    d032        2.      BEQ      0x8001b02 ; LIN_AssignFrame + 118
        0x08001a9c:    6a60        `j      LDR      r0,[r4,#0x24]
        0x08001a9e:    7840        @x      LDRB     r0,[r0,#1]
        0x08001aa0:    2806        .(      CMP      r0,#6
        0x08001aa2:    d12e        ..      BNE      0x8001b02 ; LIN_AssignFrame + 118
        0x08001aa4:    6a60        `j      LDR      r0,[r4,#0x24]
        0x08001aa6:    1cc0        ..      ADDS     r0,r0,#3
        0x08001aa8:    f000fc6c    ..l.    BL       MatchSupplierID ; 0x8002384
        0x08001aac:    2800        .(      CMP      r0,#0
        0x08001aae:    d028        (.      BEQ      0x8001b02 ; LIN_AssignFrame + 118
        0x08001ab0:    6a60        `j      LDR      r0,[r4,#0x24]
        0x08001ab2:    6a61        aj      LDR      r1,[r4,#0x24]
        0x08001ab4:    4a17        .J      LDR      r2,[pc,#92] ; [0x8001b14] = 0x8003132
        0x08001ab6:    7940        @y      LDRB     r0,[r0,#5]
        0x08001ab8:    7989        .y      LDRB     r1,[r1,#6]
        0x08001aba:    eb002001    ...     ADD      r0,r0,r1,LSL #8
        0x08001abe:    b281        ..      UXTH     r1,r0
        0x08001ac0:    2000        .       MOVS     r0,#0
        0x08001ac2:    f8323010    2..0    LDRH     r3,[r2,r0,LSL #1]
        0x08001ac6:    428b        .B      CMP      r3,r1
        0x08001ac8:    d11c        ..      BNE      0x8001b04 ; LIN_AssignFrame + 120
        0x08001aca:    6a61        aj      LDR      r1,[r4,#0x24]
        0x08001acc:    4a12        .J      LDR      r2,[pc,#72] ; [0x8001b18] = 0x2000004c
        0x08001ace:    79c9        .y      LDRB     r1,[r1,#7]
        0x08001ad0:    5411        .T      STRB     r1,[r2,r0]
        0x08001ad2:    4912        .I      LDR      r1,[pc,#72] ; [0x8001b1c] = 0x20000064
        0x08001ad4:    6ae2        .j      LDR      r2,[r4,#0x2c]
        0x08001ad6:    7848        Hx      LDRB     r0,[r1,#1]
        0x08001ad8:    7010        .p      STRB     r0,[r2,#0]
        0x08001ada:    6ae0        .j      LDR      r0,[r4,#0x2c]
        0x08001adc:    2201        ."      MOVS     r2,#1
        0x08001ade:    7042        Bp      STRB     r2,[r0,#1]
        0x08001ae0:    6ae3        .j      LDR      r3,[r4,#0x2c]
        0x08001ae2:    20f1        .       MOVS     r0,#0xf1
        0x08001ae4:    7098        .p      STRB     r0,[r3,#2]
        0x08001ae6:    6ae3        .j      LDR      r3,[r4,#0x2c]
        0x08001ae8:    20ff        .       MOVS     r0,#0xff
        0x08001aea:    70d8        .p      STRB     r0,[r3,#3]
        0x08001aec:    6ae3        .j      LDR      r3,[r4,#0x2c]
        0x08001aee:    7118        .q      STRB     r0,[r3,#4]
        0x08001af0:    6ae3        .j      LDR      r3,[r4,#0x2c]
        0x08001af2:    7158        Xq      STRB     r0,[r3,#5]
        0x08001af4:    6ae3        .j      LDR      r3,[r4,#0x2c]
        0x08001af6:    7198        .q      STRB     r0,[r3,#6]
        0x08001af8:    6ae3        .j      LDR      r3,[r4,#0x2c]
        0x08001afa:    71d8        .q      STRB     r0,[r3,#7]
        0x08001afc:    700a        .p      STRB     r2,[r1,#0]
        0x08001afe:    2064        d       MOVS     r0,#0x64
        0x08001b00:    8108        ..      STRH     r0,[r1,#8]
        0x08001b02:    bd10        ..      POP      {r4,pc}
        0x08001b04:    1c40        @.      ADDS     r0,r0,#1
        0x08001b06:    b2c0        ..      UXTB     r0,r0
        0x08001b08:    2804        .(      CMP      r0,#4
        0x08001b0a:    d3da        ..      BCC      0x8001ac2 ; LIN_AssignFrame + 54
        0x08001b0c:    bd10        ..      POP      {r4,pc}
    $d
        0x08001b0e:    0000        ..      DCW    0
        0x08001b10:    0800313c    <1..    DCD    134230332
        0x08001b14:    08003132    21..    DCD    134230322
        0x08001b18:    2000004c    L..     DCD    536870988
        0x08001b1c:    20000064    d..     DCD    536871012
    $t
    i.LIN_AssignNAD
    LIN_AssignNAD
        0x08001b20:    b510        ..      PUSH     {r4,lr}
        0x08001b22:    4c19        .L      LDR      r4,[pc,#100] ; [0x8001b88] = 0x800313c
        0x08001b24:    6a60        `j      LDR      r0,[r4,#0x24]
        0x08001b26:    7800        .x      LDRB     r0,[r0,#0]
        0x08001b28:    2801        .(      CMP      r0,#1
        0x08001b2a:    d001        ..      BEQ      0x8001b30 ; LIN_AssignNAD + 16
        0x08001b2c:    287f        .(      CMP      r0,#0x7f
        0x08001b2e:    d129        ).      BNE      0x8001b84 ; LIN_AssignNAD + 100
        0x08001b30:    6a60        `j      LDR      r0,[r4,#0x24]
        0x08001b32:    7840        @x      LDRB     r0,[r0,#1]
        0x08001b34:    2806        .(      CMP      r0,#6
        0x08001b36:    d125        %.      BNE      0x8001b84 ; LIN_AssignNAD + 100
        0x08001b38:    6a60        `j      LDR      r0,[r4,#0x24]
        0x08001b3a:    1cc0        ..      ADDS     r0,r0,#3
        0x08001b3c:    f000fc22    ..".    BL       MatchSupplierID ; 0x8002384
        0x08001b40:    2800        .(      CMP      r0,#0
        0x08001b42:    d01f        ..      BEQ      0x8001b84 ; LIN_AssignNAD + 100
        0x08001b44:    6a60        `j      LDR      r0,[r4,#0x24]
        0x08001b46:    1d40        @.      ADDS     r0,r0,#5
        0x08001b48:    f000fbfa    ....    BL       MatchFunctionID ; 0x8002340
        0x08001b4c:    2800        .(      CMP      r0,#0
        0x08001b4e:    d019        ..      BEQ      0x8001b84 ; LIN_AssignNAD + 100
        0x08001b50:    6a60        `j      LDR      r0,[r4,#0x24]
        0x08001b52:    490e        .I      LDR      r1,[pc,#56] ; [0x8001b8c] = 0x20000064
        0x08001b54:    2201        ."      MOVS     r2,#1
        0x08001b56:    79c0        .y      LDRB     r0,[r0,#7]
        0x08001b58:    7048        Hp      STRB     r0,[r1,#1]
        0x08001b5a:    6ae0        .j      LDR      r0,[r4,#0x2c]
        0x08001b5c:    7002        .p      STRB     r2,[r0,#0]
        0x08001b5e:    6ae0        .j      LDR      r0,[r4,#0x2c]
        0x08001b60:    7042        Bp      STRB     r2,[r0,#1]
        0x08001b62:    6ae3        .j      LDR      r3,[r4,#0x2c]
        0x08001b64:    20f0        .       MOVS     r0,#0xf0
        0x08001b66:    7098        .p      STRB     r0,[r3,#2]
        0x08001b68:    6ae3        .j      LDR      r3,[r4,#0x2c]
        0x08001b6a:    20ff        .       MOVS     r0,#0xff
        0x08001b6c:    70d8        .p      STRB     r0,[r3,#3]
        0x08001b6e:    6ae3        .j      LDR      r3,[r4,#0x2c]
        0x08001b70:    7118        .q      STRB     r0,[r3,#4]
        0x08001b72:    6ae3        .j      LDR      r3,[r4,#0x2c]
        0x08001b74:    7158        Xq      STRB     r0,[r3,#5]
        0x08001b76:    6ae3        .j      LDR      r3,[r4,#0x2c]
        0x08001b78:    7198        .q      STRB     r0,[r3,#6]
        0x08001b7a:    6ae3        .j      LDR      r3,[r4,#0x2c]
        0x08001b7c:    71d8        .q      STRB     r0,[r3,#7]
        0x08001b7e:    700a        .p      STRB     r2,[r1,#0]
        0x08001b80:    2064        d       MOVS     r0,#0x64
        0x08001b82:    8108        ..      STRH     r0,[r1,#8]
        0x08001b84:    bd10        ..      POP      {r4,pc}
    $d
        0x08001b86:    0000        ..      DCW    0
        0x08001b88:    0800313c    <1..    DCD    134230332
        0x08001b8c:    20000064    d..     DCD    536871012
    $t
    i.LIN_ClearResponseFlagForDiagnosisFrame
    LIN_ClearResponseFlagForDiagnosisFrame
        0x08001b90:    4901        .I      LDR      r1,[pc,#4] ; [0x8001b98] = 0x20000064
        0x08001b92:    2000        .       MOVS     r0,#0
        0x08001b94:    7008        .p      STRB     r0,[r1,#0]
        0x08001b96:    4770        pG      BX       lr
    $d
        0x08001b98:    20000064    d..     DCD    536871012
    $t
    i.LIN_ConditionalChangeNAD
    LIN_ConditionalChangeNAD
        0x08001b9c:    b570        p.      PUSH     {r4-r6,lr}
        0x08001b9e:    4d28        (M      LDR      r5,[pc,#160] ; [0x8001c40] = 0x800313c
        0x08001ba0:    6a68        hj      LDR      r0,[r5,#0x24]
        0x08001ba2:    7800        .x      LDRB     r0,[r0,#0]
        0x08001ba4:    f000fbe2    ....    BL       MatchNAD ; 0x800236c
        0x08001ba8:    2800        .(      CMP      r0,#0
        0x08001baa:    d034        4.      BEQ      0x8001c16 ; LIN_ConditionalChangeNAD + 122
        0x08001bac:    6a68        hj      LDR      r0,[r5,#0x24]
        0x08001bae:    7840        @x      LDRB     r0,[r0,#1]
        0x08001bb0:    2806        .(      CMP      r0,#6
        0x08001bb2:    d130        0.      BNE      0x8001c16 ; LIN_ConditionalChangeNAD + 122
        0x08001bb4:    6a68        hj      LDR      r0,[r5,#0x24]
        0x08001bb6:    6a69        ij      LDR      r1,[r5,#0x24]
        0x08001bb8:    7900        .y      LDRB     r0,[r0,#4]
        0x08001bba:    1e40        @.      SUBS     r0,r0,#1
        0x08001bbc:    b2c0        ..      UXTB     r0,r0
        0x08001bbe:    7108        .q      STRB     r0,[r1,#4]
        0x08001bc0:    6a69        ij      LDR      r1,[r5,#0x24]
        0x08001bc2:    78c9        .x      LDRB     r1,[r1,#3]
        0x08001bc4:    b341        A.      CBZ      r1,0x8001c18 ; LIN_ConditionalChangeNAD + 124
        0x08001bc6:    2901        .)      CMP      r1,#1
        0x08001bc8:    d125        %.      BNE      0x8001c16 ; LIN_ConditionalChangeNAD + 122
        0x08001bca:    2803        .(      CMP      r0,#3
        0x08001bcc:    d823        #.      BHI      0x8001c16 ; LIN_ConditionalChangeNAD + 122
        0x08001bce:    491d        .I      LDR      r1,[pc,#116] ; [0x8001c44] = 0x8003128
        0x08001bd0:    5c0c        .\      LDRB     r4,[r1,r0]
        0x08001bd2:    6a68        hj      LDR      r0,[r5,#0x24]
        0x08001bd4:    6a69        ij      LDR      r1,[r5,#0x24]
        0x08001bd6:    7980        .y      LDRB     r0,[r0,#6]
        0x08001bd8:    7949        Iy      LDRB     r1,[r1,#5]
        0x08001bda:    4060        `@      EORS     r0,r0,r4
        0x08001bdc:    4208        .B      TST      r0,r1
        0x08001bde:    d11a        ..      BNE      0x8001c16 ; LIN_ConditionalChangeNAD + 122
        0x08001be0:    4919        .I      LDR      r1,[pc,#100] ; [0x8001c48] = 0x20000064
        0x08001be2:    6aea        .j      LDR      r2,[r5,#0x2c]
        0x08001be4:    7848        Hx      LDRB     r0,[r1,#1]
        0x08001be6:    7010        .p      STRB     r0,[r2,#0]
        0x08001be8:    6ae8        .j      LDR      r0,[r5,#0x2c]
        0x08001bea:    2201        ."      MOVS     r2,#1
        0x08001bec:    7042        Bp      STRB     r2,[r0,#1]
        0x08001bee:    6aeb        .j      LDR      r3,[r5,#0x2c]
        0x08001bf0:    20f3        .       MOVS     r0,#0xf3
        0x08001bf2:    7098        .p      STRB     r0,[r3,#2]
        0x08001bf4:    6aeb        .j      LDR      r3,[r5,#0x2c]
        0x08001bf6:    20ff        .       MOVS     r0,#0xff
        0x08001bf8:    70d8        .p      STRB     r0,[r3,#3]
        0x08001bfa:    6aeb        .j      LDR      r3,[r5,#0x2c]
        0x08001bfc:    7118        .q      STRB     r0,[r3,#4]
        0x08001bfe:    6aeb        .j      LDR      r3,[r5,#0x2c]
        0x08001c00:    7158        Xq      STRB     r0,[r3,#5]
        0x08001c02:    6aeb        .j      LDR      r3,[r5,#0x2c]
        0x08001c04:    7198        .q      STRB     r0,[r3,#6]
        0x08001c06:    6aeb        .j      LDR      r3,[r5,#0x2c]
        0x08001c08:    71d8        .q      STRB     r0,[r3,#7]
        0x08001c0a:    6a68        hj      LDR      r0,[r5,#0x24]
        0x08001c0c:    79c0        .y      LDRB     r0,[r0,#7]
        0x08001c0e:    7048        Hp      STRB     r0,[r1,#1]
        0x08001c10:    700a        .p      STRB     r2,[r1,#0]
        0x08001c12:    2064        d       MOVS     r0,#0x64
        0x08001c14:    8108        ..      STRH     r0,[r1,#8]
        0x08001c16:    bd70        p.      POP      {r4-r6,pc}
        0x08001c18:    2804        .(      CMP      r0,#4
        0x08001c1a:    d8fc        ..      BHI      0x8001c16 ; LIN_ConditionalChangeNAD + 122
        0x08001c1c:    2805        .(      CMP      r0,#5
        0x08001c1e:    d2d8        ..      BCS      0x8001bd2 ; LIN_ConditionalChangeNAD + 54
        0x08001c20:    e8dff000    ....    TBB      [pc,r0]
    $d
        0x08001c24:    09070503    ....    DCD    151454979
        0x08001c28:    000b        ..      DCW    11
    $t
        0x08001c2a:    2441        A$      MOVS     r4,#0x41
        0x08001c2c:    e7d1        ..      B        0x8001bd2 ; LIN_ConditionalChangeNAD + 54
        0x08001c2e:    2400        .$      MOVS     r4,#0
        0x08001c30:    e7cf        ..      B        0x8001bd2 ; LIN_ConditionalChangeNAD + 54
        0x08001c32:    2434        4$      MOVS     r4,#0x34
        0x08001c34:    e7cd        ..      B        0x8001bd2 ; LIN_ConditionalChangeNAD + 54
        0x08001c36:    2412        .$      MOVS     r4,#0x12
        0x08001c38:    e7cb        ..      B        0x8001bd2 ; LIN_ConditionalChangeNAD + 54
        0x08001c3a:    24ab        .$      MOVS     r4,#0xab
        0x08001c3c:    e7c9        ..      B        0x8001bd2 ; LIN_ConditionalChangeNAD + 54
    $d
        0x08001c3e:    0000        ..      DCW    0
        0x08001c40:    0800313c    <1..    DCD    134230332
        0x08001c44:    08003128    (1..    DCD    134230312
        0x08001c48:    20000064    d..     DCD    536871012
    $t
    i.LIN_DataDump
    LIN_DataDump
        0x08001c4c:    b510        ..      PUSH     {r4,lr}
        0x08001c4e:    4c17        .L      LDR      r4,[pc,#92] ; [0x8001cac] = 0x800313c
        0x08001c50:    6a60        `j      LDR      r0,[r4,#0x24]
        0x08001c52:    7800        .x      LDRB     r0,[r0,#0]
        0x08001c54:    f000fb8a    ....    BL       MatchNAD ; 0x800236c
        0x08001c58:    2800        .(      CMP      r0,#0
        0x08001c5a:    d025        %.      BEQ      0x8001ca8 ; LIN_DataDump + 92
        0x08001c5c:    6a60        `j      LDR      r0,[r4,#0x24]
        0x08001c5e:    7840        @x      LDRB     r0,[r0,#1]
        0x08001c60:    2806        .(      CMP      r0,#6
        0x08001c62:    d121        !.      BNE      0x8001ca8 ; LIN_DataDump + 92
        0x08001c64:    6a60        `j      LDR      r0,[r4,#0x24]
        0x08001c66:    78c0        .x      LDRB     r0,[r0,#3]
        0x08001c68:    285a        Z(      CMP      r0,#0x5a
        0x08001c6a:    d11d        ..      BNE      0x8001ca8 ; LIN_DataDump + 92
        0x08001c6c:    6a60        `j      LDR      r0,[r4,#0x24]
        0x08001c6e:    7900        .y      LDRB     r0,[r0,#4]
        0x08001c70:    285a        Z(      CMP      r0,#0x5a
        0x08001c72:    d119        ..      BNE      0x8001ca8 ; LIN_DataDump + 92
        0x08001c74:    6a60        `j      LDR      r0,[r4,#0x24]
        0x08001c76:    7940        @y      LDRB     r0,[r0,#5]
        0x08001c78:    285a        Z(      CMP      r0,#0x5a
        0x08001c7a:    d115        ..      BNE      0x8001ca8 ; LIN_DataDump + 92
        0x08001c7c:    6a60        `j      LDR      r0,[r4,#0x24]
        0x08001c7e:    7980        .y      LDRB     r0,[r0,#6]
        0x08001c80:    285a        Z(      CMP      r0,#0x5a
        0x08001c82:    d111        ..      BNE      0x8001ca8 ; LIN_DataDump + 92
        0x08001c84:    6a60        `j      LDR      r0,[r4,#0x24]
        0x08001c86:    79c0        .y      LDRB     r0,[r0,#7]
        0x08001c88:    285a        Z(      CMP      r0,#0x5a
        0x08001c8a:    d10d        ..      BNE      0x8001ca8 ; LIN_DataDump + 92
        0x08001c8c:    f000fd02    ....    BL       SetRequestEnterBootloader ; 0x8002694
        0x08001c90:    f3bf8f4f    ..O.    DSB      
        0x08001c94:    4806        .H      LDR      r0,[pc,#24] ; [0x8001cb0] = 0xe000ed0c
        0x08001c96:    6801        .h      LDR      r1,[r0,#0]
        0x08001c98:    4a06        .J      LDR      r2,[pc,#24] ; [0x8001cb4] = 0x5fa0004
        0x08001c9a:    f40161e0    ...a    AND      r1,r1,#0x700
        0x08001c9e:    4311        .C      ORRS     r1,r1,r2
        0x08001ca0:    6001        .`      STR      r1,[r0,#0]
        0x08001ca2:    f3bf8f4f    ..O.    DSB      
        0x08001ca6:    e7fe        ..      B        0x8001ca6 ; LIN_DataDump + 90
        0x08001ca8:    bd10        ..      POP      {r4,pc}
    $d
        0x08001caa:    0000        ..      DCW    0
        0x08001cac:    0800313c    <1..    DCD    134230332
        0x08001cb0:    e000ed0c    ....    DCD    3758157068
        0x08001cb4:    05fa0004    ....    DCD    100270084
    $t
    i.LIN_GetResponseFlagForDiagnosisFrame
    LIN_GetResponseFlagForDiagnosisFrame
        0x08001cb8:    4801        .H      LDR      r0,[pc,#4] ; [0x8001cc0] = 0x20000064
        0x08001cba:    7800        .x      LDRB     r0,[r0,#0]
        0x08001cbc:    4770        pG      BX       lr
    $d
        0x08001cbe:    0000        ..      DCW    0
        0x08001cc0:    20000064    d..     DCD    536871012
    $t
    i.LIN_NodeConfigAndIndentifByDiagnosticFrame
    LIN_NodeConfigAndIndentifByDiagnosticFrame
        0x08001cc4:    b570        p.      PUSH     {r4-r6,lr}
        0x08001cc6:    490a        .I      LDR      r1,[pc,#40] ; [0x8001cf0] = 0x20000064
        0x08001cc8:    2000        .       MOVS     r0,#0
        0x08001cca:    4e0a        .N      LDR      r6,[pc,#40] ; [0x8001cf4] = 0x800313c
        0x08001ccc:    4d0a        .M      LDR      r5,[pc,#40] ; [0x8001cf8] = 0x800316c
        0x08001cce:    7008        .p      STRB     r0,[r1,#0]
        0x08001cd0:    4604        .F      MOV      r4,r0
        0x08001cd2:    6a70        pj      LDR      r0,[r6,#0x24]
        0x08001cd4:    f8151034    ..4.    LDRB     r1,[r5,r4,LSL #3]
        0x08001cd8:    7880        .x      LDRB     r0,[r0,#2]
        0x08001cda:    4288        .B      CMP      r0,r1
        0x08001cdc:    d103        ..      BNE      0x8001ce6 ; LIN_NodeConfigAndIndentifByDiagnosticFrame + 34
        0x08001cde:    eb0500c4    ....    ADD      r0,r5,r4,LSL #3
        0x08001ce2:    6840        @h      LDR      r0,[r0,#4]
        0x08001ce4:    4780        .G      BLX      r0
        0x08001ce6:    1c64        d.      ADDS     r4,r4,#1
        0x08001ce8:    b2a4        ..      UXTH     r4,r4
        0x08001cea:    2c06        .,      CMP      r4,#6
        0x08001cec:    d3f1        ..      BCC      0x8001cd2 ; LIN_NodeConfigAndIndentifByDiagnosticFrame + 14
        0x08001cee:    bd70        p.      POP      {r4-r6,pc}
    $d
        0x08001cf0:    20000064    d..     DCD    536871012
        0x08001cf4:    0800313c    <1..    DCD    134230332
        0x08001cf8:    0800316c    l1..    DCD    134230380
    $t
    i.LIN_ReadByIdentifier
    LIN_ReadByIdentifier
        0x08001cfc:    e92d41f0    -..A    PUSH     {r4-r8,lr}
        0x08001d00:    4c40        @L      LDR      r4,[pc,#256] ; [0x8001e04] = 0x800313c
        0x08001d02:    6a60        `j      LDR      r0,[r4,#0x24]
        0x08001d04:    7800        .x      LDRB     r0,[r0,#0]
        0x08001d06:    f000fb31    ..1.    BL       MatchNAD ; 0x800236c
        0x08001d0a:    2800        .(      CMP      r0,#0
        0x08001d0c:    d078        x.      BEQ      0x8001e00 ; LIN_ReadByIdentifier + 260
        0x08001d0e:    6a60        `j      LDR      r0,[r4,#0x24]
        0x08001d10:    7840        @x      LDRB     r0,[r0,#1]
        0x08001d12:    2806        .(      CMP      r0,#6
        0x08001d14:    d174        t.      BNE      0x8001e00 ; LIN_ReadByIdentifier + 260
        0x08001d16:    6a60        `j      LDR      r0,[r4,#0x24]
        0x08001d18:    1d00        ..      ADDS     r0,r0,#4
        0x08001d1a:    f000fb33    ..3.    BL       MatchSupplierID ; 0x8002384
        0x08001d1e:    2800        .(      CMP      r0,#0
        0x08001d20:    d06e        n.      BEQ      0x8001e00 ; LIN_ReadByIdentifier + 260
        0x08001d22:    6a60        `j      LDR      r0,[r4,#0x24]
        0x08001d24:    1d80        ..      ADDS     r0,r0,#6
        0x08001d26:    f000fb0b    ....    BL       MatchFunctionID ; 0x8002340
        0x08001d2a:    2800        .(      CMP      r0,#0
        0x08001d2c:    d068        h.      BEQ      0x8001e00 ; LIN_ReadByIdentifier + 260
        0x08001d2e:    6a60        `j      LDR      r0,[r4,#0x24]
        0x08001d30:    23f2        .#      MOVS     r3,#0xf2
        0x08001d32:    78c1        .x      LDRB     r1,[r0,#3]
        0x08001d34:    4834        4H      LDR      r0,[pc,#208] ; [0x8001e08] = 0x20000064
        0x08001d36:    b1e1        ..      CBZ      r1,0x8001d72 ; LIN_ReadByIdentifier + 118
        0x08001d38:    2212        ."      MOVS     r2,#0x12
        0x08001d3a:    25ff        .%      MOVS     r5,#0xff
        0x08001d3c:    2901        .)      CMP      r1,#1
        0x08001d3e:    d033        3.      BEQ      0x8001da8 ; LIN_ReadByIdentifier + 172
        0x08001d40:    3910        .9      SUBS     r1,r1,#0x10
        0x08001d42:    2904        .)      CMP      r1,#4
        0x08001d44:    d244        D.      BCS      0x8001dd0 ; LIN_ReadByIdentifier + 212
        0x08001d46:    b28a        ..      UXTH     r2,r1
        0x08001d48:    4930        0I      LDR      r1,[pc,#192] ; [0x8001e0c] = 0x8003132
        0x08001d4a:    6ae7        .j      LDR      r7,[r4,#0x2c]
        0x08001d4c:    7846        Fx      LDRB     r6,[r0,#1]
        0x08001d4e:    f8311012    1...    LDRH     r1,[r1,r2,LSL #1]
        0x08001d52:    703e        >p      STRB     r6,[r7,#0]
        0x08001d54:    6ae7        .j      LDR      r7,[r4,#0x2c]
        0x08001d56:    2604        .&      MOVS     r6,#4
        0x08001d58:    707e        ~p      STRB     r6,[r7,#1]
        0x08001d5a:    6ae6        .j      LDR      r6,[r4,#0x2c]
        0x08001d5c:    70b3        .p      STRB     r3,[r6,#2]
        0x08001d5e:    6ae3        .j      LDR      r3,[r4,#0x2c]
        0x08001d60:    70d9        .p      STRB     r1,[r3,#3]
        0x08001d62:    6ae3        .j      LDR      r3,[r4,#0x2c]
        0x08001d64:    0a09        ..      LSRS     r1,r1,#8
        0x08001d66:    7119        .q      STRB     r1,[r3,#4]
        0x08001d68:    4929        )I      LDR      r1,[pc,#164] ; [0x8001e10] = 0x2000004c
        0x08001d6a:    5c89        .\      LDRB     r1,[r1,r2]
        0x08001d6c:    6ae2        .j      LDR      r2,[r4,#0x2c]
        0x08001d6e:    7151        Qq      STRB     r1,[r2,#5]
        0x08001d70:    e03e        >.      B        0x8001df0 ; LIN_ReadByIdentifier + 244
        0x08001d72:    6ae2        .j      LDR      r2,[r4,#0x2c]
        0x08001d74:    7841        Ax      LDRB     r1,[r0,#1]
        0x08001d76:    7011        .p      STRB     r1,[r2,#0]
        0x08001d78:    6ae2        .j      LDR      r2,[r4,#0x2c]
        0x08001d7a:    2106        .!      MOVS     r1,#6
        0x08001d7c:    7051        Qp      STRB     r1,[r2,#1]
        0x08001d7e:    6ae1        .j      LDR      r1,[r4,#0x2c]
        0x08001d80:    708b        .p      STRB     r3,[r1,#2]
        0x08001d82:    4924        $I      LDR      r1,[pc,#144] ; [0x8001e14] = 0x800312c
        0x08001d84:    6ae3        .j      LDR      r3,[r4,#0x2c]
        0x08001d86:    780a        .x      LDRB     r2,[r1,#0]
        0x08001d88:    70da        .p      STRB     r2,[r3,#3]
        0x08001d8a:    880a        ..      LDRH     r2,[r1,#0]
        0x08001d8c:    6ae3        .j      LDR      r3,[r4,#0x2c]
        0x08001d8e:    0a12        ..      LSRS     r2,r2,#8
        0x08001d90:    711a        .q      STRB     r2,[r3,#4]
        0x08001d92:    6ae3        .j      LDR      r3,[r4,#0x2c]
        0x08001d94:    788a        .x      LDRB     r2,[r1,#2]
        0x08001d96:    715a        Zq      STRB     r2,[r3,#5]
        0x08001d98:    884a        J.      LDRH     r2,[r1,#2]
        0x08001d9a:    6ae3        .j      LDR      r3,[r4,#0x2c]
        0x08001d9c:    0a12        ..      LSRS     r2,r2,#8
        0x08001d9e:    719a        .q      STRB     r2,[r3,#6]
        0x08001da0:    6ae2        .j      LDR      r2,[r4,#0x2c]
        0x08001da2:    7909        .y      LDRB     r1,[r1,#4]
        0x08001da4:    71d1        .q      STRB     r1,[r2,#7]
        0x08001da6:    e027        '.      B        0x8001df8 ; LIN_ReadByIdentifier + 252
        0x08001da8:    6ae6        .j      LDR      r6,[r4,#0x2c]
        0x08001daa:    7841        Ax      LDRB     r1,[r0,#1]
        0x08001dac:    7031        1p      STRB     r1,[r6,#0]
        0x08001dae:    6ae6        .j      LDR      r6,[r4,#0x2c]
        0x08001db0:    2105        .!      MOVS     r1,#5
        0x08001db2:    7071        qp      STRB     r1,[r6,#1]
        0x08001db4:    6ae1        .j      LDR      r1,[r4,#0x2c]
        0x08001db6:    708b        .p      STRB     r3,[r1,#2]
        0x08001db8:    6ae3        .j      LDR      r3,[r4,#0x2c]
        0x08001dba:    2178        x!      MOVS     r1,#0x78
        0x08001dbc:    70d9        .p      STRB     r1,[r3,#3]
        0x08001dbe:    6ae3        .j      LDR      r3,[r4,#0x2c]
        0x08001dc0:    2156        V!      MOVS     r1,#0x56
        0x08001dc2:    7119        .q      STRB     r1,[r3,#4]
        0x08001dc4:    6ae3        .j      LDR      r3,[r4,#0x2c]
        0x08001dc6:    2134        4!      MOVS     r1,#0x34
        0x08001dc8:    7159        Yq      STRB     r1,[r3,#5]
        0x08001dca:    6ae1        .j      LDR      r1,[r4,#0x2c]
        0x08001dcc:    718a        .q      STRB     r2,[r1,#6]
        0x08001dce:    e011        ..      B        0x8001df4 ; LIN_ReadByIdentifier + 248
        0x08001dd0:    6ae3        .j      LDR      r3,[r4,#0x2c]
        0x08001dd2:    7841        Ax      LDRB     r1,[r0,#1]
        0x08001dd4:    7019        .p      STRB     r1,[r3,#0]
        0x08001dd6:    6ae3        .j      LDR      r3,[r4,#0x2c]
        0x08001dd8:    2103        .!      MOVS     r1,#3
        0x08001dda:    7059        Yp      STRB     r1,[r3,#1]
        0x08001ddc:    6ae3        .j      LDR      r3,[r4,#0x2c]
        0x08001dde:    217f        .!      MOVS     r1,#0x7f
        0x08001de0:    7099        .p      STRB     r1,[r3,#2]
        0x08001de2:    6ae3        .j      LDR      r3,[r4,#0x2c]
        0x08001de4:    21b2        .!      MOVS     r1,#0xb2
        0x08001de6:    70d9        .p      STRB     r1,[r3,#3]
        0x08001de8:    6ae1        .j      LDR      r1,[r4,#0x2c]
        0x08001dea:    710a        .q      STRB     r2,[r1,#4]
        0x08001dec:    6ae1        .j      LDR      r1,[r4,#0x2c]
        0x08001dee:    714d        Mq      STRB     r5,[r1,#5]
        0x08001df0:    6ae1        .j      LDR      r1,[r4,#0x2c]
        0x08001df2:    718d        .q      STRB     r5,[r1,#6]
        0x08001df4:    6ae1        .j      LDR      r1,[r4,#0x2c]
        0x08001df6:    71cd        .q      STRB     r5,[r1,#7]
        0x08001df8:    2101        .!      MOVS     r1,#1
        0x08001dfa:    7001        .p      STRB     r1,[r0,#0]
        0x08001dfc:    2164        d!      MOVS     r1,#0x64
        0x08001dfe:    8101        ..      STRH     r1,[r0,#8]
        0x08001e00:    e8bd81f0    ....    POP      {r4-r8,pc}
    $d
        0x08001e04:    0800313c    <1..    DCD    134230332
        0x08001e08:    20000064    d..     DCD    536871012
        0x08001e0c:    08003132    21..    DCD    134230322
        0x08001e10:    2000004c    L..     DCD    536870988
        0x08001e14:    0800312c    ,1..    DCD    134230316
    $t
    i.LIN_SNPD
    LIN_SNPD
        0x08001e18:    b570        p.      PUSH     {r4-r6,lr}
        0x08001e1a:    4922        "I      LDR      r1,[pc,#136] ; [0x8001ea4] = 0x800313c
        0x08001e1c:    6a48        Hj      LDR      r0,[r1,#0x24]
        0x08001e1e:    7800        .x      LDRB     r0,[r0,#0]
        0x08001e20:    287f        .(      CMP      r0,#0x7f
        0x08001e22:    d11f        ..      BNE      0x8001e64 ; LIN_SNPD + 76
        0x08001e24:    6a48        Hj      LDR      r0,[r1,#0x24]
        0x08001e26:    7840        @x      LDRB     r0,[r0,#1]
        0x08001e28:    2806        .(      CMP      r0,#6
        0x08001e2a:    d11b        ..      BNE      0x8001e64 ; LIN_SNPD + 76
        0x08001e2c:    6a48        Hj      LDR      r0,[r1,#0x24]
        0x08001e2e:    f8102f03    .../    LDRB     r2,[r0,#3]!
        0x08001e32:    2aff        .*      CMP      r2,#0xff
        0x08001e34:    d116        ..      BNE      0x8001e64 ; LIN_SNPD + 76
        0x08001e36:    7840        @x      LDRB     r0,[r0,#1]
        0x08001e38:    287f        .(      CMP      r0,#0x7f
        0x08001e3a:    d113        ..      BNE      0x8001e64 ; LIN_SNPD + 76
        0x08001e3c:    6a48        Hj      LDR      r0,[r1,#0x24]
        0x08001e3e:    7980        .y      LDRB     r0,[r0,#6]
        0x08001e40:    2802        .(      CMP      r0,#2
        0x08001e42:    d10f        ..      BNE      0x8001e64 ; LIN_SNPD + 76
        0x08001e44:    6a48        Hj      LDR      r0,[r1,#0x24]
        0x08001e46:    2601        .&      MOVS     r6,#1
        0x08001e48:    2500        .%      MOVS     r5,#0
        0x08001e4a:    7940        @y      LDRB     r0,[r0,#5]
        0x08001e4c:    4c16        .L      LDR      r4,[pc,#88] ; [0x8001ea8] = 0x20000064
        0x08001e4e:    2801        .(      CMP      r0,#1
        0x08001e50:    d009        ..      BEQ      0x8001e66 ; LIN_SNPD + 78
        0x08001e52:    2802        .(      CMP      r0,#2
        0x08001e54:    d01a        ..      BEQ      0x8001e8c ; LIN_SNPD + 116
        0x08001e56:    2803        .(      CMP      r0,#3
        0x08001e58:    d021        !.      BEQ      0x8001e9e ; LIN_SNPD + 134
        0x08001e5a:    2804        .(      CMP      r0,#4
        0x08001e5c:    d102        ..      BNE      0x8001e64 ; LIN_SNPD + 76
        0x08001e5e:    f7fefbb3    ....    BL       BSM_Reset ; 0x80005c8
        0x08001e62:    7125        %q      STRB     r5,[r4,#4]
        0x08001e64:    bd70        p.      POP      {r4-r6,pc}
        0x08001e66:    7126        &q      STRB     r6,[r4,#4]
        0x08001e68:    7165        eq      STRB     r5,[r4,#5]
        0x08001e6a:    f000fb4b    ..K.    BL       ReadNADFromNVR ; 0x8002504
        0x08001e6e:    480f        .H      LDR      r0,[pc,#60] ; [0x8001eac] = 0x40002000
        0x08001e70:    f64f71ff    O..q    MOV      r1,#0xffff
        0x08001e74:    6081        .`      STR      r1,[r0,#8]
        0x08001e76:    6046        F`      STR      r6,[r0,#4]
        0x08001e78:    480d        .H      LDR      r0,[pc,#52] ; [0x8001eb0] = 0xe000e00b
        0x08001e7a:    f8805400    ...T    STRB     r5,[r0,#0x400]
        0x08001e7e:    f04f20e0    O..     MOV      r0,#0xe000e000
        0x08001e82:    f44f6100    O..a    MOV      r1,#0x800
        0x08001e86:    f8c01100    ....    STR      r1,[r0,#0x100]
        0x08001e8a:    bd70        p.      POP      {r4-r6,pc}
        0x08001e8c:    7920         y      LDRB     r0,[r4,#4]
        0x08001e8e:    2803        .(      CMP      r0,#3
        0x08001e90:    d1fb        ..      BNE      0x8001e8a ; LIN_SNPD + 114
        0x08001e92:    6a48        Hj      LDR      r0,[r1,#0x24]
        0x08001e94:    79c0        .y      LDRB     r0,[r0,#7]
        0x08001e96:    7060        `p      STRB     r0,[r4,#1]
        0x08001e98:    2004        .       MOVS     r0,#4
        0x08001e9a:    7120         q      STRB     r0,[r4,#4]
        0x08001e9c:    bd70        p.      POP      {r4-r6,pc}
        0x08001e9e:    70a6        .p      STRB     r6,[r4,#2]
        0x08001ea0:    bd70        p.      POP      {r4-r6,pc}
    $d
        0x08001ea2:    0000        ..      DCW    0
        0x08001ea4:    0800313c    <1..    DCD    134230332
        0x08001ea8:    20000064    d..     DCD    536871012
        0x08001eac:    40002000    . .@    DCD    1073750016
        0x08001eb0:    e000e00b    ....    DCD    3758153739
    $t
    i.LIN_TpLayerNCrTimeoutScheduler
    LIN_TpLayerNCrTimeoutScheduler
        0x08001eb4:    b510        ..      PUSH     {r4,lr}
        0x08001eb6:    f001f82b    ..+.    BL       l_sys_irq_disable ; 0x8002f10
        0x08001eba:    4a06        .J      LDR      r2,[pc,#24] ; [0x8001ed4] = 0x20000064
        0x08001ebc:    8911        ..      LDRH     r1,[r2,#8]
        0x08001ebe:    b129        ).      CBZ      r1,0x8001ecc ; LIN_TpLayerNCrTimeoutScheduler + 24
        0x08001ec0:    1e49        I.      SUBS     r1,r1,#1
        0x08001ec2:    0409        ..      LSLS     r1,r1,#16
        0x08001ec4:    0c09        ..      LSRS     r1,r1,#16
        0x08001ec6:    8111        ..      STRH     r1,[r2,#8]
        0x08001ec8:    d100        ..      BNE      0x8001ecc ; LIN_TpLayerNCrTimeoutScheduler + 24
        0x08001eca:    7011        .p      STRB     r1,[r2,#0]
        0x08001ecc:    e8bd4010    ...@    POP      {r4,lr}
        0x08001ed0:    f001b828    ..(.    B.W      l_sys_irq_restore ; 0x8002f24
    $d
        0x08001ed4:    20000064    d..     DCD    536871012
    $t
    i.LinApplMain
    LinApplMain
        0x08001ed8:    4863        cH      LDR      r0,[pc,#396] ; [0x8002068] = 0x40020000
        0x08001eda:    f24871e4    H..q    MOV      r1,#0x87e4
        0x08001ede:    6401        .d      STR      r1,[r0,#0x40]
        0x08001ee0:    f648213d    H.=!    MOV      r1,#0x8a3d
        0x08001ee4:    6401        .d      STR      r1,[r0,#0x40]
        0x08001ee6:    f64111ec    A...    MOV      r1,#0x19ec
        0x08001eea:    6401        .d      STR      r1,[r0,#0x40]
        0x08001eec:    495f        _I      LDR      r1,[pc,#380] ; [0x800206c] = 0x40030000
        0x08001eee:    680a        .h      LDR      r2,[r1,#0]
        0x08001ef0:    f0220203    "...    BIC      r2,r2,#3
        0x08001ef4:    1c92        ..      ADDS     r2,r2,#2
        0x08001ef6:    600a        .`      STR      r2,[r1,#0]
        0x08001ef8:    684a        Jh      LDR      r2,[r1,#4]
        0x08001efa:    f0420201    B...    ORR      r2,r2,#1
        0x08001efe:    604a        J`      STR      r2,[r1,#4]
        0x08001f00:    6801        .h      LDR      r1,[r0,#0]
        0x08001f02:    f4413180    A..1    ORR      r1,r1,#0x10000
        0x08001f06:    6001        .`      STR      r1,[r0,#0]
        0x08001f08:    6801        .h      LDR      r1,[r0,#0]
        0x08001f0a:    f4413100    A..1    ORR      r1,r1,#0x20000
        0x08001f0e:    6001        .`      STR      r1,[r0,#0]
        0x08001f10:    6841        Ah      LDR      r1,[r0,#4]
        0x08001f12:    f0410101    A...    ORR      r1,r1,#1
        0x08001f16:    6041        A`      STR      r1,[r0,#4]
        0x08001f18:    6841        Ah      LDR      r1,[r0,#4]
        0x08001f1a:    f0410120    A. .    ORR      r1,r1,#0x20
        0x08001f1e:    6041        A`      STR      r1,[r0,#4]
        0x08001f20:    6881        .h      LDR      r1,[r0,#8]
        0x08001f22:    f0410102    A...    ORR      r1,r1,#2
        0x08001f26:    6081        .`      STR      r1,[r0,#8]
        0x08001f28:    6881        .h      LDR      r1,[r0,#8]
        0x08001f2a:    f0410120    A. .    ORR      r1,r1,#0x20
        0x08001f2e:    6081        .`      STR      r1,[r0,#8]
        0x08001f30:    6841        Ah      LDR      r1,[r0,#4]
        0x08001f32:    f0410108    A...    ORR      r1,r1,#8
        0x08001f36:    6041        A`      STR      r1,[r0,#4]
        0x08001f38:    6841        Ah      LDR      r1,[r0,#4]
        0x08001f3a:    f0410104    A...    ORR      r1,r1,#4
        0x08001f3e:    6041        A`      STR      r1,[r0,#4]
        0x08001f40:    6b81        .k      LDR      r1,[r0,#0x38]
        0x08001f42:    f0410140    A.@.    ORR      r1,r1,#0x40
        0x08001f46:    6381        .c      STR      r1,[r0,#0x38]
        0x08001f48:    6b81        .k      LDR      r1,[r0,#0x38]
        0x08001f4a:    f0210120    !. .    BIC      r1,r1,#0x20
        0x08001f4e:    6381        .c      STR      r1,[r0,#0x38]
        0x08001f50:    6b81        .k      LDR      r1,[r0,#0x38]
        0x08001f52:    f0410110    A...    ORR      r1,r1,#0x10
        0x08001f56:    6381        .c      STR      r1,[r0,#0x38]
        0x08001f58:    6bc1        .k      LDR      r1,[r0,#0x3c]
        0x08001f5a:    f0210140    !.@.    BIC      r1,r1,#0x40
        0x08001f5e:    63c1        .c      STR      r1,[r0,#0x3c]
        0x08001f60:    f64039b8    @..9    MOV      r9,#0xbb8
        0x08001f64:    4648        HF      MOV      r0,r9
        0x08001f66:    f000feb0    ....    BL       delay_ms ; 0x8002cca
        0x08001f6a:    f7fefca9    ....    BL       FAULT_Init ; 0x80008c0
        0x08001f6e:    f7fefe39    ..9.    BL       FOC_EpwmInit ; 0x8000be4
        0x08001f72:    f7fefdad    ....    BL       FOC_AdcInit ; 0x8000ad0
        0x08001f76:    f7fefeb1    ....    BL       FOC_GduInit ; 0x8000cdc
        0x08001f7a:    4d3d        =M      LDR      r5,[pc,#244] ; [0x8002070] = 0x200000cc
        0x08001f7c:    2006        .       MOVS     r0,#6
        0x08001f7e:    2110        .!      MOVS     r1,#0x10
        0x08001f80:    7028        (p      STRB     r0,[r5,#0]
        0x08001f82:    f64040cc    @..@    MOV      r0,#0xccc
        0x08001f86:    f8a50092    ....    STRH     r0,[r5,#0x92]
        0x08001f8a:    f04f20e0    O..     MOV      r0,#0xe000e000
        0x08001f8e:    2600        .&      MOVS     r6,#0
        0x08001f90:    f8c01100    ....    STR      r1,[r0,#0x100]
        0x08001f94:    706e        np      STRB     r6,[r5,#1]
        0x08001f96:    f64b317f    K..1    MOV      r1,#0xbb7f
        0x08001f9a:    6141        Aa      STR      r1,[r0,#0x14]
        0x08001f9c:    4a35        5J      LDR      r2,[pc,#212] ; [0x8002074] = 0xe000e00f
        0x08001f9e:    21e0        .!      MOVS     r1,#0xe0
        0x08001fa0:    f8821d14    ....    STRB     r1,[r2,#0xd14]
        0x08001fa4:    6186        .a      STR      r6,[r0,#0x18]
        0x08001fa6:    2107        .!      MOVS     r1,#7
        0x08001fa8:    6101        .a      STR      r1,[r0,#0x10]
        0x08001faa:    f000ff9d    ....    BL       l_sys_init ; 0x8002ee8
        0x08001fae:    b100        ..      CBZ      r0,0x8001fb2 ; LinApplMain + 218
        0x08001fb0:    e7fe        ..      B        0x8001fb0 ; LinApplMain + 216
        0x08001fb2:    f000fef9    ....    BL       l_ifc_init_MyLinIfc ; 0x8002da8
        0x08001fb6:    f000fee1    ....    BL       l_ifc_connect_MyLinIfc ; 0x8002d7c
        0x08001fba:    b100        ..      CBZ      r0,0x8001fbe ; LinApplMain + 230
        0x08001fbc:    e7fe        ..      B        0x8001fbc ; LinApplMain + 228
        0x08001fbe:    f8df80b8    ....    LDR      r8,[pc,#184] ; [0x8002078] = 0x800313c
        0x08001fc2:    2120         !      MOVS     r1,#0x20
        0x08001fc4:    f8d8001c    ....    LDR      r0,[r8,#0x1c]
        0x08001fc8:    7041        Ap      STRB     r1,[r0,#1]
        0x08001fca:    b662        b.      CPSIE    i
        0x08001fcc:    f8dfa0ac    ....    LDR      r10,[pc,#172] ; [0x800207c] = 0x20000038
        0x08001fd0:    4f2b        +O      LDR      r7,[pc,#172] ; [0x8002080] = 0x20000000
        0x08001fd2:    f8dfb0b0    ....    LDR      r11,[pc,#176] ; [0x8002084] = 0x2000009c
        0x08001fd6:    2001        .       MOVS     r0,#1
        0x08001fd8:    f000fe77    ..w.    BL       delay_ms ; 0x8002cca
        0x08001fdc:    f9b5001e    ....    LDRSH    r0,[r5,#0x1e]
        0x08001fe0:    f7fefcde    ....    BL       FLT_ElecDetection ; 0x80009a0
        0x08001fe4:    f000fec4    ....    BL       l_get_ctrl_update_cmd ; 0x8002d70
        0x08001fe8:    b338        8.      CBZ      r0,0x800203a ; LinApplMain + 354
        0x08001fea:    4924        $I      LDR      r1,[pc,#144] ; [0x800207c] = 0x20000038
        0x08001fec:    f8d8000c    ....    LDR      r0,[r8,#0xc]
        0x08001ff0:    f000fea6    ....    BL       l_data_buffer_trans_atcp_ctrl_struct ; 0x8002d40
        0x08001ff4:    f8da0000    ....    LDR      r0,[r10,#0]
        0x08001ff8:    0e01        ..      LSRS     r1,r0,#24
        0x08001ffa:    d018        ..      BEQ      0x800202e ; LinApplMain + 342
        0x08001ffc:    2140        @!      MOVS     r1,#0x40
        0x08001ffe:    ebb16f10    ...o    CMP      r1,r0,LSR #24
        0x08002002:    d10d        ..      BNE      0x8002020 ; LinApplMain + 328
        0x08002004:    b284        ..      UXTH     r4,r0
        0x08002006:    454c        LE      CMP      r4,r9
        0x08002008:    d900        ..      BLS      0x800200c ; LinApplMain + 308
        0x0800200a:    464c        LF      MOV      r4,r9
        0x0800200c:    481e        .H      LDR      r0,[pc,#120] ; [0x8002088] = 0x8002f34
        0x0800200e:    6880        .h      LDR      r0,[r0,#8]
        0x08002010:    f7fef8a5    ....    BL       __aeabi_f2iz ; 0x800015e
        0x08002014:    b200        ..      SXTH     r0,r0
        0x08002016:    ebc431c4    ...1    RSB      r1,r4,r4,LSL #15
        0x0800201a:    fb91f0f0    ....    SDIV     r0,r1,r0
        0x0800201e:    8078        x.      STRH     r0,[r7,#2]
        0x08002020:    8878        x.      LDRH     r0,[r7,#2]
        0x08002022:    f8a50092    ....    STRH     r0,[r5,#0x92]
        0x08002026:    7828        (x      LDRB     r0,[r5,#0]
        0x08002028:    2801        .(      CMP      r0,#1
        0x0800202a:    d002        ..      BEQ      0x8002032 ; LinApplMain + 346
        0x0800202c:    e003        ..      B        0x8002036 ; LinApplMain + 350
        0x0800202e:    807e        ~.      STRH     r6,[r7,#2]
        0x08002030:    e7f6        ..      B        0x8002020 ; LinApplMain + 328
        0x08002032:    2001        .       MOVS     r0,#1
        0x08002034:    7068        hp      STRB     r0,[r5,#1]
        0x08002036:    f000fe7d    ..}.    BL       l_clr_ctrl_update_cmd ; 0x8002d34
        0x0800203a:    f8b50092    ....    LDRH     r0,[r5,#0x92]
        0x0800203e:    b930        0.      CBNZ     r0,0x800204e ; LinApplMain + 374
        0x08002040:    f9b5008e    ....    LDRSH    r0,[r5,#0x8e]
        0x08002044:    f2427110    B..q    MOV      r1,#0x2710
        0x08002048:    4288        .B      CMP      r0,r1
        0x0800204a:    da00        ..      BGE      0x800204e ; LinApplMain + 374
        0x0800204c:    706e        np      STRB     r6,[r5,#1]
        0x0800204e:    f8db0000    ....    LDR      r0,[r11,#0]
        0x08002052:    0681        ..      LSLS     r1,r0,#26
        0x08002054:    d401        ..      BMI      0x800205a ; LinApplMain + 386
        0x08002056:    0740        @.      LSLS     r0,r0,#29
        0x08002058:    d502        ..      BPL      0x8002060 ; LinApplMain + 392
        0x0800205a:    f8a56092    ...`    STRH     r6,[r5,#0x92]
        0x0800205e:    706e        np      STRB     r6,[r5,#1]
        0x08002060:    f000fddc    ....    BL       UpdateLinATCPStatus ; 0x8002c1c
        0x08002064:    e7b7        ..      B        0x8001fd6 ; LinApplMain + 254
    $d
        0x08002066:    0000        ..      DCW    0
        0x08002068:    40020000    ...@    DCD    1073872896
        0x0800206c:    40030000    ...@    DCD    1073938432
        0x08002070:    200000cc    ...     DCD    536871116
        0x08002074:    e000e00f    ....    DCD    3758153743
        0x08002078:    0800313c    <1..    DCD    134230332
        0x0800207c:    20000038    8..     DCD    536870968
        0x08002080:    20000000    ...     DCD    536870912
        0x08002084:    2000009c    ...     DCD    536871068
        0x08002088:    08002f34    4/..    DCD    134229812
    $t
    i.MM_DivF16
    MM_DivF16
        0x0800208c:    03c3        ..      LSLS     r3,r0,#15
        0x0800208e:    eb0172d1    ...r    ADD      r2,r1,r1,LSR #31
        0x08002092:    2800        .(      CMP      r0,#0
        0x08002094:    db02        ..      BLT      0x800209c ; MM_DivF16 + 16
        0x08002096:    2900        .)      CMP      r1,#0
        0x08002098:    da02        ..      BGE      0x80020a0 ; MM_DivF16 + 20
        0x0800209a:    e004        ..      B        0x80020a6 ; MM_DivF16 + 26
        0x0800209c:    2900        .)      CMP      r1,#0
        0x0800209e:    da02        ..      BGE      0x80020a6 ; MM_DivF16 + 26
        0x080020a0:    eb030062    ..b.    ADD      r0,r3,r2,ASR #1
        0x080020a4:    e001        ..      B        0x80020aa ; MM_DivF16 + 30
        0x080020a6:    eba30062    ..b.    SUB      r0,r3,r2,ASR #1
        0x080020aa:    fb90f0f1    ....    SDIV     r0,r0,r1
        0x080020ae:    b200        ..      SXTH     r0,r0
        0x080020b0:    4770        pG      BX       lr
        0x080020b2:    0000        ..      MOVS     r0,r0
    i.MM_QuartAtanF16
    MM_QuartAtanF16
        0x080020b4:    b530        0.      PUSH     {r4,r5,lr}
        0x080020b6:    0004        ..      MOVS     r4,r0
        0x080020b8:    d503        ..      BPL      0x80020c2 ; MM_QuartAtanF16 + 14
        0x080020ba:    4240        @B      RSBS     r0,r0,#0
        0x080020bc:    b204        ..      SXTH     r4,r0
        0x080020be:    4248        HB      RSBS     r0,r1,#0
        0x080020c0:    b201        ..      SXTH     r1,r0
        0x080020c2:    0020         .      MOVS     r0,r4
        0x080020c4:    d500        ..      BPL      0x80020c8 ; MM_QuartAtanF16 + 20
        0x080020c6:    4260        `B      RSBS     r0,r4,#0
        0x080020c8:    000a        ..      MOVS     r2,r1
        0x080020ca:    d500        ..      BPL      0x80020ce ; MM_QuartAtanF16 + 26
        0x080020cc:    424a        JB      RSBS     r2,r1,#0
        0x080020ce:    4282        .B      CMP      r2,r0
        0x080020d0:    dd02        ..      BLE      0x80020d8 ; MM_QuartAtanF16 + 36
        0x080020d2:    b203        ..      SXTH     r3,r0
        0x080020d4:    4610        .F      MOV      r0,r2
        0x080020d6:    461a        .F      MOV      r2,r3
        0x080020d8:    4d11        .M      LDR      r5,[pc,#68] ; [0x8002120] = 0x200000b4
        0x080020da:    f64173ff    A..s    MOV      r3,#0x1fff
        0x080020de:    4282        .B      CMP      r2,r0
        0x080020e0:    686d        mh      LDR      r5,[r5,#4]
        0x080020e2:    dc0e        ..      BGT      0x8002102 ; MM_QuartAtanF16 + 78
        0x080020e4:    0292        ..      LSLS     r2,r2,#10
        0x080020e6:    fbb2f0f0    ....    UDIV     r0,r2,r0
        0x080020ea:    2c00        .,      CMP      r4,#0
        0x080020ec:    f8350010    5...    LDRH     r0,[r5,r0,LSL #1]
        0x080020f0:    dd03        ..      BLE      0x80020fa ; MM_QuartAtanF16 + 70
        0x080020f2:    2900        .)      CMP      r1,#0
        0x080020f4:    da03        ..      BGE      0x80020fe ; MM_QuartAtanF16 + 74
        0x080020f6:    4240        @B      RSBS     r0,r0,#0
        0x080020f8:    e001        ..      B        0x80020fe ; MM_QuartAtanF16 + 74
        0x080020fa:    2900        .)      CMP      r1,#0
        0x080020fc:    da0d        ..      BGE      0x800211a ; MM_QuartAtanF16 + 102
        0x080020fe:    b203        ..      SXTH     r3,r0
        0x08002100:    e00b        ..      B        0x800211a ; MM_QuartAtanF16 + 102
        0x08002102:    0280        ..      LSLS     r0,r0,#10
        0x08002104:    fbb0f0f2    ....    UDIV     r0,r0,r2
        0x08002108:    4806        .H      LDR      r0,[pc,#24] ; [0x8002124] = 0xffffe001
        0x0800210a:    2c00        .,      CMP      r4,#0
        0x0800210c:    db02        ..      BLT      0x8002114 ; MM_QuartAtanF16 + 96
        0x0800210e:    2900        .)      CMP      r1,#0
        0x08002110:    dc03        ..      BGT      0x800211a ; MM_QuartAtanF16 + 102
        0x08002112:    e001        ..      B        0x8002118 ; MM_QuartAtanF16 + 100
        0x08002114:    2900        .)      CMP      r1,#0
        0x08002116:    dd00        ..      BLE      0x800211a ; MM_QuartAtanF16 + 102
        0x08002118:    4603        .F      MOV      r3,r0
        0x0800211a:    4618        .F      MOV      r0,r3
        0x0800211c:    bd30        0.      POP      {r4,r5,pc}
    $d
        0x0800211e:    0000        ..      DCW    0
        0x08002120:    200000b4    ...     DCD    536871092
        0x08002124:    ffffe001    ....    DCD    4294959105
    $t
    i.MM_SatDivF16
    MM_SatDivF16
        0x08002128:    b530        0.      PUSH     {r4,r5,lr}
        0x0800212a:    f64772ff    G..r    MOV      r2,#0x7fff
        0x0800212e:    43d4        .C      MVNS     r4,r2
        0x08002130:    b119        ..      CBZ      r1,0x800213a ; MM_SatDivF16 + 18
        0x08002132:    2800        .(      CMP      r0,#0
        0x08002134:    dd04        ..      BLE      0x8002140 ; MM_SatDivF16 + 24
        0x08002136:    4603        .F      MOV      r3,r0
        0x08002138:    e003        ..      B        0x8002142 ; MM_SatDivF16 + 26
        0x0800213a:    2800        .(      CMP      r0,#0
        0x0800213c:    dc14        ..      BGT      0x8002168 ; MM_SatDivF16 + 64
        0x0800213e:    e00e        ..      B        0x800215e ; MM_SatDivF16 + 54
        0x08002140:    4243        CB      RSBS     r3,r0,#0
        0x08002142:    b21d        ..      SXTH     r5,r3
        0x08002144:    2900        .)      CMP      r1,#0
        0x08002146:    dd01        ..      BLE      0x800214c ; MM_SatDivF16 + 36
        0x08002148:    460b        .F      MOV      r3,r1
        0x0800214a:    e000        ..      B        0x800214e ; MM_SatDivF16 + 38
        0x0800214c:    424b        KB      RSBS     r3,r1,#0
        0x0800214e:    b21b        ..      SXTH     r3,r3
        0x08002150:    429d        .B      CMP      r5,r3
        0x08002152:    db06        ..      BLT      0x8002162 ; MM_SatDivF16 + 58
        0x08002154:    4048        H@      EORS     r0,r0,r1
        0x08002156:    4905        .I      LDR      r1,[pc,#20] ; [0x800216c] = 0x1ffff
        0x08002158:    ebb13fd0    ...?    CMP      r1,r0,LSR #15
        0x0800215c:    d104        ..      BNE      0x8002168 ; MM_SatDivF16 + 64
        0x0800215e:    4622        "F      MOV      r2,r4
        0x08002160:    e002        ..      B        0x8002168 ; MM_SatDivF16 + 64
        0x08002162:    f7ffff93    ....    BL       MM_DivF16 ; 0x800208c
        0x08002166:    4602        .F      MOV      r2,r0
        0x08002168:    4610        .F      MOV      r0,r2
        0x0800216a:    bd30        0.      POP      {r4,r5,pc}
    $d
        0x0800216c:    0001ffff    ....    DCD    131071
    $t
    i.MM_SqrtLut_F16
    MM_SqrtLut_F16
        0x08002170:    4a0b        .J      LDR      r2,[pc,#44] ; [0x80021a0] = 0x80039b0
        0x08002172:    f3c011cf    ....    UBFX     r1,r0,#7,#16
        0x08002176:    eb020341    ..A.    ADD      r3,r2,r1,LSL #1
        0x0800217a:    f8321011    2...    LDRH     r1,[r2,r1,LSL #1]
        0x0800217e:    885b        [.      LDRH     r3,[r3,#2]
        0x08002180:    1a5a        Z.      SUBS     r2,r3,r1
        0x08002182:    17c3        ..      ASRS     r3,r0,#31
        0x08002184:    eb006353    ..Sc    ADD      r3,r0,r3,LSR #25
        0x08002188:    f023037f    #...    BIC      r3,r3,#0x7f
        0x0800218c:    1ac0        ..      SUBS     r0,r0,r3
        0x0800218e:    4342        BC      MULS     r2,r0,r2
        0x08002190:    b210        ..      SXTH     r0,r2
        0x08002192:    17c2        ..      ASRS     r2,r0,#31
        0x08002194:    eb006052    ..R`    ADD      r0,r0,r2,LSR #25
        0x08002198:    eb0110e0    ....    ADD      r0,r1,r0,ASR #7
        0x0800219c:    b200        ..      SXTH     r0,r0
        0x0800219e:    4770        pG      BX       lr
    $d
        0x080021a0:    080039b0    .9..    DCD    134232496
    $t
    i.MM_Sqrt_F16
    MM_Sqrt_F16
        0x080021a4:    0400        ..      LSLS     r0,r0,#16
        0x080021a6:    2100        .!      MOVS     r1,#0
        0x080021a8:    0840        @.      LSRS     r0,r0,#1
        0x080021aa:    f1b05f80    ..._    CMP      r0,#0x10000000
        0x080021ae:    d901        ..      BLS      0x80021b4 ; MM_Sqrt_F16 + 16
        0x080021b0:    f44f4180    O..A    MOV      r1,#0x4000
        0x080021b4:    f5015100    ...Q    ADD      r1,r1,#0x2000
        0x080021b8:    fb01f201    ....    MUL      r2,r1,r1
        0x080021bc:    4282        .B      CMP      r2,r0
        0x080021be:    d902        ..      BLS      0x80021c6 ; MM_Sqrt_F16 + 34
        0x080021c0:    f5a15100    ...Q    SUB      r1,r1,#0x2000
        0x080021c4:    b289        ..      UXTH     r1,r1
        0x080021c6:    f5015180    ...Q    ADD      r1,r1,#0x1000
        0x080021ca:    b289        ..      UXTH     r1,r1
        0x080021cc:    fb01f201    ....    MUL      r2,r1,r1
        0x080021d0:    4282        .B      CMP      r2,r0
        0x080021d2:    d902        ..      BLS      0x80021da ; MM_Sqrt_F16 + 54
        0x080021d4:    f5a15180    ...Q    SUB      r1,r1,#0x1000
        0x080021d8:    b289        ..      UXTH     r1,r1
        0x080021da:    f5016100    ...a    ADD      r1,r1,#0x800
        0x080021de:    b289        ..      UXTH     r1,r1
        0x080021e0:    fb01f201    ....    MUL      r2,r1,r1
        0x080021e4:    4282        .B      CMP      r2,r0
        0x080021e6:    d902        ..      BLS      0x80021ee ; MM_Sqrt_F16 + 74
        0x080021e8:    f5a16100    ...a    SUB      r1,r1,#0x800
        0x080021ec:    b289        ..      UXTH     r1,r1
        0x080021ee:    f5016180    ...a    ADD      r1,r1,#0x400
        0x080021f2:    b289        ..      UXTH     r1,r1
        0x080021f4:    fb01f201    ....    MUL      r2,r1,r1
        0x080021f8:    4282        .B      CMP      r2,r0
        0x080021fa:    d902        ..      BLS      0x8002202 ; MM_Sqrt_F16 + 94
        0x080021fc:    f5a16180    ...a    SUB      r1,r1,#0x400
        0x08002200:    b289        ..      UXTH     r1,r1
        0x08002202:    f5017100    ...q    ADD      r1,r1,#0x200
        0x08002206:    b289        ..      UXTH     r1,r1
        0x08002208:    fb01f201    ....    MUL      r2,r1,r1
        0x0800220c:    4282        .B      CMP      r2,r0
        0x0800220e:    d902        ..      BLS      0x8002216 ; MM_Sqrt_F16 + 114
        0x08002210:    f5a17100    ...q    SUB      r1,r1,#0x200
        0x08002214:    b289        ..      UXTH     r1,r1
        0x08002216:    f5017180    ...q    ADD      r1,r1,#0x100
        0x0800221a:    b289        ..      UXTH     r1,r1
        0x0800221c:    fb01f201    ....    MUL      r2,r1,r1
        0x08002220:    4282        .B      CMP      r2,r0
        0x08002222:    d902        ..      BLS      0x800222a ; MM_Sqrt_F16 + 134
        0x08002224:    f5a17180    ...q    SUB      r1,r1,#0x100
        0x08002228:    b289        ..      UXTH     r1,r1
        0x0800222a:    3180        .1      ADDS     r1,r1,#0x80
        0x0800222c:    b289        ..      UXTH     r1,r1
        0x0800222e:    fb01f201    ....    MUL      r2,r1,r1
        0x08002232:    4282        .B      CMP      r2,r0
        0x08002234:    d901        ..      BLS      0x800223a ; MM_Sqrt_F16 + 150
        0x08002236:    3980        .9      SUBS     r1,r1,#0x80
        0x08002238:    b289        ..      UXTH     r1,r1
        0x0800223a:    3140        @1      ADDS     r1,r1,#0x40
        0x0800223c:    b289        ..      UXTH     r1,r1
        0x0800223e:    fb01f201    ....    MUL      r2,r1,r1
        0x08002242:    4282        .B      CMP      r2,r0
        0x08002244:    d901        ..      BLS      0x800224a ; MM_Sqrt_F16 + 166
        0x08002246:    3940        @9      SUBS     r1,r1,#0x40
        0x08002248:    b289        ..      UXTH     r1,r1
        0x0800224a:    3120         1      ADDS     r1,r1,#0x20
        0x0800224c:    b289        ..      UXTH     r1,r1
        0x0800224e:    fb01f201    ....    MUL      r2,r1,r1
        0x08002252:    4282        .B      CMP      r2,r0
        0x08002254:    d901        ..      BLS      0x800225a ; MM_Sqrt_F16 + 182
        0x08002256:    3920         9      SUBS     r1,r1,#0x20
        0x08002258:    b289        ..      UXTH     r1,r1
        0x0800225a:    3110        .1      ADDS     r1,r1,#0x10
        0x0800225c:    b289        ..      UXTH     r1,r1
        0x0800225e:    fb01f201    ....    MUL      r2,r1,r1
        0x08002262:    4282        .B      CMP      r2,r0
        0x08002264:    d901        ..      BLS      0x800226a ; MM_Sqrt_F16 + 198
        0x08002266:    3910        .9      SUBS     r1,r1,#0x10
        0x08002268:    b289        ..      UXTH     r1,r1
        0x0800226a:    3108        .1      ADDS     r1,r1,#8
        0x0800226c:    b289        ..      UXTH     r1,r1
        0x0800226e:    fb01f201    ....    MUL      r2,r1,r1
        0x08002272:    4282        .B      CMP      r2,r0
        0x08002274:    d901        ..      BLS      0x800227a ; MM_Sqrt_F16 + 214
        0x08002276:    3908        .9      SUBS     r1,r1,#8
        0x08002278:    b289        ..      UXTH     r1,r1
        0x0800227a:    1d09        ..      ADDS     r1,r1,#4
        0x0800227c:    b289        ..      UXTH     r1,r1
        0x0800227e:    fb01f201    ....    MUL      r2,r1,r1
        0x08002282:    4282        .B      CMP      r2,r0
        0x08002284:    d901        ..      BLS      0x800228a ; MM_Sqrt_F16 + 230
        0x08002286:    1f09        ..      SUBS     r1,r1,#4
        0x08002288:    b289        ..      UXTH     r1,r1
        0x0800228a:    1c89        ..      ADDS     r1,r1,#2
        0x0800228c:    b289        ..      UXTH     r1,r1
        0x0800228e:    fb01f201    ....    MUL      r2,r1,r1
        0x08002292:    4282        .B      CMP      r2,r0
        0x08002294:    d901        ..      BLS      0x800229a ; MM_Sqrt_F16 + 246
        0x08002296:    1e89        ..      SUBS     r1,r1,#2
        0x08002298:    b289        ..      UXTH     r1,r1
        0x0800229a:    1c49        I.      ADDS     r1,r1,#1
        0x0800229c:    b289        ..      UXTH     r1,r1
        0x0800229e:    fb01f201    ....    MUL      r2,r1,r1
        0x080022a2:    4282        .B      CMP      r2,r0
        0x080022a4:    d901        ..      BLS      0x80022aa ; MM_Sqrt_F16 + 262
        0x080022a6:    1e49        I.      SUBS     r1,r1,#1
        0x080022a8:    b289        ..      UXTH     r1,r1
        0x080022aa:    b208        ..      SXTH     r0,r1
        0x080022ac:    4770        pG      BX       lr
        0x080022ae:    0000        ..      MOVS     r0,r0
    i.MM_ThetaTransferTrigonoLut
    MM_ThetaTransferTrigonoLut
        0x080022b0:    4b22        "K      LDR      r3,[pc,#136] ; [0x800233c] = 0x200000b4
        0x080022b2:    b510        ..      PUSH     {r4,lr}
        0x080022b4:    681a        .h      LDR      r2,[r3,#0]
        0x080022b6:    f5104f80    ...O    CMN      r0,#0x4000
        0x080022ba:    da0f        ..      BGE      0x80022dc ; MM_ThetaTransferTrigonoLut + 44
        0x080022bc:    f64774ff    G..t    MOV      r4,#0x7fff
        0x080022c0:    4420         D      ADD      r0,r0,r4
        0x080022c2:    b200        ..      SXTH     r0,r0
        0x080022c4:    3010        .0      ADDS     r0,r0,#0x10
        0x080022c6:    1100        ..      ASRS     r0,r0,#4
        0x080022c8:    f5c06480    ...d    RSB      r4,r0,#0x400
        0x080022cc:    f8320010    2...    LDRH     r0,[r2,r0,LSL #1]
        0x080022d0:    4240        @B      RSBS     r0,r0,#0
        0x080022d2:    8008        ..      STRH     r0,[r1,#0]
        0x080022d4:    6818        .h      LDR      r0,[r3,#0]
        0x080022d6:    f8300014    0...    LDRH     r0,[r0,r4,LSL #1]
        0x080022da:    e02c        ,.      B        0x8002336 ; MM_ThetaTransferTrigonoLut + 134
        0x080022dc:    2800        .(      CMP      r0,#0
        0x080022de:    da0f        ..      BGE      0x8002300 ; MM_ThetaTransferTrigonoLut + 80
        0x080022e0:    f5004080    ...@    ADD      r0,r0,#0x4000
        0x080022e4:    b200        ..      SXTH     r0,r0
        0x080022e6:    3010        .0      ADDS     r0,r0,#0x10
        0x080022e8:    1100        ..      ASRS     r0,r0,#4
        0x080022ea:    f5c06480    ...d    RSB      r4,r0,#0x400
        0x080022ee:    f8322014    2..     LDRH     r2,[r2,r4,LSL #1]
        0x080022f2:    4252        RB      RSBS     r2,r2,#0
        0x080022f4:    800a        ..      STRH     r2,[r1,#0]
        0x080022f6:    681a        .h      LDR      r2,[r3,#0]
        0x080022f8:    f8320010    2...    LDRH     r0,[r2,r0,LSL #1]
        0x080022fc:    8048        H.      STRH     r0,[r1,#2]
        0x080022fe:    bd10        ..      POP      {r4,pc}
        0x08002300:    f5b04f80    ...O    CMP      r0,#0x4000
        0x08002304:    da0a        ..      BGE      0x800231c ; MM_ThetaTransferTrigonoLut + 108
        0x08002306:    3010        .0      ADDS     r0,r0,#0x10
        0x08002308:    1100        ..      ASRS     r0,r0,#4
        0x0800230a:    f5c06480    ...d    RSB      r4,r0,#0x400
        0x0800230e:    f8320010    2...    LDRH     r0,[r2,r0,LSL #1]
        0x08002312:    8008        ..      STRH     r0,[r1,#0]
        0x08002314:    6818        .h      LDR      r0,[r3,#0]
        0x08002316:    f8300014    0...    LDRH     r0,[r0,r4,LSL #1]
        0x0800231a:    e7ef        ..      B        0x80022fc ; MM_ThetaTransferTrigonoLut + 76
        0x0800231c:    f5a04080    ...@    SUB      r0,r0,#0x4000
        0x08002320:    b200        ..      SXTH     r0,r0
        0x08002322:    3010        .0      ADDS     r0,r0,#0x10
        0x08002324:    1100        ..      ASRS     r0,r0,#4
        0x08002326:    f5c06480    ...d    RSB      r4,r0,#0x400
        0x0800232a:    f8322014    2..     LDRH     r2,[r2,r4,LSL #1]
        0x0800232e:    800a        ..      STRH     r2,[r1,#0]
        0x08002330:    681a        .h      LDR      r2,[r3,#0]
        0x08002332:    f8320010    2...    LDRH     r0,[r2,r0,LSL #1]
        0x08002336:    4240        @B      RSBS     r0,r0,#0
        0x08002338:    e7e0        ..      B        0x80022fc ; MM_ThetaTransferTrigonoLut + 76
    $d
        0x0800233a:    0000        ..      DCW    0
        0x0800233c:    200000b4    ...     DCD    536871092
    $t
    i.MatchFunctionID
    MatchFunctionID
        0x08002340:    7801        .x      LDRB     r1,[r0,#0]
        0x08002342:    29ff        .)      CMP      r1,#0xff
        0x08002344:    d102        ..      BNE      0x800234c ; MatchFunctionID + 12
        0x08002346:    7842        Bx      LDRB     r2,[r0,#1]
        0x08002348:    2aff        .*      CMP      r2,#0xff
        0x0800234a:    d008        ..      BEQ      0x800235e ; MatchFunctionID + 30
        0x0800234c:    4a06        .J      LDR      r2,[pc,#24] ; [0x8002368] = 0x800312c
        0x0800234e:    7893        .x      LDRB     r3,[r2,#2]
        0x08002350:    4299        .B      CMP      r1,r3
        0x08002352:    d106        ..      BNE      0x8002362 ; MatchFunctionID + 34
        0x08002354:    7840        @x      LDRB     r0,[r0,#1]
        0x08002356:    8851        Q.      LDRH     r1,[r2,#2]
        0x08002358:    ebb02f11    .../    CMP      r0,r1,LSR #8
        0x0800235c:    d101        ..      BNE      0x8002362 ; MatchFunctionID + 34
        0x0800235e:    2001        .       MOVS     r0,#1
        0x08002360:    4770        pG      BX       lr
        0x08002362:    2000        .       MOVS     r0,#0
        0x08002364:    4770        pG      BX       lr
    $d
        0x08002366:    0000        ..      DCW    0
        0x08002368:    0800312c    ,1..    DCD    134230316
    $t
    i.MatchNAD
    MatchNAD
        0x0800236c:    4904        .I      LDR      r1,[pc,#16] ; [0x8002380] = 0x20000064
        0x0800236e:    7849        Ix      LDRB     r1,[r1,#1]
        0x08002370:    4288        .B      CMP      r0,r1
        0x08002372:    d003        ..      BEQ      0x800237c ; MatchNAD + 16
        0x08002374:    287f        .(      CMP      r0,#0x7f
        0x08002376:    d001        ..      BEQ      0x800237c ; MatchNAD + 16
        0x08002378:    2000        .       MOVS     r0,#0
        0x0800237a:    4770        pG      BX       lr
        0x0800237c:    2001        .       MOVS     r0,#1
        0x0800237e:    4770        pG      BX       lr
    $d
        0x08002380:    20000064    d..     DCD    536871012
    $t
    i.MatchSupplierID
    MatchSupplierID
        0x08002384:    7801        .x      LDRB     r1,[r0,#0]
        0x08002386:    29ff        .)      CMP      r1,#0xff
        0x08002388:    d102        ..      BNE      0x8002390 ; MatchSupplierID + 12
        0x0800238a:    7842        Bx      LDRB     r2,[r0,#1]
        0x0800238c:    2a7f        .*      CMP      r2,#0x7f
        0x0800238e:    d008        ..      BEQ      0x80023a2 ; MatchSupplierID + 30
        0x08002390:    4a06        .J      LDR      r2,[pc,#24] ; [0x80023ac] = 0x800312c
        0x08002392:    7813        .x      LDRB     r3,[r2,#0]
        0x08002394:    4299        .B      CMP      r1,r3
        0x08002396:    d106        ..      BNE      0x80023a6 ; MatchSupplierID + 34
        0x08002398:    7840        @x      LDRB     r0,[r0,#1]
        0x0800239a:    8811        ..      LDRH     r1,[r2,#0]
        0x0800239c:    ebb02f11    .../    CMP      r0,r1,LSR #8
        0x080023a0:    d101        ..      BNE      0x80023a6 ; MatchSupplierID + 34
        0x080023a2:    2001        .       MOVS     r0,#1
        0x080023a4:    4770        pG      BX       lr
        0x080023a6:    2000        .       MOVS     r0,#0
        0x080023a8:    4770        pG      BX       lr
    $d
        0x080023aa:    0000        ..      DCW    0
        0x080023ac:    0800312c    ,1..    DCD    134230316
    $t
    i.MemManageHandler
    MemManageHandler
        0x080023b0:    4770        pG      BX       lr
        0x080023b2:    0000        ..      MOVS     r0,r0
    i.MotorPWM_OneShuntSetTriggerPoint
    MotorPWM_OneShuntSetTriggerPoint
        0x080023b4:    4a04        .J      LDR      r2,[pc,#16] ; [0x80023c8] = 0x40022000
        0x080023b6:    6953        Si      LDR      r3,[r2,#0x14]
        0x080023b8:    f360030e    `...    BFI      r3,r0,#0,#15
        0x080023bc:    6153        Sa      STR      r3,[r2,#0x14]
        0x080023be:    6990        .i      LDR      r0,[r2,#0x18]
        0x080023c0:    f361000e    a...    BFI      r0,r1,#0,#15
        0x080023c4:    6190        .a      STR      r0,[r2,#0x18]
        0x080023c6:    4770        pG      BX       lr
    $d
        0x080023c8:    40022000    . .@    DCD    1073881088
    $t
    i.NMIHandler
    NMIHandler
        0x080023cc:    4770        pG      BX       lr
    i.NVIC_DisableIRQ
    NVIC_DisableIRQ
        0x080023ce:    f000021f    ....    AND      r2,r0,#0x1f
        0x080023d2:    2101        .!      MOVS     r1,#1
        0x080023d4:    4091        .@      LSLS     r1,r1,r2
        0x080023d6:    0940        @.      LSRS     r0,r0,#5
        0x080023d8:    0080        ..      LSLS     r0,r0,#2
        0x080023da:    f10020e0    ...     ADD      r0,r0,#0xe000e000
        0x080023de:    f8c01180    ....    STR      r1,[r0,#0x180]
        0x080023e2:    4770        pG      BX       lr
    i.NVIC_SetPriority
    NVIC_SetPriority
        0x080023e4:    0749        I.      LSLS     r1,r1,#29
        0x080023e6:    0e09        ..      LSRS     r1,r1,#24
        0x080023e8:    2800        .(      CMP      r0,#0
        0x080023ea:    da06        ..      BGE      0x80023fa ; NVIC_SetPriority + 22
        0x080023ec:    f000000f    ....    AND      r0,r0,#0xf
        0x080023f0:    f10020e0    ...     ADD      r0,r0,#0xe000e000
        0x080023f4:    f8801d14    ....    STRB     r1,[r0,#0xd14]
        0x080023f8:    4770        pG      BX       lr
        0x080023fa:    f10020e0    ...     ADD      r0,r0,#0xe000e000
        0x080023fe:    f8801400    ....    STRB     r1,[r0,#0x400]
        0x08002402:    4770        pG      BX       lr
    i.NVR_Program
    NVR_Program
        0x08002404:    4a00        .J      LDR      r2,[pc,#0] ; [0x8002408] = 0x100011d
        0x08002406:    4710        .G      BX       r2
    $d
        0x08002408:    0100011d    ....    DCD    16777501
    $t
    i.NotifyRxTxStatus
    NotifyRxTxStatus
        0x0800240c:    b570        p.      PUSH     {r4-r6,lr}
        0x0800240e:    4e25        %N      LDR      r6,[pc,#148] ; [0x80024a4] = 0x200000c2
        0x08002410:    7871        qx      LDRB     r1,[r6,#1]
        0x08002412:    1fb4        ..      SUBS     r4,r6,#6
        0x08002414:    2903        .)      CMP      r1,#3
        0x08002416:    d10a        ..      BNE      0x800242e ; NotifyRxTxStatus + 34
        0x08002418:    8861        a.      LDRH     r1,[r4,#2]
        0x0800241a:    074a        J.      LSLS     r2,r1,#29
        0x0800241c:    d404        ..      BMI      0x8002428 ; NotifyRxTxStatus + 28
        0x0800241e:    078a        ..      LSLS     r2,r1,#30
        0x08002420:    d002        ..      BEQ      0x8002428 ; NotifyRxTxStatus + 28
        0x08002422:    f0410104    A...    ORR      r1,r1,#4
        0x08002426:    8061        a.      STRH     r1,[r4,#2]
        0x08002428:    b130        0.      CBZ      r0,0x8002438 ; NotifyRxTxStatus + 44
        0x0800242a:    f000f8b7    ....    BL       SetLINResponseError ; 0x800259c
        0x0800242e:    f000f899    ....    BL       ResetProtocolState ; 0x8002564
        0x08002432:    2000        .       MOVS     r0,#0
        0x08002434:    80a0        ..      STRH     r0,[r4,#4]
        0x08002436:    bd70        p.      POP      {r4-r6,pc}
        0x08002438:    4d1b        .M      LDR      r5,[pc,#108] ; [0x80024a8] = 0x200003a0
        0x0800243a:    b289        ..      UXTH     r1,r1
        0x0800243c:    7828        (x      LDRB     r0,[r5,#0]
        0x0800243e:    f360211f    `..!    BFI      r1,r0,#8,#24
        0x08002442:    f0410102    A...    ORR      r1,r1,#2
        0x08002446:    8061        a.      STRH     r1,[r4,#2]
        0x08002448:    78b1        .x      LDRB     r1,[r6,#2]
        0x0800244a:    2902        .)      CMP      r1,#2
        0x0800244c:    d106        ..      BNE      0x800245c ; NotifyRxTxStatus + 80
        0x0800244e:    4917        .I      LDR      r1,[pc,#92] ; [0x80024ac] = 0x2000004c
        0x08002450:    7809        .x      LDRB     r1,[r1,#0]
        0x08002452:    4288        .B      CMP      r0,r1
        0x08002454:    d102        ..      BNE      0x800245c ; NotifyRxTxStatus + 80
        0x08002456:    2000        .       MOVS     r0,#0
        0x08002458:    f000fc1a    ....    BL       WriteResponseError ; 0x8002c90
        0x0800245c:    4812        .H      LDR      r0,[pc,#72] ; [0x80024a8] = 0x200003a0
        0x0800245e:    f000fc79    ..y.    BL       l_flg_set_update_flags ; 0x8002d54
        0x08002462:    78b0        .x      LDRB     r0,[r6,#2]
        0x08002464:    2801        .(      CMP      r0,#1
        0x08002466:    d1e2        ..      BNE      0x800242e ; NotifyRxTxStatus + 34
        0x08002468:    7828        (x      LDRB     r0,[r5,#0]
        0x0800246a:    283c        <(      CMP      r0,#0x3c
        0x0800246c:    d112        ..      BNE      0x8002494 ; NotifyRxTxStatus + 136
        0x0800246e:    7868        hx      LDRB     r0,[r5,#1]
        0x08002470:    b150        P.      CBZ      r0,0x8002488 ; NotifyRxTxStatus + 124
        0x08002472:    287f        .(      CMP      r0,#0x7f
        0x08002474:    d80e        ..      BHI      0x8002494 ; NotifyRxTxStatus + 136
        0x08002476:    68e0        .h      LDR      r0,[r4,#0xc]
        0x08002478:    7862        bx      LDRB     r2,[r4,#1]
        0x0800247a:    1c69        i.      ADDS     r1,r5,#1
        0x0800247c:    6840        @h      LDR      r0,[r0,#4]
        0x0800247e:    f7fdfe5c    ..\.    BL       __aeabi_memcpy ; 0x800013a
        0x08002482:    f7fffc1f    ....    BL       LIN_NodeConfigAndIndentifByDiagnosticFrame ; 0x8001cc4
        0x08002486:    e7d2        ..      B        0x800242e ; NotifyRxTxStatus + 34
        0x08002488:    8860        `.      LDRH     r0,[r4,#2]
        0x0800248a:    f0400008    @...    ORR      r0,r0,#8
        0x0800248e:    8060        `.      STRH     r0,[r4,#2]
        0x08002490:    f7fff8b4    ....    BL       GotoSleep ; 0x80015fc
        0x08002494:    68e0        .h      LDR      r0,[r4,#0xc]
        0x08002496:    7862        bx      LDRB     r2,[r4,#1]
        0x08002498:    1c69        i.      ADDS     r1,r5,#1
        0x0800249a:    6840        @h      LDR      r0,[r0,#4]
        0x0800249c:    f7fdfe4d    ..M.    BL       __aeabi_memcpy ; 0x800013a
        0x080024a0:    e7c5        ..      B        0x800242e ; NotifyRxTxStatus + 34
    $d
        0x080024a2:    0000        ..      DCW    0
        0x080024a4:    200000c2    ...     DCD    536871106
        0x080024a8:    200003a0    ...     DCD    536871840
        0x080024ac:    2000004c    L..     DCD    536870988
    $t
    i.PMU_IRQHandler
    PMU_IRQHandler
        0x080024b0:    4811        .H      LDR      r0,[pc,#68] ; [0x80024f8] = 0x40020000
        0x080024b2:    6a81        .j      LDR      r1,[r0,#0x28]
        0x080024b4:    00ca        ..      LSLS     r2,r1,#3
        0x080024b6:    4911        .I      LDR      r1,[pc,#68] ; [0x80024fc] = 0x2000009c
        0x080024b8:    d507        ..      BPL      0x80024ca ; PMU_IRQHandler + 26
        0x080024ba:    680a        .h      LDR      r2,[r1,#0]
        0x080024bc:    f0420202    B...    ORR      r2,r2,#2
        0x080024c0:    600a        .`      STR      r2,[r1,#0]
        0x080024c2:    6a82        .j      LDR      r2,[r0,#0x28]
        0x080024c4:    f0425280    B..R    ORR      r2,r2,#0x10000000
        0x080024c8:    6282        .b      STR      r2,[r0,#0x28]
        0x080024ca:    6a82        .j      LDR      r2,[r0,#0x28]
        0x080024cc:    0092        ..      LSLS     r2,r2,#2
        0x080024ce:    d507        ..      BPL      0x80024e0 ; PMU_IRQHandler + 48
        0x080024d0:    680a        .h      LDR      r2,[r1,#0]
        0x080024d2:    f0420201    B...    ORR      r2,r2,#1
        0x080024d6:    600a        .`      STR      r2,[r1,#0]
        0x080024d8:    6a82        .j      LDR      r2,[r0,#0x28]
        0x080024da:    f0425200    B..R    ORR      r2,r2,#0x20000000
        0x080024de:    6282        .b      STR      r2,[r0,#0x28]
        0x080024e0:    6a82        .j      LDR      r2,[r0,#0x28]
        0x080024e2:    0052        R.      LSLS     r2,r2,#1
        0x080024e4:    d507        ..      BPL      0x80024f6 ; PMU_IRQHandler + 70
        0x080024e6:    680a        .h      LDR      r2,[r1,#0]
        0x080024e8:    f4426200    B..b    ORR      r2,r2,#0x800
        0x080024ec:    600a        .`      STR      r2,[r1,#0]
        0x080024ee:    6a81        .j      LDR      r1,[r0,#0x28]
        0x080024f0:    f0414180    A..A    ORR      r1,r1,#0x40000000
        0x080024f4:    6281        .b      STR      r1,[r0,#0x28]
        0x080024f6:    4770        pG      BX       lr
    $d
        0x080024f8:    40020000    ...@    DCD    1073872896
        0x080024fc:    2000009c    ...     DCD    536871068
    $t
    i.PendSVHandler
    PendSVHandler
        0x08002500:    4770        pG      BX       lr
        0x08002502:    0000        ..      MOVS     r0,r0
    i.ReadNADFromNVR
    ReadNADFromNVR
        0x08002504:    4805        .H      LDR      r0,[pc,#20] ; [0x800251c] = 0x8010400
        0x08002506:    f24a525a    J.ZR    MOV      r2,#0xa55a
        0x0800250a:    4905        .I      LDR      r1,[pc,#20] ; [0x8002520] = 0x20000065
        0x0800250c:    6800        .h      LDR      r0,[r0,#0]
        0x0800250e:    ebb24f10    ...O    CMP      r2,r0,LSR #16
        0x08002512:    d000        ..      BEQ      0x8002516 ; ReadNADFromNVR + 18
        0x08002514:    2001        .       MOVS     r0,#1
        0x08002516:    7008        .p      STRB     r0,[r1,#0]
        0x08002518:    4770        pG      BX       lr
    $d
        0x0800251a:    0000        ..      DCW    0
        0x0800251c:    08010400    ....    DCD    134284288
        0x08002520:    20000065    e..     DCD    536871013
    $t
    i.ReadPIDFromNVR
    ReadPIDFromNVR
        0x08002524:    b51c        ..      PUSH     {r2-r4,lr}
        0x08002526:    4b0e        .K      LDR      r3,[pc,#56] ; [0x8002560] = 0x8010408
        0x08002528:    e9d32300    ...#    LDRD     r2,r3,[r3,#0]
        0x0800252c:    b2d4        ..      UXTB     r4,r2
        0x0800252e:    e9cd2300    ...#    STRD     r2,r3,[sp,#0]
        0x08002532:    0a12        ..      LSRS     r2,r2,#8
        0x08002534:    ea426203    B..b    ORR      r2,r2,r3,LSL #24
        0x08002538:    b2d3        ..      UXTB     r3,r2
        0x0800253a:    43ca        .C      MVNS     r2,r1
        0x0800253c:    b2d2        ..      UXTB     r2,r2
        0x0800253e:    2906        .)      CMP      r1,#6
        0x08002540:    d80c        ..      BHI      0x800255c ; ReadPIDFromNVR + 56
        0x08002542:    428c        .B      CMP      r4,r1
        0x08002544:    d10a        ..      BNE      0x800255c ; ReadPIDFromNVR + 56
        0x08002546:    4293        .B      CMP      r3,r2
        0x08002548:    d108        ..      BNE      0x800255c ; ReadPIDFromNVR + 56
        0x0800254a:    2200        ."      MOVS     r2,#0
        0x0800254c:    f10d0302    ....    ADD      r3,sp,#2
        0x08002550:    e002        ..      B        0x8002558 ; ReadPIDFromNVR + 52
        0x08002552:    5c9c        .\      LDRB     r4,[r3,r2]
        0x08002554:    5484        .T      STRB     r4,[r0,r2]
        0x08002556:    1c52        R.      ADDS     r2,r2,#1
        0x08002558:    428a        .B      CMP      r2,r1
        0x0800255a:    dbfa        ..      BLT      0x8002552 ; ReadPIDFromNVR + 46
        0x0800255c:    bd1c        ..      POP      {r2-r4,pc}
    $d
        0x0800255e:    0000        ..      DCW    0
        0x08002560:    08010408    ....    DCD    134284296
    $t
    i.ResetProtocolState
    ResetProtocolState
        0x08002564:    b510        ..      PUSH     {r4,lr}
        0x08002566:    4c09        .L      LDR      r4,[pc,#36] ; [0x800258c] = 0x40003000
        0x08002568:    6820         h      LDR      r0,[r4,#0]
        0x0800256a:    f0200001     ...    BIC      r0,r0,#1
        0x0800256e:    6020         `      STR      r0,[r4,#0]
        0x08002570:    f7fef856    ..V.    BL       BSM_ResetInFrameEnd ; 0x8000620
        0x08002574:    4806        .H      LDR      r0,[pc,#24] ; [0x8002590] = 0x20040
        0x08002576:    6120         a      STR      r0,[r4,#0x10]
        0x08002578:    f04f30ff    O..0    MOV      r0,#0xffffffff
        0x0800257c:    6160        `a      STR      r0,[r4,#0x14]
        0x0800257e:    4805        .H      LDR      r0,[pc,#20] ; [0x8002594] = 0x200000c2
        0x08002580:    2100        .!      MOVS     r1,#0
        0x08002582:    7081        .p      STRB     r1,[r0,#2]
        0x08002584:    2101        .!      MOVS     r1,#1
        0x08002586:    7041        Ap      STRB     r1,[r0,#1]
        0x08002588:    bd10        ..      POP      {r4,pc}
    $d
        0x0800258a:    0000        ..      DCW    0
        0x0800258c:    40003000    .0.@    DCD    1073754112
        0x08002590:    00020040    @...    DCD    131136
        0x08002594:    200000c2    ...     DCD    536871106
    $t
    i.SVCHandler
    SVCHandler
        0x08002598:    4770        pG      BX       lr
        0x0800259a:    0000        ..      MOVS     r0,r0
    i.SetLINResponseError
    SetLINResponseError
        0x0800259c:    b510        ..      PUSH     {r4,lr}
        0x0800259e:    f7fdffbd    ....    BL       BSM_GetBSMNodeStatus ; 0x800051c
        0x080025a2:    2800        .(      CMP      r0,#0
        0x080025a4:    d10d        ..      BNE      0x80025c2 ; SetLINResponseError + 38
        0x080025a6:    4807        .H      LDR      r0,[pc,#28] ; [0x80025c4] = 0x200003a0
        0x080025a8:    7802        .x      LDRB     r2,[r0,#0]
        0x080025aa:    4807        .H      LDR      r0,[pc,#28] ; [0x80025c8] = 0x200000bc
        0x080025ac:    8841        A.      LDRH     r1,[r0,#2]
        0x080025ae:    f362211f    b..!    BFI      r1,r2,#8,#24
        0x080025b2:    f0410101    A...    ORR      r1,r1,#1
        0x080025b6:    8041        A.      STRH     r1,[r0,#2]
        0x080025b8:    e8bd4010    ...@    POP      {r4,lr}
        0x080025bc:    2001        .       MOVS     r0,#1
        0x080025be:    f000bb67    ..g.    B.W      WriteResponseError ; 0x8002c90
        0x080025c2:    bd10        ..      POP      {r4,pc}
    $d
        0x080025c4:    200003a0    ...     DCD    536871840
        0x080025c8:    200000bc    ...     DCD    536871100
    $t
    i.SetPwmDuty
    SetPwmDuty
        0x080025cc:    b5f0        ..      PUSH     {r4-r7,lr}
        0x080025ce:    4d2f        /M      LDR      r5,[pc,#188] ; [0x800268c] = 0x40021000
        0x080025d0:    6fa9        .o      LDR      r1,[r5,#0x78]
        0x080025d2:    f02101ff    !...    BIC      r1,r1,#0xff
        0x080025d6:    3155        U1      ADDS     r1,r1,#0x55
        0x080025d8:    67a9        .g      STR      r1,[r5,#0x78]
        0x080025da:    492d        -I      LDR      r1,[pc,#180] ; [0x8002690] = 0x20000012
        0x080025dc:    f8b0206a    ..j     LDRH     r2,[r0,#0x6a]
        0x080025e0:    880e        ..      LDRH     r6,[r1,#0]
        0x080025e2:    1ab1        ..      SUBS     r1,r6,r2
        0x080025e4:    f8a0106a    ..j.    STRH     r1,[r0,#0x6a]
        0x080025e8:    8f02        ..      LDRH     r2,[r0,#0x38]
        0x080025ea:    1a8b        ..      SUBS     r3,r1,r2
        0x080025ec:    4411        .D      ADD      r1,r1,r2
        0x080025ee:    1e72        r.      SUBS     r2,r6,#1
        0x080025f0:    b21b        ..      SXTH     r3,r3
        0x080025f2:    b20c        ..      SXTH     r4,r1
        0x080025f4:    b211        ..      SXTH     r1,r2
        0x080025f6:    2b01        .+      CMP      r3,#1
        0x080025f8:    da01        ..      BGE      0x80025fe ; SetPwmDuty + 50
        0x080025fa:    2301        .#      MOVS     r3,#1
        0x080025fc:    e002        ..      B        0x8002604 ; SetPwmDuty + 56
        0x080025fe:    4293        .B      CMP      r3,r2
        0x08002600:    dd00        ..      BLE      0x8002604 ; SetPwmDuty + 56
        0x08002602:    460b        .F      MOV      r3,r1
        0x08002604:    2c01        .,      CMP      r4,#1
        0x08002606:    da01        ..      BGE      0x800260c ; SetPwmDuty + 64
        0x08002608:    2401        .$      MOVS     r4,#1
        0x0800260a:    e002        ..      B        0x8002612 ; SetPwmDuty + 70
        0x0800260c:    4294        .B      CMP      r4,r2
        0x0800260e:    dd00        ..      BLE      0x8002612 ; SetPwmDuty + 70
        0x08002610:    460c        .F      MOV      r4,r1
        0x08002612:    61ab        .a      STR      r3,[r5,#0x18]
        0x08002614:    61ec        .a      STR      r4,[r5,#0x1c]
        0x08002616:    f8b0306c    ..l0    LDRH     r3,[r0,#0x6c]
        0x0800261a:    1af4        ..      SUBS     r4,r6,r3
        0x0800261c:    f8a0406c    ..l@    STRH     r4,[r0,#0x6c]
        0x08002620:    8f47        G.      LDRH     r7,[r0,#0x3a]
        0x08002622:    1be3        ..      SUBS     r3,r4,r7
        0x08002624:    b21b        ..      SXTH     r3,r3
        0x08002626:    443c        <D      ADD      r4,r4,r7
        0x08002628:    b224        $.      SXTH     r4,r4
        0x0800262a:    2b01        .+      CMP      r3,#1
        0x0800262c:    da01        ..      BGE      0x8002632 ; SetPwmDuty + 102
        0x0800262e:    2301        .#      MOVS     r3,#1
        0x08002630:    e002        ..      B        0x8002638 ; SetPwmDuty + 108
        0x08002632:    4293        .B      CMP      r3,r2
        0x08002634:    dd00        ..      BLE      0x8002638 ; SetPwmDuty + 108
        0x08002636:    460b        .F      MOV      r3,r1
        0x08002638:    2c01        .,      CMP      r4,#1
        0x0800263a:    da01        ..      BGE      0x8002640 ; SetPwmDuty + 116
        0x0800263c:    2401        .$      MOVS     r4,#1
        0x0800263e:    e002        ..      B        0x8002646 ; SetPwmDuty + 122
        0x08002640:    4294        .B      CMP      r4,r2
        0x08002642:    dd00        ..      BLE      0x8002646 ; SetPwmDuty + 122
        0x08002644:    460c        .F      MOV      r4,r1
        0x08002646:    622b        +b      STR      r3,[r5,#0x20]
        0x08002648:    626c        lb      STR      r4,[r5,#0x24]
        0x0800264a:    f8303f6e    0.n?    LDRH     r3,[r0,#0x6e]!
        0x0800264e:    1af3        ..      SUBS     r3,r6,r3
        0x08002650:    f8203932     .29    STRH     r3,[r0],#-0x32
        0x08002654:    8804        ..      LDRH     r4,[r0,#0]
        0x08002656:    1b18        ..      SUBS     r0,r3,r4
        0x08002658:    b200        ..      SXTH     r0,r0
        0x0800265a:    4423        #D      ADD      r3,r3,r4
        0x0800265c:    b21b        ..      SXTH     r3,r3
        0x0800265e:    2801        .(      CMP      r0,#1
        0x08002660:    da01        ..      BGE      0x8002666 ; SetPwmDuty + 154
        0x08002662:    2001        .       MOVS     r0,#1
        0x08002664:    e002        ..      B        0x800266c ; SetPwmDuty + 160
        0x08002666:    4290        .B      CMP      r0,r2
        0x08002668:    dd00        ..      BLE      0x800266c ; SetPwmDuty + 160
        0x0800266a:    4608        .F      MOV      r0,r1
        0x0800266c:    2b01        .+      CMP      r3,#1
        0x0800266e:    da01        ..      BGE      0x8002674 ; SetPwmDuty + 168
        0x08002670:    2301        .#      MOVS     r3,#1
        0x08002672:    e002        ..      B        0x800267a ; SetPwmDuty + 174
        0x08002674:    4293        .B      CMP      r3,r2
        0x08002676:    dd00        ..      BLE      0x800267a ; SetPwmDuty + 174
        0x08002678:    460b        .F      MOV      r3,r1
        0x0800267a:    62a8        .b      STR      r0,[r5,#0x28]
        0x0800267c:    62eb        .b      STR      r3,[r5,#0x2c]
        0x0800267e:    6fa8        .o      LDR      r0,[r5,#0x78]
        0x08002680:    f02000ff     ...    BIC      r0,r0,#0xff
        0x08002684:    30aa        .0      ADDS     r0,r0,#0xaa
        0x08002686:    67a8        .g      STR      r0,[r5,#0x78]
        0x08002688:    bdf0        ..      POP      {r4-r7,pc}
    $d
        0x0800268a:    0000        ..      DCW    0
        0x0800268c:    40021000    ...@    DCD    1073876992
        0x08002690:    20000012    ...     DCD    536870930
    $t
    i.SetRequestEnterBootloader
    SetRequestEnterBootloader
        0x08002694:    4910        .I      LDR      r1,[pc,#64] ; [0x80026d8] = 0x2000029c
        0x08002696:    b510        ..      PUSH     {r4,lr}
        0x08002698:    f44f40b4    O..@    MOV      r0,#0x5a00
        0x0800269c:    6108        .a      STR      r0,[r1,#0x10]
        0x0800269e:    480f        .H      LDR      r0,[pc,#60] ; [0x80026dc] = 0x76920000
        0x080026a0:    6148        Ha      STR      r0,[r1,#0x14]
        0x080026a2:    480f        .H      LDR      r0,[pc,#60] ; [0x80026e0] = 0x8010400
        0x080026a4:    6802        .h      LDR      r2,[r0,#0]
        0x080026a6:    600a        .`      STR      r2,[r1,#0]
        0x080026a8:    4a0d        .J      LDR      r2,[pc,#52] ; [0x80026e0] = 0x8010400
        0x080026aa:    3208        .2      ADDS     r2,r2,#8
        0x080026ac:    6812        .h      LDR      r2,[r2,#0]
        0x080026ae:    608a        .`      STR      r2,[r1,#8]
        0x080026b0:    4a0b        .J      LDR      r2,[pc,#44] ; [0x80026e0] = 0x8010400
        0x080026b2:    320c        .2      ADDS     r2,r2,#0xc
        0x080026b4:    6812        .h      LDR      r2,[r2,#0]
        0x080026b6:    60ca        .`      STR      r2,[r1,#0xc]
        0x080026b8:    490a        .I      LDR      r1,[pc,#40] ; [0x80026e4] = 0x40030000
        0x080026ba:    694a        Ji      LDR      r2,[r1,#0x14]
        0x080026bc:    f022023f    ".?.    BIC      r2,r2,#0x3f
        0x080026c0:    322f        /2      ADDS     r2,r2,#0x2f
        0x080026c2:    614a        Ja      STR      r2,[r1,#0x14]
        0x080026c4:    4908        .I      LDR      r1,[pc,#32] ; [0x80026e8] = 0x1000085
        0x080026c6:    4788        .G      BLX      r1
        0x080026c8:    4805        .H      LDR      r0,[pc,#20] ; [0x80026e0] = 0x8010400
        0x080026ca:    e8bd4010    ...@    POP      {r4,lr}
        0x080026ce:    4902        .I      LDR      r1,[pc,#8] ; [0x80026d8] = 0x2000029c
        0x080026d0:    3010        .0      ADDS     r0,r0,#0x10
        0x080026d2:    f7ffbe97    ....    B.W      NVR_Program ; 0x8002404
    $d
        0x080026d6:    0000        ..      DCW    0
        0x080026d8:    2000029c    ...     DCD    536871580
        0x080026dc:    76920000    ...v    DCD    1989279744
        0x080026e0:    08010400    ....    DCD    134284288
        0x080026e4:    40030000    ...@    DCD    1073938432
        0x080026e8:    01000085    ....    DCD    16777349
    $t
    i.StateAlign
    StateAlign
        0x080026ec:    e92d41f0    -..A    PUSH     {r4-r8,lr}
        0x080026f0:    4c29        )L      LDR      r4,[pc,#164] ; [0x8002798] = 0x200000cc
        0x080026f2:    2004        .       MOVS     r0,#4
        0x080026f4:    2501        .%      MOVS     r5,#1
        0x080026f6:    7020         p      STRB     r0,[r4,#0]
        0x080026f8:    2008        .       MOVS     r0,#8
        0x080026fa:    7060        `p      STRB     r0,[r4,#1]
        0x080026fc:    f7fef8ce    ....    BL       EnableOutput ; 0x800089c
        0x08002700:    2600        .&      MOVS     r6,#0
        0x08002702:    87e6        ..      STRH     r6,[r4,#0x3e]
        0x08002704:    88a0        ..      LDRH     r0,[r4,#4]
        0x08002706:    f8a40040    ..@.    STRH     r0,[r4,#0x40]
        0x0800270a:    f104014a    ..J.    ADD      r1,r4,#0x4a
        0x0800270e:    460f        .F      MOV      r7,r1
        0x08002710:    4630        0F      MOV      r0,r6
        0x08002712:    f7fffdcd    ....    BL       MM_ThetaTransferTrigonoLut ; 0x80022b0
        0x08002716:    f104013e    ..>.    ADD      r1,r4,#0x3e
        0x0800271a:    463a        :F      MOV      r2,r7
        0x0800271c:    1d08        ..      ADDS     r0,r1,#4
        0x0800271e:    4607        .F      MOV      r7,r0
        0x08002720:    f7fefe10    ....    BL       GMC_InvParkF16 ; 0x8001344
        0x08002724:    8860        `.      LDRH     r0,[r4,#2]
        0x08002726:    1c41        A.      ADDS     r1,r0,#1
        0x08002728:    8061        a.      STRH     r1,[r4,#2]
        0x0800272a:    491c        .I      LDR      r1,[pc,#112] ; [0x800279c] = 0x8002f34
        0x0800272c:    8cc9        ..      LDRH     r1,[r1,#0x26]
        0x0800272e:    4288        .B      CMP      r0,r1
        0x08002730:    d211        ..      BCS      0x8002756 ; StateAlign + 106
        0x08002732:    8766        f.      STRH     r6,[r4,#0x3a]
        0x08002734:    87a6        ..      STRH     r6,[r4,#0x3c]
        0x08002736:    f8a46054    ..T`    STRH     r6,[r4,#0x54]
        0x0800273a:    65e6        .e      STR      r6,[r4,#0x5c]
        0x0800273c:    f8a46064    ..d`    STRH     r6,[r4,#0x64]
        0x08002740:    66e6        .f      STR      r6,[r4,#0x6c]
        0x08002742:    f8a46152    ..Ra    STRH     r6,[r4,#0x152]
        0x08002746:    f8a46154    ..Ta    STRH     r6,[r4,#0x154]
        0x0800274a:    f8a46156    ..Va    STRH     r6,[r4,#0x156]
        0x0800274e:    2002        .       MOVS     r0,#2
        0x08002750:    f8a40146    ..F.    STRH     r0,[r4,#0x146]
        0x08002754:    e000        ..      B        0x8002758 ; StateAlign + 108
        0x08002756:    2500        .%      MOVS     r5,#0
        0x08002758:    8be0        ..      LDRH     r0,[r4,#0x1e]
        0x0800275a:    4a11        .J      LDR      r2,[pc,#68] ; [0x80027a0] = 0x20000224
        0x0800275c:    f8a40158    ..X.    STRH     r0,[r4,#0x158]
        0x08002760:    f5a27089    ...p    SUB      r0,r2,#0x112
        0x08002764:    4639        9F      MOV      r1,r7
        0x08002766:    4606        .F      MOV      r6,r0
        0x08002768:    f7fefdb7    ....    BL       GMC_DcBusCompF16 ; 0x80012da
        0x0800276c:    480c        .H      LDR      r0,[pc,#48] ; [0x80027a0] = 0x20000224
        0x0800276e:    4631        1F      MOV      r1,r6
        0x08002770:    3812        .8      SUBS     r0,r0,#0x12
        0x08002772:    f7fefe4d    ..M.    BL       GMC_Svm ; 0x8001410
        0x08002776:    f64440cc    D..@    MOV      r0,#0x4ccc
        0x0800277a:    f8a40152    ..R.    STRH     r0,[r4,#0x152]
        0x0800277e:    f44f4080    O..@    MOV      r0,#0x4000
        0x08002782:    f8a40154    ..T.    STRH     r0,[r4,#0x154]
        0x08002786:    f8a40156    ..V.    STRH     r0,[r4,#0x156]
        0x0800278a:    2d00        .-      CMP      r5,#0
        0x0800278c:    d101        ..      BNE      0x8002792 ; StateAlign + 166
        0x0800278e:    2009        .       MOVS     r0,#9
        0x08002790:    7060        `p      STRB     r0,[r4,#1]
        0x08002792:    e8bd81f0    ....    POP      {r4-r8,pc}
    $d
        0x08002796:    0000        ..      DCW    0
        0x08002798:    200000cc    ...     DCD    536871116
        0x0800279c:    08002f34    4/..    DCD    134229812
        0x080027a0:    20000224    $..     DCD    536871460
    $t
    i.StateCalib
    StateCalib
        0x080027a4:    4a16        .J      LDR      r2,[pc,#88] ; [0x8002800] = 0x200000cc
        0x080027a6:    b500        ..      PUSH     {lr}
        0x080027a8:    2003        .       MOVS     r0,#3
        0x080027aa:    7010        .p      STRB     r0,[r2,#0]
        0x080027ac:    2006        .       MOVS     r0,#6
        0x080027ae:    7050        Pp      STRB     r0,[r2,#1]
        0x080027b0:    f7fdffdc    ....    BL       DisableOutput ; 0x800076c
        0x080027b4:    f64440cc    D..@    MOV      r0,#0x4ccc
        0x080027b8:    f8a20152    ..R.    STRH     r0,[r2,#0x152]
        0x080027bc:    f44f4080    O..@    MOV      r0,#0x4000
        0x080027c0:    f8a20154    ..T.    STRH     r0,[r2,#0x154]
        0x080027c4:    f8a20156    ..V.    STRH     r0,[r2,#0x156]
        0x080027c8:    88d0        ..      LDRH     r0,[r2,#6]
        0x080027ca:    1c41        A.      ADDS     r1,r0,#1
        0x080027cc:    80d1        ..      STRH     r1,[r2,#6]
        0x080027ce:    2810        .(      CMP      r0,#0x10
        0x080027d0:    d208        ..      BCS      0x80027e4 ; StateCalib + 64
        0x080027d2:    f9b2100e    ....    LDRSH    r1,[r2,#0xe]
        0x080027d6:    6890        .h      LDR      r0,[r2,#8]
        0x080027d8:    4408        .D      ADD      r0,r0,r1
        0x080027da:    f9b21010    ....    LDRSH    r1,[r2,#0x10]
        0x080027de:    4408        .D      ADD      r0,r0,r1
        0x080027e0:    6090        .`      STR      r0,[r2,#8]
        0x080027e2:    bd00        ..      POP      {pc}
        0x080027e4:    2010        .       MOVS     r0,#0x10
        0x080027e6:    80d0        ..      STRH     r0,[r2,#6]
        0x080027e8:    6890        .h      LDR      r0,[r2,#8]
        0x080027ea:    17c1        ..      ASRS     r1,r0,#31
        0x080027ec:    eb0060d1    ...`    ADD      r0,r0,r1,LSR #27
        0x080027f0:    4904        .I      LDR      r1,[pc,#16] ; [0x8002804] = 0x20000330
        0x080027f2:    1140        @.      ASRS     r0,r0,#5
        0x080027f4:    f8a10064    ..d.    STRH     r0,[r1,#0x64]
        0x080027f8:    2007        .       MOVS     r0,#7
        0x080027fa:    7050        Pp      STRB     r0,[r2,#1]
        0x080027fc:    bd00        ..      POP      {pc}
    $d
        0x080027fe:    0000        ..      DCW    0
        0x08002800:    200000cc    ...     DCD    536871116
        0x08002804:    20000330    0..     DCD    536871728
    $t
    i.StateFault
    StateFault
        0x08002808:    4a09        .J      LDR      r2,[pc,#36] ; [0x8002830] = 0x200000cc
        0x0800280a:    b500        ..      PUSH     {lr}
        0x0800280c:    2001        .       MOVS     r0,#1
        0x0800280e:    7010        .p      STRB     r0,[r2,#0]
        0x08002810:    f7fdffac    ....    BL       DisableOutput ; 0x800076c
        0x08002814:    f64440cc    D..@    MOV      r0,#0x4ccc
        0x08002818:    f8a20152    ..R.    STRH     r0,[r2,#0x152]
        0x0800281c:    f44f4080    O..@    MOV      r0,#0x4000
        0x08002820:    f8a20154    ..T.    STRH     r0,[r2,#0x154]
        0x08002824:    f8a20156    ..V.    STRH     r0,[r2,#0x156]
        0x08002828:    2000        .       MOVS     r0,#0
        0x0800282a:    f8a2008e    ....    STRH     r0,[r2,#0x8e]
        0x0800282e:    bd00        ..      POP      {pc}
    $d
        0x08002830:    200000cc    ...     DCD    536871116
    $t
    i.StateInit
    StateInit
        0x08002834:    b570        p.      PUSH     {r4-r6,lr}
        0x08002836:    4d14        .M      LDR      r5,[pc,#80] ; [0x8002888] = 0x200000cc
        0x08002838:    2000        .       MOVS     r0,#0
        0x0800283a:    2401        .$      MOVS     r4,#1
        0x0800283c:    7028        (p      STRB     r0,[r5,#0]
        0x0800283e:    2002        .       MOVS     r0,#2
        0x08002840:    7068        hp      STRB     r0,[r5,#1]
        0x08002842:    f7fdff93    ....    BL       DisableOutput ; 0x800076c
        0x08002846:    f7fefee7    ....    BL       InitFocParas ; 0x8001618
        0x0800284a:    4810        .H      LDR      r0,[pc,#64] ; [0x800288c] = 0x40022000
        0x0800284c:    6941        Ai      LDR      r1,[r0,#0x14]
        0x0800284e:    f36f010e    o...    BFC      r1,#0,#15
        0x08002852:    6141        Aa      STR      r1,[r0,#0x14]
        0x08002854:    6981        .i      LDR      r1,[r0,#0x18]
        0x08002856:    f36f010e    o...    BFC      r1,#0,#15
        0x0800285a:    3160        `1      ADDS     r1,r1,#0x60
        0x0800285c:    6181        .a      STR      r1,[r0,#0x18]
        0x0800285e:    69c1        .i      LDR      r1,[r0,#0x1c]
        0x08002860:    f36f010e    o...    BFC      r1,#0,#15
        0x08002864:    3160        `1      ADDS     r1,r1,#0x60
        0x08002866:    61c1        .a      STR      r1,[r0,#0x1c]
        0x08002868:    6a01        .j      LDR      r1,[r0,#0x20]
        0x0800286a:    f36f010e    o...    BFC      r1,#0,#15
        0x0800286e:    f50171c8    ...q    ADD      r1,r1,#0x190
        0x08002872:    6201        .b      STR      r1,[r0,#0x20]
        0x08002874:    2000        .       MOVS     r0,#0
        0x08002876:    1c40        @.      ADDS     r0,r0,#1
        0x08002878:    b2c0        ..      UXTB     r0,r0
        0x0800287a:    2808        .(      CMP      r0,#8
        0x0800287c:    d3fb        ..      BCC      0x8002876 ; StateInit + 66
        0x0800287e:    2c00        .,      CMP      r4,#0
        0x08002880:    d001        ..      BEQ      0x8002886 ; StateInit + 82
        0x08002882:    2003        .       MOVS     r0,#3
        0x08002884:    7068        hp      STRB     r0,[r5,#1]
        0x08002886:    bd70        p.      POP      {r4-r6,pc}
    $d
        0x08002888:    200000cc    ...     DCD    536871116
        0x0800288c:    40022000    . .@    DCD    1073881088
    $t
    i.StateReady
    StateReady
        0x08002890:    4802        .H      LDR      r0,[pc,#8] ; [0x800289c] = 0x200000cc
        0x08002892:    2102        .!      MOVS     r1,#2
        0x08002894:    7001        .p      STRB     r1,[r0,#0]
        0x08002896:    2105        .!      MOVS     r1,#5
        0x08002898:    7041        Ap      STRB     r1,[r0,#1]
        0x0800289a:    4770        pG      BX       lr
    $d
        0x0800289c:    200000cc    ...     DCD    536871116
    $t
    i.StateReset
    StateReset
        0x080028a0:    4a10        .J      LDR      r2,[pc,#64] ; [0x80028e4] = 0x200000cc
        0x080028a2:    b500        ..      PUSH     {lr}
        0x080028a4:    2006        .       MOVS     r0,#6
        0x080028a6:    7010        .p      STRB     r0,[r2,#0]
        0x080028a8:    200c        .       MOVS     r0,#0xc
        0x080028aa:    7050        Pp      STRB     r0,[r2,#1]
        0x080028ac:    f7fdff5e    ..^.    BL       DisableOutput ; 0x800076c
        0x080028b0:    480d        .H      LDR      r0,[pc,#52] ; [0x80028e8] = 0x40022000
        0x080028b2:    6941        Ai      LDR      r1,[r0,#0x14]
        0x080028b4:    f36f010e    o...    BFC      r1,#0,#15
        0x080028b8:    3164        d1      ADDS     r1,r1,#0x64
        0x080028ba:    6141        Aa      STR      r1,[r0,#0x14]
        0x080028bc:    6981        .i      LDR      r1,[r0,#0x18]
        0x080028be:    f36f010e    o...    BFC      r1,#0,#15
        0x080028c2:    31c8        .1      ADDS     r1,r1,#0xc8
        0x080028c4:    6181        .a      STR      r1,[r0,#0x18]
        0x080028c6:    69c1        .i      LDR      r1,[r0,#0x1c]
        0x080028c8:    f36f010e    o...    BFC      r1,#0,#15
        0x080028cc:    f5017196    ...q    ADD      r1,r1,#0x12c
        0x080028d0:    61c1        .a      STR      r1,[r0,#0x1c]
        0x080028d2:    6a01        .j      LDR      r1,[r0,#0x20]
        0x080028d4:    f36f010e    o...    BFC      r1,#0,#15
        0x080028d8:    f50171c8    ...q    ADD      r1,r1,#0x190
        0x080028dc:    6201        .b      STR      r1,[r0,#0x20]
        0x080028de:    200d        .       MOVS     r0,#0xd
        0x080028e0:    7050        Pp      STRB     r0,[r2,#1]
        0x080028e2:    bd00        ..      POP      {pc}
    $d
        0x080028e4:    200000cc    ...     DCD    536871116
        0x080028e8:    40022000    . .@    DCD    1073881088
    $t
    i.StateRun
    StateRun
        0x080028ec:    b5f8        ..      PUSH     {r3-r7,lr}
        0x080028ee:    4c35        5L      LDR      r4,[pc,#212] ; [0x80029c4] = 0x200000cc
        0x080028f0:    2005        .       MOVS     r0,#5
        0x080028f2:    4d35        5M      LDR      r5,[pc,#212] ; [0x80029c8] = 0x20000010
        0x080028f4:    7020         p      STRB     r0,[r4,#0]
        0x080028f6:    200a        .       MOVS     r0,#0xa
        0x080028f8:    7060        `p      STRB     r0,[r4,#1]
        0x080028fa:    2600        .&      MOVS     r6,#0
        0x080028fc:    702e        .p      STRB     r6,[r5,#0]
        0x080028fe:    f9b41094    ....    LDRSH    r1,[r4,#0x94]
        0x08002902:    f10400ac    ....    ADD      r0,r4,#0xac
        0x08002906:    f7fdff01    ....    BL       CalcOpenLoop ; 0x800070c
        0x0800290a:    f10400d4    ....    ADD      r0,r4,#0xd4
        0x0800290e:    f1a00392    ....    SUB      r3,r0,#0x92
        0x08002912:    f1a002a6    ....    SUB      r2,r0,#0xa6
        0x08002916:    f1a00110    ....    SUB      r1,r0,#0x10
        0x0800291a:    9000        ..      STR      r0,[sp,#0]
        0x0800291c:    380e        .8      SUBS     r0,r0,#0xe
        0x0800291e:    f7fdfc61    ..a.    BL       AMC_PMSMBemfObsvrDQ_F16 ; 0x80001e4
        0x08002922:    f7fdfd53    ..S.    BL       AutomaticMode ; 0x80003cc
        0x08002926:    f8940144    ..D.    LDRB     r0,[r4,#0x144]
        0x0800292a:    b1d0        ..      CBZ      r0,0x8002962 ; StateRun + 118
        0x0800292c:    2801        .(      CMP      r0,#1
        0x0800292e:    d018        ..      BEQ      0x8002962 ; StateRun + 118
        0x08002930:    2802        .(      CMP      r0,#2
        0x08002932:    d02a        *.      BEQ      0x800298a ; StateRun + 158
        0x08002934:    2002        .       MOVS     r0,#2
        0x08002936:    f8840144    ..D.    STRB     r0,[r4,#0x144]
        0x0800293a:    f8b40098    ....    LDRH     r0,[r4,#0x98]
        0x0800293e:    4923        #I      LDR      r1,[pc,#140] ; [0x80029cc] = 0x8002f34
        0x08002940:    1c40        @.      ADDS     r0,r0,#1
        0x08002942:    b200        ..      SXTH     r0,r0
        0x08002944:    f8a40098    ....    STRH     r0,[r4,#0x98]
        0x08002948:    f8b11046    ..F.    LDRH     r1,[r1,#0x46]
        0x0800294c:    4288        .B      CMP      r0,r1
        0x0800294e:    db04        ..      BLT      0x800295a ; StateRun + 110
        0x08002950:    f8a46098    ...`    STRH     r6,[r4,#0x98]
        0x08002954:    f7fefb30    ..0.    BL       FocSlowLoop ; 0x8000fb8
        0x08002958:    7028        (p      STRB     r0,[r5,#0]
        0x0800295a:    f7fefac3    ....    BL       FocFastLoop ; 0x8000ee4
        0x0800295e:    7028        (p      STRB     r0,[r5,#0]
        0x08002960:    bdf8        ..      POP      {r3-r7,pc}
        0x08002962:    f8b400b0    ....    LDRH     r0,[r4,#0xb0]
        0x08002966:    f8a4007a    ..z.    STRH     r0,[r4,#0x7a]
        0x0800296a:    4240        @B      RSBS     r0,r0,#0
        0x0800296c:    f8a40078    ..x.    STRH     r0,[r4,#0x78]
        0x08002970:    f8b400ac    ....    LDRH     r0,[r4,#0xac]
        0x08002974:    f8a4008c    ....    STRH     r0,[r4,#0x8c]
        0x08002978:    f8a4608e    ...`    STRH     r6,[r4,#0x8e]
        0x0800297c:    68e8        .h      LDR      r0,[r5,#0xc]
        0x0800297e:    f8a40086    ....    STRH     r0,[r4,#0x86]
        0x08002982:    68e8        .h      LDR      r0,[r5,#0xc]
        0x08002984:    f8a40088    ....    STRH     r0,[r4,#0x88]
        0x08002988:    e7d7        ..      B        0x800293a ; StateRun + 78
        0x0800298a:    6928        (i      LDR      r0,[r5,#0x10]
        0x0800298c:    f8a40086    ....    STRH     r0,[r4,#0x86]
        0x08002990:    6968        hi      LDR      r0,[r5,#0x14]
        0x08002992:    f8a40088    ....    STRH     r0,[r4,#0x88]
        0x08002996:    f8b400ce    ....    LDRH     r0,[r4,#0xce]
        0x0800299a:    f8a4007a    ..z.    STRH     r0,[r4,#0x7a]
        0x0800299e:    4240        @B      RSBS     r0,r0,#0
        0x080029a0:    f8a40078    ..x.    STRH     r0,[r4,#0x78]
        0x080029a4:    f9b400d6    ....    LDRSH    r0,[r4,#0xd6]
        0x080029a8:    2800        .(      CMP      r0,#0
        0x080029aa:    f8b400c4    ....    LDRH     r0,[r4,#0xc4]
        0x080029ae:    dd02        ..      BLE      0x80029b6 ; StateRun + 202
        0x080029b0:    f64771ff    G..q    MOV      r1,#0x7fff
        0x080029b4:    4408        .D      ADD      r0,r0,r1
        0x080029b6:    f8a4008c    ....    STRH     r0,[r4,#0x8c]
        0x080029ba:    f8b400c6    ....    LDRH     r0,[r4,#0xc6]
        0x080029be:    f8a4008e    ....    STRH     r0,[r4,#0x8e]
        0x080029c2:    e7ba        ..      B        0x800293a ; StateRun + 78
    $d
        0x080029c4:    200000cc    ...     DCD    536871116
        0x080029c8:    20000010    ...     DCD    536870928
        0x080029cc:    08002f34    4/..    DCD    134229812
    $t
    i.Svm1rpsTrig
    Svm1rpsTrig
        0x080029d0:    e92d4ff0    -..O    PUSH     {r4-r11,lr}
        0x080029d4:    4604        .F      MOV      r4,r0
        0x080029d6:    f04f0b00    O...    MOV      r11,#0
        0x080029da:    f8a4b038    ..8.    STRH     r11,[r4,#0x38]
        0x080029de:    4d78        xM      LDR      r5,[pc,#480] ; [0x8002bc0] = 0x20000012
        0x080029e0:    f8a4b03a    ..:.    STRH     r11,[r4,#0x3a]
        0x080029e4:    f8a0b03c    ..<.    STRH     r11,[r0,#0x3c]
        0x080029e8:    8828        (.      LDRH     r0,[r5,#0]
        0x080029ea:    f8a40066    ..f.    STRH     r0,[r4,#0x66]
        0x080029ee:    f8a40068    ..h.    STRH     r0,[r4,#0x68]
        0x080029f2:    f8b40046    ..F.    LDRH     r0,[r4,#0x46]
        0x080029f6:    f8a40048    ..H.    STRH     r0,[r4,#0x48]
        0x080029fa:    68a0        .h      LDR      r0,[r4,#8]
        0x080029fc:    6220         b      STR      r0,[r4,#0x20]
        0x080029fe:    6920         i      LDR      r0,[r4,#0x10]
        0x08002a00:    62a0        .b      STR      r0,[r4,#0x28]
        0x08002a02:    69a0        .i      LDR      r0,[r4,#0x18]
        0x08002a04:    6320         c      STR      r0,[r4,#0x30]
        0x08002a06:    2001        .       MOVS     r0,#1
        0x08002a08:    60a0        .`      STR      r0,[r4,#8]
        0x08002a0a:    2002        .       MOVS     r0,#2
        0x08002a0c:    6120         a      STR      r0,[r4,#0x10]
        0x08002a0e:    2003        .       MOVS     r0,#3
        0x08002a10:    61a0        .a      STR      r0,[r4,#0x18]
        0x08002a12:    f9b4006a    ..j.    LDRSH    r0,[r4,#0x6a]
        0x08002a16:    60e0        .`      STR      r0,[r4,#0xc]
        0x08002a18:    f9b4006c    ..l.    LDRSH    r0,[r4,#0x6c]
        0x08002a1c:    6160        `a      STR      r0,[r4,#0x14]
        0x08002a1e:    f9b4006e    ..n.    LDRSH    r0,[r4,#0x6e]
        0x08002a22:    61e0        .a      STR      r0,[r4,#0x1c]
        0x08002a24:    f1040008    ....    ADD      r0,r4,#8
        0x08002a28:    f7fdfe34    ..4.    BL       BubbleSortForCurrent ; 0x8000694
        0x08002a2c:    e9d46102    ...a    LDRD     r6,r1,[r4,#8]
        0x08002a30:    e9d40305    ....    LDRD     r0,r3,[r4,#0x14]
        0x08002a34:    69e2        .i      LDR      r2,[r4,#0x1c]
        0x08002a36:    4689        .F      MOV      r9,r1
        0x08002a38:    1a11        ..      SUBS     r1,r2,r0
        0x08002a3a:    fa1ffa81    ....    UXTH     r10,r1
        0x08002a3e:    eba00109    ....    SUB      r1,r0,r9
        0x08002a42:    b28f        ..      UXTH     r7,r1
        0x08002a44:    f9b4104a    ..J.    LDRSH    r1,[r4,#0x4a]
        0x08002a48:    882d        -.      LDRH     r5,[r5,#0]
        0x08002a4a:    eb000861    ..a.    ADD      r8,r0,r1,ASR #1
        0x08002a4e:    f8d4c010    ....    LDR      r12,[r4,#0x10]
        0x08002a52:    45a8        .E      CMP      r8,r5
        0x08002a54:    dd09        ..      BLE      0x8002a6a ; Svm1rpsTrig + 154
        0x08002a56:    2003        .       MOVS     r0,#3
        0x08002a58:    f8a40066    ..f.    STRH     r0,[r4,#0x66]
        0x08002a5c:    f8b4004e    ..N.    LDRH     r0,[r4,#0x4e]
        0x08002a60:    4408        .D      ADD      r0,r0,r1
        0x08002a62:    f8a40068    ..h.    STRH     r0,[r4,#0x68]
        0x08002a66:    2002        .       MOVS     r0,#2
        0x08002a68:    e035        5.      B        0x8002ad6 ; Svm1rpsTrig + 262
        0x08002a6a:    eb010800    ....    ADD      r8,r1,r0
        0x08002a6e:    45a8        .E      CMP      r8,r5
        0x08002a70:    dd25        %.      BLE      0x8002abe ; Svm1rpsTrig + 238
        0x08002a72:    1a28        (.      SUBS     r0,r5,r0
        0x08002a74:    1aaa        ..      SUBS     r2,r5,r2
        0x08002a76:    1a40        @.      SUBS     r0,r0,r1
        0x08002a78:    b212        ..      SXTH     r2,r2
        0x08002a7a:    b200        ..      SXTH     r0,r0
        0x08002a7c:    2b01        .+      CMP      r3,#1
        0x08002a7e:    d004        ..      BEQ      0x8002a8a ; Svm1rpsTrig + 186
        0x08002a80:    2b02        .+      CMP      r3,#2
        0x08002a82:    d004        ..      BEQ      0x8002a8e ; Svm1rpsTrig + 190
        0x08002a84:    2b03        .+      CMP      r3,#3
        0x08002a86:    d105        ..      BNE      0x8002a94 ; Svm1rpsTrig + 196
        0x08002a88:    e003        ..      B        0x8002a92 ; Svm1rpsTrig + 194
        0x08002a8a:    8722        ".      STRH     r2,[r4,#0x38]
        0x08002a8c:    e002        ..      B        0x8002a94 ; Svm1rpsTrig + 196
        0x08002a8e:    8762        b.      STRH     r2,[r4,#0x3a]
        0x08002a90:    e000        ..      B        0x8002a94 ; Svm1rpsTrig + 196
        0x08002a92:    87a2        ..      STRH     r2,[r4,#0x3c]
        0x08002a94:    f1bc0f01    ....    CMP      r12,#1
        0x08002a98:    d006        ..      BEQ      0x8002aa8 ; Svm1rpsTrig + 216
        0x08002a9a:    f1bc0f02    ....    CMP      r12,#2
        0x08002a9e:    d005        ..      BEQ      0x8002aac ; Svm1rpsTrig + 220
        0x08002aa0:    f1bc0f03    ....    CMP      r12,#3
        0x08002aa4:    d105        ..      BNE      0x8002ab2 ; Svm1rpsTrig + 226
        0x08002aa6:    e003        ..      B        0x8002ab0 ; Svm1rpsTrig + 224
        0x08002aa8:    8720         .      STRH     r0,[r4,#0x38]
        0x08002aaa:    e002        ..      B        0x8002ab2 ; Svm1rpsTrig + 226
        0x08002aac:    8760        `.      STRH     r0,[r4,#0x3a]
        0x08002aae:    e000        ..      B        0x8002ab2 ; Svm1rpsTrig + 226
        0x08002ab0:    87a0        ..      STRH     r0,[r4,#0x3c]
        0x08002ab2:    f8b4004e    ..N.    LDRH     r0,[r4,#0x4e]
        0x08002ab6:    f8a40066    ..f.    STRH     r0,[r4,#0x66]
        0x08002aba:    4408        .D      ADD      r0,r0,r1
        0x08002abc:    e039        9.      B        0x8002b32 ; Svm1rpsTrig + 354
        0x08002abe:    ebb00f61    ..a.    CMP      r0,r1,ASR #1
        0x08002ac2:    da0b        ..      BGE      0x8002adc ; Svm1rpsTrig + 268
        0x08002ac4:    f8b4104e    ..N.    LDRH     r1,[r4,#0x4e]
        0x08002ac8:    1aa8        ..      SUBS     r0,r5,r2
        0x08002aca:    4408        .D      ADD      r0,r0,r1
        0x08002acc:    f8a40066    ..f.    STRH     r0,[r4,#0x66]
        0x08002ad0:    f8a45068    ..hP    STRH     r5,[r4,#0x68]
        0x08002ad4:    2001        .       MOVS     r0,#1
        0x08002ad6:    f8a40046    ..F.    STRH     r0,[r4,#0x46]
        0x08002ada:    e02e        ..      B        0x8002b3a ; Svm1rpsTrig + 362
        0x08002adc:    4281        .B      CMP      r1,r0
        0x08002ade:    dd3b        ;.      BLE      0x8002b58 ; Svm1rpsTrig + 392
        0x08002ae0:    1a08        ..      SUBS     r0,r1,r0
        0x08002ae2:    f1c90300    ....    RSB      r3,r9,#0
        0x08002ae6:    b21b        ..      SXTH     r3,r3
        0x08002ae8:    b200        ..      SXTH     r0,r0
        0x08002aea:    f1bc0f01    ....    CMP      r12,#1
        0x08002aee:    d006        ..      BEQ      0x8002afe ; Svm1rpsTrig + 302
        0x08002af0:    f1bc0f02    ....    CMP      r12,#2
        0x08002af4:    d005        ..      BEQ      0x8002b02 ; Svm1rpsTrig + 306
        0x08002af6:    f1bc0f03    ....    CMP      r12,#3
        0x08002afa:    d105        ..      BNE      0x8002b08 ; Svm1rpsTrig + 312
        0x08002afc:    e003        ..      B        0x8002b06 ; Svm1rpsTrig + 310
        0x08002afe:    8720         .      STRH     r0,[r4,#0x38]
        0x08002b00:    e002        ..      B        0x8002b08 ; Svm1rpsTrig + 312
        0x08002b02:    8760        `.      STRH     r0,[r4,#0x3a]
        0x08002b04:    e000        ..      B        0x8002b08 ; Svm1rpsTrig + 312
        0x08002b06:    87a0        ..      STRH     r0,[r4,#0x3c]
        0x08002b08:    2e01        ..      CMP      r6,#1
        0x08002b0a:    d004        ..      BEQ      0x8002b16 ; Svm1rpsTrig + 326
        0x08002b0c:    2e02        ..      CMP      r6,#2
        0x08002b0e:    d004        ..      BEQ      0x8002b1a ; Svm1rpsTrig + 330
        0x08002b10:    2e03        ..      CMP      r6,#3
        0x08002b12:    d105        ..      BNE      0x8002b20 ; Svm1rpsTrig + 336
        0x08002b14:    e003        ..      B        0x8002b1e ; Svm1rpsTrig + 334
        0x08002b16:    8723        #.      STRH     r3,[r4,#0x38]
        0x08002b18:    e002        ..      B        0x8002b20 ; Svm1rpsTrig + 336
        0x08002b1a:    8763        c.      STRH     r3,[r4,#0x3a]
        0x08002b1c:    e000        ..      B        0x8002b20 ; Svm1rpsTrig + 336
        0x08002b1e:    87a3        ..      STRH     r3,[r4,#0x3c]
        0x08002b20:    f8b4104e    ..N.    LDRH     r1,[r4,#0x4e]
        0x08002b24:    1aa8        ..      SUBS     r0,r5,r2
        0x08002b26:    4408        .D      ADD      r0,r0,r1
        0x08002b28:    f8a40066    ..f.    STRH     r0,[r4,#0x66]
        0x08002b2c:    f8b4004c    ..L.    LDRH     r0,[r4,#0x4c]
        0x08002b30:    1a28        (.      SUBS     r0,r5,r0
        0x08002b32:    f8a40068    ..h.    STRH     r0,[r4,#0x68]
        0x08002b36:    f8a4b046    ..F.    STRH     r11,[r4,#0x46]
        0x08002b3a:    f8b41066    ..f.    LDRH     r1,[r4,#0x66]
        0x08002b3e:    f8340f50    4.P.    LDRH     r0,[r4,#0x50]!
        0x08002b42:    4401        .D      ADD      r1,r1,r0
        0x08002b44:    82e1        ..      STRH     r1,[r4,#0x16]
        0x08002b46:    8b21        !.      LDRH     r1,[r4,#0x18]
        0x08002b48:    4408        .D      ADD      r0,r0,r1
        0x08002b4a:    8320         .      STRH     r0,[r4,#0x18]
        0x08002b4c:    b281        ..      UXTH     r1,r0
        0x08002b4e:    8ae0        ..      LDRH     r0,[r4,#0x16]
        0x08002b50:    e8bd4ff0    ...O    POP      {r4-r11,lr}
        0x08002b54:    f7ffbc2e    ....    B.W      MotorPWM_OneShuntSetTriggerPoint ; 0x80023b4
        0x08002b58:    4551        QE      CMP      r1,r10
        0x08002b5a:    dd22        ".      BLE      0x8002ba2 ; Svm1rpsTrig + 466
        0x08002b5c:    eba1010a    ....    SUB      r1,r1,r10
        0x08002b60:    b209        ..      SXTH     r1,r1
        0x08002b62:    2b01        .+      CMP      r3,#1
        0x08002b64:    d004        ..      BEQ      0x8002b70 ; Svm1rpsTrig + 416
        0x08002b66:    2b02        .+      CMP      r3,#2
        0x08002b68:    d004        ..      BEQ      0x8002b74 ; Svm1rpsTrig + 420
        0x08002b6a:    2b03        .+      CMP      r3,#3
        0x08002b6c:    d004        ..      BEQ      0x8002b78 ; Svm1rpsTrig + 424
        0x08002b6e:    e004        ..      B        0x8002b7a ; Svm1rpsTrig + 426
        0x08002b70:    8721        !.      STRH     r1,[r4,#0x38]
        0x08002b72:    e002        ..      B        0x8002b7a ; Svm1rpsTrig + 426
        0x08002b74:    8761        a.      STRH     r1,[r4,#0x3a]
        0x08002b76:    e000        ..      B        0x8002b7a ; Svm1rpsTrig + 426
        0x08002b78:    87a1        ..      STRH     r1,[r4,#0x3c]
        0x08002b7a:    f8b4304e    ..N0    LDRH     r3,[r4,#0x4e]
        0x08002b7e:    1aaa        ..      SUBS     r2,r5,r2
        0x08002b80:    441a        .D      ADD      r2,r2,r3
        0x08002b82:    1a51        Q.      SUBS     r1,r2,r1
        0x08002b84:    f8a41066    ..f.    STRH     r1,[r4,#0x66]
        0x08002b88:    f9b41052    ..R.    LDRSH    r1,[r4,#0x52]
        0x08002b8c:    42b9        .B      CMP      r1,r7
        0x08002b8e:    dd12        ..      BLE      0x8002bb6 ; Svm1rpsTrig + 486
        0x08002b90:    1a79        y.      SUBS     r1,r7,r1
        0x08002b92:    b209        ..      SXTH     r1,r1
        0x08002b94:    2e01        ..      CMP      r6,#1
        0x08002b96:    d009        ..      BEQ      0x8002bac ; Svm1rpsTrig + 476
        0x08002b98:    2e02        ..      CMP      r6,#2
        0x08002b9a:    d009        ..      BEQ      0x8002bb0 ; Svm1rpsTrig + 480
        0x08002b9c:    2e03        ..      CMP      r6,#3
        0x08002b9e:    d009        ..      BEQ      0x8002bb4 ; Svm1rpsTrig + 484
        0x08002ba0:    e009        ..      B        0x8002bb6 ; Svm1rpsTrig + 486
        0x08002ba2:    1aa9        ..      SUBS     r1,r5,r2
        0x08002ba4:    f8b4204e    ..N     LDRH     r2,[r4,#0x4e]
        0x08002ba8:    4411        .D      ADD      r1,r1,r2
        0x08002baa:    e7eb        ..      B        0x8002b84 ; Svm1rpsTrig + 436
        0x08002bac:    8721        !.      STRH     r1,[r4,#0x38]
        0x08002bae:    e002        ..      B        0x8002bb6 ; Svm1rpsTrig + 486
        0x08002bb0:    8761        a.      STRH     r1,[r4,#0x3a]
        0x08002bb2:    e000        ..      B        0x8002bb6 ; Svm1rpsTrig + 486
        0x08002bb4:    87a1        ..      STRH     r1,[r4,#0x3c]
        0x08002bb6:    f8b41054    ..T.    LDRH     r1,[r4,#0x54]
        0x08002bba:    1a28        (.      SUBS     r0,r5,r0
        0x08002bbc:    4408        .D      ADD      r0,r0,r1
        0x08002bbe:    e7b8        ..      B        0x8002b32 ; Svm1rpsTrig + 354
    $d
        0x08002bc0:    20000012    ...     DCD    536870930
    $t
    i.SysTickHandler
    SysTickHandler
        0x08002bc4:    f04f21e0    O..!    MOV      r1,#0xe000e000
        0x08002bc8:    2000        .       MOVS     r0,#0
        0x08002bca:    6108        .a      STR      r0,[r1,#0x10]
        0x08002bcc:    4802        .H      LDR      r0,[pc,#8] ; [0x8002bd8] = 0xe000ed04
        0x08002bce:    6801        .h      LDR      r1,[r0,#0]
        0x08002bd0:    f0417100    A..q    ORR      r1,r1,#0x2000000
        0x08002bd4:    6001        .`      STR      r1,[r0,#0]
        0x08002bd6:    4770        pG      BX       lr
    $d
        0x08002bd8:    e000ed04    ....    DCD    3758157060
    $t
    i.SysTick_Handler
    SysTick_Handler
        0x08002bdc:    490a        .I      LDR      r1,[pc,#40] ; [0x8002c08] = 0x20000000
        0x08002bde:    6848        Hh      LDR      r0,[r1,#4]
        0x08002be0:    b110        ..      CBZ      r0,0x8002be8 ; SysTick_Handler + 12
        0x08002be2:    6848        Hh      LDR      r0,[r1,#4]
        0x08002be4:    1e40        @.      SUBS     r0,r0,#1
        0x08002be6:    6048        H`      STR      r0,[r1,#4]
        0x08002be8:    6888        .h      LDR      r0,[r1,#8]
        0x08002bea:    b110        ..      CBZ      r0,0x8002bf2 ; SysTick_Handler + 22
        0x08002bec:    6888        .h      LDR      r0,[r1,#8]
        0x08002bee:    1e40        @.      SUBS     r0,r0,#1
        0x08002bf0:    6088        .`      STR      r0,[r1,#8]
        0x08002bf2:    7808        .x      LDRB     r0,[r1,#0]
        0x08002bf4:    1c40        @.      ADDS     r0,r0,#1
        0x08002bf6:    b2c0        ..      UXTB     r0,r0
        0x08002bf8:    7008        .p      STRB     r0,[r1,#0]
        0x08002bfa:    280a        .(      CMP      r0,#0xa
        0x08002bfc:    d303        ..      BCC      0x8002c06 ; SysTick_Handler + 42
        0x08002bfe:    2000        .       MOVS     r0,#0
        0x08002c00:    7008        .p      STRB     r0,[r1,#0]
        0x08002c02:    f7ffb957    ..W.    B        LIN_TpLayerNCrTimeoutScheduler ; 0x8001eb4
        0x08002c06:    4770        pG      BX       lr
    $d
        0x08002c08:    20000000    ...     DCD    536870912
    $t
    i.SystemInit
    SystemInit
        0x08002c0c:    4902        .I      LDR      r1,[pc,#8] ; [0x8002c18] = 0x2000000c
        0x08002c0e:    4801        .H      LDR      r0,[pc,#4] ; [0x8002c14] = 0x2dc6c00
        0x08002c10:    6008        .`      STR      r0,[r1,#0]
        0x08002c12:    4770        pG      BX       lr
    $d
        0x08002c14:    02dc6c00    .l..    DCD    48000000
        0x08002c18:    2000000c    ...     DCD    536870924
    $t
    i.UpdateLinATCPStatus
    UpdateLinATCPStatus
        0x08002c1c:    e92d41f0    -..A    PUSH     {r4-r8,lr}
        0x08002c20:    4f15        .O      LDR      r7,[pc,#84] ; [0x8002c78] = 0x8002f34
        0x08002c22:    68b8        .h      LDR      r0,[r7,#8]
        0x08002c24:    f7fdfa9b    ....    BL       __aeabi_f2iz ; 0x800015e
        0x08002c28:    4d14        .M      LDR      r5,[pc,#80] ; [0x8002c7c] = 0x200000cc
        0x08002c2a:    b200        ..      SXTH     r0,r0
        0x08002c2c:    f64776ff    G..v    MOV      r6,#0x7fff
        0x08002c30:    f9b5108e    ....    LDRSH    r1,[r5,#0x8e]
        0x08002c34:    4c12        .L      LDR      r4,[pc,#72] ; [0x8002c80] = 0x20000030
        0x08002c36:    4348        HC      MULS     r0,r1,r0
        0x08002c38:    fb90f0f6    ....    SDIV     r0,r0,r6
        0x08002c3c:    8020         .      STRH     r0,[r4,#0]
        0x08002c3e:    8c68        h.      LDRH     r0,[r5,#0x22]
        0x08002c40:    8060        `.      STRH     r0,[r4,#2]
        0x08002c42:    4810        .H      LDR      r0,[pc,#64] ; [0x8002c84] = 0x20000038
        0x08002c44:    6800        .h      LDR      r0,[r0,#0]
        0x08002c46:    0c00        ..      LSRS     r0,r0,#16
        0x08002c48:    7120         q      STRB     r0,[r4,#4]
        0x08002c4a:    6878        xh      LDR      r0,[r7,#4]
        0x08002c4c:    f7fdfa87    ....    BL       __aeabi_f2iz ; 0x800015e
        0x08002c50:    b200        ..      SXTH     r0,r0
        0x08002c52:    eb000080    ....    ADD      r0,r0,r0,LSL #2
        0x08002c56:    f9b5101e    ....    LDRSH    r1,[r5,#0x1e]
        0x08002c5a:    0040        @.      LSLS     r0,r0,#1
        0x08002c5c:    4348        HC      MULS     r0,r1,r0
        0x08002c5e:    fb90f0f6    ....    SDIV     r0,r0,r6
        0x08002c62:    7160        `q      STRB     r0,[r4,#5]
        0x08002c64:    2000        .       MOVS     r0,#0
        0x08002c66:    80e0        ..      STRH     r0,[r4,#6]
        0x08002c68:    4807        .H      LDR      r0,[pc,#28] ; [0x8002c88] = 0x800313c
        0x08002c6a:    6841        Ah      LDR      r1,[r0,#4]
        0x08002c6c:    4620         F      MOV      r0,r4
        0x08002c6e:    e8bd41f0    ...A    POP      {r4-r8,lr}
        0x08002c72:    f000b84c    ..L.    B.W      l_atcp_struct_trans_data_buffer ; 0x8002d0e
    $d
        0x08002c76:    0000        ..      DCW    0
        0x08002c78:    08002f34    4/..    DCD    134229812
        0x08002c7c:    200000cc    ...     DCD    536871116
        0x08002c80:    20000030    0..     DCD    536870960
        0x08002c84:    20000038    8..     DCD    536870968
        0x08002c88:    0800313c    <1..    DCD    134230332
    $t
    i.UsageFaultHandler
    UsageFaultHandler
        0x08002c8c:    4770        pG      BX       lr
        0x08002c8e:    0000        ..      MOVS     r0,r0
    i.WriteResponseError
    WriteResponseError
        0x08002c90:    4a05        .J      LDR      r2,[pc,#20] ; [0x8002ca8] = 0x800313c
        0x08002c92:    6851        Qh      LDR      r1,[r2,#4]
        0x08002c94:    79c9        .y      LDRB     r1,[r1,#7]
        0x08002c96:    b110        ..      CBZ      r0,0x8002c9e ; WriteResponseError + 14
        0x08002c98:    f0410001    A...    ORR      r0,r1,#1
        0x08002c9c:    e001        ..      B        0x8002ca2 ; WriteResponseError + 18
        0x08002c9e:    f0210001    !...    BIC      r0,r1,#1
        0x08002ca2:    6851        Qh      LDR      r1,[r2,#4]
        0x08002ca4:    71c8        .q      STRB     r0,[r1,#7]
        0x08002ca6:    4770        pG      BX       lr
    $d
        0x08002ca8:    0800313c    <1..    DCD    134230332
    $t
    i.__scatterload_copy
    __scatterload_copy
        0x08002cac:    e002        ..      B        0x8002cb4 ; __scatterload_copy + 8
        0x08002cae:    c808        ..      LDM      r0!,{r3}
        0x08002cb0:    1f12        ..      SUBS     r2,r2,#4
        0x08002cb2:    c108        ..      STM      r1!,{r3}
        0x08002cb4:    2a00        .*      CMP      r2,#0
        0x08002cb6:    d1fa        ..      BNE      0x8002cae ; __scatterload_copy + 2
        0x08002cb8:    4770        pG      BX       lr
    i.__scatterload_null
    __scatterload_null
        0x08002cba:    4770        pG      BX       lr
    i.__scatterload_zeroinit
    __scatterload_zeroinit
        0x08002cbc:    2000        .       MOVS     r0,#0
        0x08002cbe:    e001        ..      B        0x8002cc4 ; __scatterload_zeroinit + 8
        0x08002cc0:    c101        ..      STM      r1!,{r0}
        0x08002cc2:    1f12        ..      SUBS     r2,r2,#4
        0x08002cc4:    2a00        .*      CMP      r2,#0
        0x08002cc6:    d1fb        ..      BNE      0x8002cc0 ; __scatterload_zeroinit + 4
        0x08002cc8:    4770        pG      BX       lr
    i.delay_ms
    delay_ms
        0x08002cca:    b570        p.      PUSH     {r4-r6,lr}
        0x08002ccc:    4605        .F      MOV      r5,r0
        0x08002cce:    2400        .$      MOVS     r4,#0
        0x08002cd0:    f44f767a    O.zv    MOV      r6,#0x3e8
        0x08002cd4:    e003        ..      B        0x8002cde ; delay_ms + 20
        0x08002cd6:    4630        0F      MOV      r0,r6
        0x08002cd8:    f000f804    ....    BL       delay_us ; 0x8002ce4
        0x08002cdc:    1c64        d.      ADDS     r4,r4,#1
        0x08002cde:    42ac        .B      CMP      r4,r5
        0x08002ce0:    d3f9        ..      BCC      0x8002cd6 ; delay_ms + 12
        0x08002ce2:    bd70        p.      POP      {r4-r6,pc}
    i.delay_us
    delay_us
        0x08002ce4:    f04f22e0    O.."    MOV      r2,#0xe000e000
        0x08002ce8:    212f        /!      MOVS     r1,#0x2f
        0x08002cea:    6151        Qa      STR      r1,[r2,#0x14]
        0x08002cec:    2100        .!      MOVS     r1,#0
        0x08002cee:    6191        .a      STR      r1,[r2,#0x18]
        0x08002cf0:    2105        .!      MOVS     r1,#5
        0x08002cf2:    6111        .a      STR      r1,[r2,#0x10]
        0x08002cf4:    2100        .!      MOVS     r1,#0
        0x08002cf6:    e003        ..      B        0x8002d00 ; delay_us + 28
        0x08002cf8:    6913        .i      LDR      r3,[r2,#0x10]
        0x08002cfa:    03db        ..      LSLS     r3,r3,#15
        0x08002cfc:    d5fc        ..      BPL      0x8002cf8 ; delay_us + 20
        0x08002cfe:    1c49        I.      ADDS     r1,r1,#1
        0x08002d00:    4281        .B      CMP      r1,r0
        0x08002d02:    d3f9        ..      BCC      0x8002cf8 ; delay_us + 20
        0x08002d04:    6910        .i      LDR      r0,[r2,#0x10]
        0x08002d06:    f0200001     ...    BIC      r0,r0,#1
        0x08002d0a:    6110        .a      STR      r0,[r2,#0x10]
        0x08002d0c:    4770        pG      BX       lr
    i.l_atcp_struct_trans_data_buffer
    l_atcp_struct_trans_data_buffer
        0x08002d0e:    b672        r.      CPSID    i
        0x08002d10:    7802        .x      LDRB     r2,[r0,#0]
        0x08002d12:    700a        .p      STRB     r2,[r1,#0]
        0x08002d14:    7842        Bx      LDRB     r2,[r0,#1]
        0x08002d16:    704a        Jp      STRB     r2,[r1,#1]
        0x08002d18:    7882        .x      LDRB     r2,[r0,#2]
        0x08002d1a:    708a        .p      STRB     r2,[r1,#2]
        0x08002d1c:    78c2        .x      LDRB     r2,[r0,#3]
        0x08002d1e:    70ca        .p      STRB     r2,[r1,#3]
        0x08002d20:    7902        .y      LDRB     r2,[r0,#4]
        0x08002d22:    710a        .q      STRB     r2,[r1,#4]
        0x08002d24:    7942        By      LDRB     r2,[r0,#5]
        0x08002d26:    714a        Jq      STRB     r2,[r1,#5]
        0x08002d28:    7982        .y      LDRB     r2,[r0,#6]
        0x08002d2a:    718a        .q      STRB     r2,[r1,#6]
        0x08002d2c:    79c0        .y      LDRB     r0,[r0,#7]
        0x08002d2e:    71c8        .q      STRB     r0,[r1,#7]
        0x08002d30:    b662        b.      CPSIE    i
        0x08002d32:    4770        pG      BX       lr
    i.l_clr_ctrl_update_cmd
    l_clr_ctrl_update_cmd
        0x08002d34:    4901        .I      LDR      r1,[pc,#4] ; [0x8002d3c] = 0x20000028
        0x08002d36:    2000        .       MOVS     r0,#0
        0x08002d38:    7008        .p      STRB     r0,[r1,#0]
        0x08002d3a:    4770        pG      BX       lr
    $d
        0x08002d3c:    20000028    (..     DCD    536870952
    $t
    i.l_data_buffer_trans_atcp_ctrl_struct
    l_data_buffer_trans_atcp_ctrl_struct
        0x08002d40:    7802        .x      LDRB     r2,[r0,#0]
        0x08002d42:    700a        .p      STRB     r2,[r1,#0]
        0x08002d44:    7842        Bx      LDRB     r2,[r0,#1]
        0x08002d46:    704a        Jp      STRB     r2,[r1,#1]
        0x08002d48:    7882        .x      LDRB     r2,[r0,#2]
        0x08002d4a:    708a        .p      STRB     r2,[r1,#2]
        0x08002d4c:    78c0        .x      LDRB     r0,[r0,#3]
        0x08002d4e:    70c8        .p      STRB     r0,[r1,#3]
        0x08002d50:    4770        pG      BX       lr
        0x08002d52:    0000        ..      MOVS     r0,r0
    i.l_flg_set_update_flags
    l_flg_set_update_flags
        0x08002d54:    4904        .I      LDR      r1,[pc,#16] ; [0x8002d68] = 0x2000004c
        0x08002d56:    7800        .x      LDRB     r0,[r0,#0]
        0x08002d58:    7849        Ix      LDRB     r1,[r1,#1]
        0x08002d5a:    4288        .B      CMP      r0,r1
        0x08002d5c:    d102        ..      BNE      0x8002d64 ; l_flg_set_update_flags + 16
        0x08002d5e:    4903        .I      LDR      r1,[pc,#12] ; [0x8002d6c] = 0x20000028
        0x08002d60:    2001        .       MOVS     r0,#1
        0x08002d62:    7008        .p      STRB     r0,[r1,#0]
        0x08002d64:    4770        pG      BX       lr
    $d
        0x08002d66:    0000        ..      DCW    0
        0x08002d68:    2000004c    L..     DCD    536870988
        0x08002d6c:    20000028    (..     DCD    536870952
    $t
    i.l_get_ctrl_update_cmd
    l_get_ctrl_update_cmd
        0x08002d70:    4801        .H      LDR      r0,[pc,#4] ; [0x8002d78] = 0x20000028
        0x08002d72:    7800        .x      LDRB     r0,[r0,#0]
        0x08002d74:    4770        pG      BX       lr
    $d
        0x08002d76:    0000        ..      DCW    0
        0x08002d78:    20000028    (..     DCD    536870952
    $t
    i.l_ifc_connect_MyLinIfc
    l_ifc_connect_MyLinIfc
        0x08002d7c:    4808        .H      LDR      r0,[pc,#32] ; [0x8002da0] = 0x200000c2
        0x08002d7e:    7801        .x      LDRB     r1,[r0,#0]
        0x08002d80:    b159        Y.      CBZ      r1,0x8002d9a ; l_ifc_connect_MyLinIfc + 30
        0x08002d82:    4908        .I      LDR      r1,[pc,#32] ; [0x8002da4] = 0x40003000
        0x08002d84:    680a        .h      LDR      r2,[r1,#0]
        0x08002d86:    f0420210    B...    ORR      r2,r2,#0x10
        0x08002d8a:    600a        .`      STR      r2,[r1,#0]
        0x08002d8c:    1f82        ..      SUBS     r2,r0,#6
        0x08002d8e:    2100        .!      MOVS     r1,#0
        0x08002d90:    8091        ..      STRH     r1,[r2,#4]
        0x08002d92:    2101        .!      MOVS     r1,#1
        0x08002d94:    7041        Ap      STRB     r1,[r0,#1]
        0x08002d96:    2000        .       MOVS     r0,#0
        0x08002d98:    4770        pG      BX       lr
        0x08002d9a:    2001        .       MOVS     r0,#1
        0x08002d9c:    4770        pG      BX       lr
    $d
        0x08002d9e:    0000        ..      DCW    0
        0x08002da0:    200000c2    ...     DCD    536871106
        0x08002da4:    40003000    .0.@    DCD    1073754112
    $t
    i.l_ifc_init_MyLinIfc
    l_ifc_init_MyLinIfc
        0x08002da8:    b510        ..      PUSH     {r4,lr}
        0x08002daa:    f7fefde7    ....    BL       LINUART_Init ; 0x800197c
        0x08002dae:    4902        .I      LDR      r1,[pc,#8] ; [0x8002db8] = 0x200000c2
        0x08002db0:    2002        .       MOVS     r0,#2
        0x08002db2:    7008        .p      STRB     r0,[r1,#0]
        0x08002db4:    bd10        ..      POP      {r4,pc}
    $d
        0x08002db6:    0000        ..      DCW    0
        0x08002db8:    200000c2    ...     DCD    536871106
    $t
    i.l_ifc_rx_MyLinIfc
    l_ifc_rx_MyLinIfc
        0x08002dbc:    e92d47f0    -..G    PUSH     {r4-r10,lr}
        0x08002dc0:    4a43        CJ      LDR      r2,[pc,#268] ; [0x8002ed0] = 0x40003000
        0x08002dc2:    2500        .%      MOVS     r5,#0
        0x08002dc4:    462c        ,F      MOV      r4,r5
        0x08002dc6:    6950        Pi      LDR      r0,[r2,#0x14]
        0x08002dc8:    6951        Qi      LDR      r1,[r2,#0x14]
        0x08002dca:    f3c02000    ...     UBFX     r0,r0,#8,#1
        0x08002dce:    f3c141c0    ...A    UBFX     r1,r1,#19,#1
        0x08002dd2:    4308        .C      ORRS     r0,r0,r1
        0x08002dd4:    6951        Qi      LDR      r1,[r2,#0x14]
        0x08002dd6:    f3c121c0    ...!    UBFX     r1,r1,#11,#1
        0x08002dda:    4308        .C      ORRS     r0,r0,r1
        0x08002ddc:    d002        ..      BEQ      0x8002de4 ; l_ifc_rx_MyLinIfc + 40
        0x08002dde:    483d        =H      LDR      r0,[pc,#244] ; [0x8002ed4] = 0x80900
        0x08002de0:    6150        Pa      STR      r0,[r2,#0x14]
        0x08002de2:    e009        ..      B        0x8002df8 ; l_ifc_rx_MyLinIfc + 60
        0x08002de4:    4e3c        <N      LDR      r6,[pc,#240] ; [0x8002ed8] = 0x200000c2
        0x08002de6:    7870        px      LDRB     r0,[r6,#1]
        0x08002de8:    4f3c        <O      LDR      r7,[pc,#240] ; [0x8002edc] = 0x200003a0
        0x08002dea:    f1a60806    ....    SUB      r8,r6,#6
        0x08002dee:    2802        .(      CMP      r0,#2
        0x08002df0:    d00a        ..      BEQ      0x8002e08 ; l_ifc_rx_MyLinIfc + 76
        0x08002df2:    7870        px      LDRB     r0,[r6,#1]
        0x08002df4:    2803        .(      CMP      r0,#3
        0x08002df6:    d04a        J.      BEQ      0x8002e8e ; l_ifc_rx_MyLinIfc + 210
        0x08002df8:    2401        .$      MOVS     r4,#1
        0x08002dfa:    4325        %C      ORRS     r5,r5,r4
        0x08002dfc:    d065        e.      BEQ      0x8002eca ; l_ifc_rx_MyLinIfc + 270
        0x08002dfe:    4620         F      MOV      r0,r4
        0x08002e00:    e8bd47f0    ...G    POP      {r4-r10,lr}
        0x08002e04:    f7ffbb02    ....    B        NotifyRxTxStatus ; 0x800240c
        0x08002e08:    2100        .!      MOVS     r1,#0
        0x08002e0a:    f8881000    ....    STRB     r1,[r8,#0]
        0x08002e0e:    46c1        .F      MOV      r9,r8
        0x08002e10:    6990        .i      LDR      r0,[r2,#0x18]
        0x08002e12:    4690        .F      MOV      r8,r2
        0x08002e14:    b2c0        ..      UXTB     r0,r0
        0x08002e16:    7038        8p      STRB     r0,[r7,#0]
        0x08002e18:    287d        }(      CMP      r0,#0x7d
        0x08002e1a:    d107        ..      BNE      0x8002e2c ; l_ifc_rx_MyLinIfc + 112
        0x08002e1c:    f7feff4c    ..L.    BL       LIN_GetResponseFlagForDiagnosisFrame ; 0x8001cb8
        0x08002e20:    b340        @.      CBZ      r0,0x8002e74 ; l_ifc_rx_MyLinIfc + 184
        0x08002e22:    7838        8x      LDRB     r0,[r7,#0]
        0x08002e24:    287d        }(      CMP      r0,#0x7d
        0x08002e26:    d101        ..      BNE      0x8002e2c ; l_ifc_rx_MyLinIfc + 112
        0x08002e28:    f7fefeb2    ....    BL       LIN_ClearResponseFlagForDiagnosisFrame ; 0x8001b90
        0x08002e2c:    4a2c        ,J      LDR      r2,[pc,#176] ; [0x8002ee0] = 0x2000004c
        0x08002e2e:    7839        9x      LDRB     r1,[r7,#0]
        0x08002e30:    2000        .       MOVS     r0,#0
        0x08002e32:    5c13        .\      LDRB     r3,[r2,r0]
        0x08002e34:    428b        .B      CMP      r3,r1
        0x08002e36:    d123        #.      BNE      0x8002e80 ; l_ifc_rx_MyLinIfc + 196
        0x08002e38:    492a        *I      LDR      r1,[pc,#168] ; [0x8002ee4] = 0x800313c
        0x08002e3a:    eb0100c0    ....    ADD      r0,r1,r0,LSL #3
        0x08002e3e:    f8c9000c    ....    STR      r0,[r9,#0xc]
        0x08002e42:    7841        Ax      LDRB     r1,[r0,#1]
        0x08002e44:    f8891001    ....    STRB     r1,[r9,#1]
        0x08002e48:    7800        .x      LDRB     r0,[r0,#0]
        0x08002e4a:    2801        .(      CMP      r0,#1
        0x08002e4c:    d013        ..      BEQ      0x8002e76 ; l_ifc_rx_MyLinIfc + 186
        0x08002e4e:    2802        .(      CMP      r0,#2
        0x08002e50:    d011        ..      BEQ      0x8002e76 ; l_ifc_rx_MyLinIfc + 186
        0x08002e52:    2001        .       MOVS     r0,#1
        0x08002e54:    70b0        .p      STRB     r0,[r6,#2]
        0x08002e56:    f8d82000    ...     LDR      r2,[r8,#0]
        0x08002e5a:    1c49        I.      ADDS     r1,r1,#1
        0x08002e5c:    f3615299    a..R    BFI      r2,r1,#22,#4
        0x08002e60:    f8c82000    ...     STR      r2,[r8,#0]
        0x08002e64:    f8d81010    ....    LDR      r1,[r8,#0x10]
        0x08002e68:    f4417180    A..q    ORR      r1,r1,#0x100
        0x08002e6c:    f8c81010    ....    STR      r1,[r8,#0x10]
        0x08002e70:    2003        .       MOVS     r0,#3
        0x08002e72:    7070        pp      STRB     r0,[r6,#1]
        0x08002e74:    e008        ..      B        0x8002e88 ; l_ifc_rx_MyLinIfc + 204
        0x08002e76:    f7fefdd3    ....    BL       LINUART_TransmitDataByFIFO ; 0x8001a20
        0x08002e7a:    2002        .       MOVS     r0,#2
        0x08002e7c:    70b0        .p      STRB     r0,[r6,#2]
        0x08002e7e:    e7f7        ..      B        0x8002e70 ; l_ifc_rx_MyLinIfc + 180
        0x08002e80:    1c40        @.      ADDS     r0,r0,#1
        0x08002e82:    b2c0        ..      UXTB     r0,r0
        0x08002e84:    2806        .(      CMP      r0,#6
        0x08002e86:    d3d4        ..      BCC      0x8002e32 ; l_ifc_rx_MyLinIfc + 118
        0x08002e88:    78b0        .x      LDRB     r0,[r6,#2]
        0x08002e8a:    b1e0        ..      CBZ      r0,0x8002ec6 ; l_ifc_rx_MyLinIfc + 266
        0x08002e8c:    e7b5        ..      B        0x8002dfa ; l_ifc_rx_MyLinIfc + 62
        0x08002e8e:    78b0        .x      LDRB     r0,[r6,#2]
        0x08002e90:    2801        .(      CMP      r0,#1
        0x08002e92:    d118        ..      BNE      0x8002ec6 ; l_ifc_rx_MyLinIfc + 266
        0x08002e94:    f8983001    ...0    LDRB     r3,[r8,#1]
        0x08002e98:    2000        .       MOVS     r0,#0
        0x08002e9a:    1c5b        [.      ADDS     r3,r3,#1
        0x08002e9c:    e004        ..      B        0x8002ea8 ; l_ifc_rx_MyLinIfc + 236
        0x08002e9e:    6991        .i      LDR      r1,[r2,#0x18]
        0x08002ea0:    183e        >.      ADDS     r6,r7,r0
        0x08002ea2:    1c40        @.      ADDS     r0,r0,#1
        0x08002ea4:    7071        qp      STRB     r1,[r6,#1]
        0x08002ea6:    b2c0        ..      UXTB     r0,r0
        0x08002ea8:    4298        .B      CMP      r0,r3
        0x08002eaa:    d3f8        ..      BCC      0x8002e9e ; l_ifc_rx_MyLinIfc + 226
        0x08002eac:    480b        .H      LDR      r0,[pc,#44] ; [0x8002edc] = 0x200003a0
        0x08002eae:    f7fdfc39    ..9.    BL       CalculateCheckSum ; 0x8000724
        0x08002eb2:    f8981001    ....    LDRB     r1,[r8,#1]
        0x08002eb6:    4439        9D      ADD      r1,r1,r7
        0x08002eb8:    7849        Ix      LDRB     r1,[r1,#1]
        0x08002eba:    4288        .B      CMP      r0,r1
        0x08002ebc:    d003        ..      BEQ      0x8002ec6 ; l_ifc_rx_MyLinIfc + 266
        0x08002ebe:    2402        .$      MOVS     r4,#2
        0x08002ec0:    f7fefe66    ..f.    BL       LIN_ClearResponseFlagForDiagnosisFrame ; 0x8001b90
        0x08002ec4:    e799        ..      B        0x8002dfa ; l_ifc_rx_MyLinIfc + 62
        0x08002ec6:    2501        .%      MOVS     r5,#1
        0x08002ec8:    e797        ..      B        0x8002dfa ; l_ifc_rx_MyLinIfc + 62
        0x08002eca:    e8bd87f0    ....    POP      {r4-r10,pc}
    $d
        0x08002ece:    0000        ..      DCW    0
        0x08002ed0:    40003000    .0.@    DCD    1073754112
        0x08002ed4:    00080900    ....    DCD    526592
        0x08002ed8:    200000c2    ...     DCD    536871106
        0x08002edc:    200003a0    ...     DCD    536871840
        0x08002ee0:    2000004c    L..     DCD    536870988
        0x08002ee4:    0800313c    <1..    DCD    134230332
    $t
    i.l_sys_init
    l_sys_init
        0x08002ee8:    b510        ..      PUSH     {r4,lr}
        0x08002eea:    f7fffb0b    ....    BL       ReadNADFromNVR ; 0x8002504
        0x08002eee:    2104        .!      MOVS     r1,#4
        0x08002ef0:    4805        .H      LDR      r0,[pc,#20] ; [0x8002f08] = 0x2000004c
        0x08002ef2:    f7fffb17    ....    BL       ReadPIDFromNVR ; 0x8002524
        0x08002ef6:    4905        .I      LDR      r1,[pc,#20] ; [0x8002f0c] = 0x200000c2
        0x08002ef8:    2000        .       MOVS     r0,#0
        0x08002efa:    7008        .p      STRB     r0,[r1,#0]
        0x08002efc:    7048        Hp      STRB     r0,[r1,#1]
        0x08002efe:    7088        .p      STRB     r0,[r1,#2]
        0x08002f00:    1f89        ..      SUBS     r1,r1,#6
        0x08002f02:    8048        H.      STRH     r0,[r1,#2]
        0x08002f04:    bd10        ..      POP      {r4,pc}
    $d
        0x08002f06:    0000        ..      DCW    0
        0x08002f08:    2000004c    L..     DCD    536870988
        0x08002f0c:    200000c2    ...     DCD    536871106
    $t
    i.l_sys_irq_disable
    l_sys_irq_disable
        0x08002f10:    f04f21e0    O..!    MOV      r1,#0xe000e000
        0x08002f14:    f8d10100    ....    LDR      r0,[r1,#0x100]
        0x08002f18:    2208        ."      MOVS     r2,#8
        0x08002f1a:    f0000008    ....    AND      r0,r0,#8
        0x08002f1e:    f8c12180    ...!    STR      r2,[r1,#0x180]
        0x08002f22:    4770        pG      BX       lr
    i.l_sys_irq_restore
    l_sys_irq_restore
        0x08002f24:    f04f21e0    O..!    MOV      r1,#0xe000e000
        0x08002f28:    f8c10100    ....    STR      r0,[r1,#0x100]
        0x08002f2c:    4770        pG      BX       lr
    i.main
    main
        0x08002f2e:    f7feffd3    ....    BL       LinApplMain ; 0x8001ed8
        0x08002f32:    e7fe        ..      B        0x8002f32 ; main + 4
    $d.realdata
    .constdata
    tFocParas
        0x08002f34:    427a0000    ..zB    DCD    1115291648
        0x08002f38:    42413333    33AB    DCD    1111569203
        0x08002f3c:    453b8000    ..;E    DCD    1161527296
        0x08002f40:    44c4599a    .Y.D    DCD    1153718682
        0x08002f44:    41666666    fffA    DCD    1097229926
        0x08002f48:    00035000    .P..    DCD    217088
        0x08002f4c:    15c22fb3    ./..    DCD    365047731
        0x08002f50:    28f52a3d    =*.(    DCD    687155773
        0x08002f54:    000415d2    ....    DCD    267730
        0x08002f58:    7fff07ae    ....    DCD    2147420078
        0x08002f5c:    00007333    3s..    DCD    29491
        0x08002f60:    dc2e260b    .&..    DCD    3694011915
        0x08002f64:    32c30000    ...2    DCD    851640320
        0x08002f68:    7333d02b    +.3s    DCD    1932775467
        0x08002f6c:    06660000    ..f.    DCD    107347968
        0x08002f70:    7333fff9    ..3s    DCD    1932787705
        0x08002f74:    000a8ccd    ....    DCD    691405
        0x08002f78:    000a0005    ....    DCD    655365
        0x08002f7c:    7e340004    ..4~    DCD    2117337092
        0x08002f80:    113939c7    .99.    DCD    288963015
        0x08002f84:    00000d27    '...    DCD    3367
        0x08002f88:    8e4f7bfc    .{O.    DCD    2387573756
        0x08002f8c:    2b8b0000    ...+    DCD    730529792
        0x08002f90:    0000d4b0    ....    DCD    54448
        0x08002f94:    00000333    3...    DCD    819
        0x08002f98:    09990001    ....    DCD    161021953
        0x08002f9c:    08930444    D...    DCD    143852612
    .constdata
    pStateFuncTable
        0x08002fa0:    08002809    .(..    DCD    134227977
        0x08002fa4:    08002809    .(..    DCD    134227977
        0x08002fa8:    08002809    .(..    DCD    134227977
        0x08002fac:    08002809    .(..    DCD    134227977
        0x08002fb0:    08002809    .(..    DCD    134227977
        0x08002fb4:    08002809    .(..    DCD    134227977
        0x08002fb8:    08002809    .(..    DCD    134227977
        0x08002fbc:    08002809    .(..    DCD    134227977
        0x08002fc0:    08002835    5(..    DCD    134228021
        0x08002fc4:    08002809    .(..    DCD    134227977
        0x08002fc8:    08002809    .(..    DCD    134227977
        0x08002fcc:    08002809    .(..    DCD    134227977
        0x08002fd0:    08002809    .(..    DCD    134227977
        0x08002fd4:    08002809    .(..    DCD    134227977
        0x08002fd8:    08002835    5(..    DCD    134228021
        0x08002fdc:    08002809    .(..    DCD    134227977
        0x08002fe0:    08002809    .(..    DCD    134227977
        0x08002fe4:    08002809    .(..    DCD    134227977
        0x08002fe8:    08002809    .(..    DCD    134227977
        0x08002fec:    08002809    .(..    DCD    134227977
        0x08002ff0:    08002809    .(..    DCD    134227977
        0x08002ff4:    08002891    .(..    DCD    134228113
        0x08002ff8:    08002809    .(..    DCD    134227977
        0x08002ffc:    08002809    .(..    DCD    134227977
        0x08003000:    08002809    .(..    DCD    134227977
        0x08003004:    08002809    .(..    DCD    134227977
        0x08003008:    08002809    .(..    DCD    134227977
        0x0800300c:    08002809    .(..    DCD    134227977
        0x08003010:    08002809    .(..    DCD    134227977
        0x08003014:    08002809    .(..    DCD    134227977
        0x08003018:    08002891    .(..    DCD    134228113
        0x0800301c:    08002809    .(..    DCD    134227977
        0x08003020:    08002809    .(..    DCD    134227977
        0x08003024:    08002809    .(..    DCD    134227977
        0x08003028:    08002809    .(..    DCD    134227977
        0x0800302c:    08002809    .(..    DCD    134227977
        0x08003030:    08002809    .(..    DCD    134227977
        0x08003034:    080027a5    .'..    DCD    134227877
        0x08003038:    08002809    .(..    DCD    134227977
        0x0800303c:    08002809    .(..    DCD    134227977
        0x08003040:    08002809    .(..    DCD    134227977
        0x08003044:    08002809    .(..    DCD    134227977
        0x08003048:    08002809    .(..    DCD    134227977
        0x0800304c:    08002809    .(..    DCD    134227977
        0x08003050:    08002809    .(..    DCD    134227977
        0x08003054:    080027a5    .'..    DCD    134227877
        0x08003058:    08002809    .(..    DCD    134227977
        0x0800305c:    08002809    .(..    DCD    134227977
        0x08003060:    08002809    .(..    DCD    134227977
        0x08003064:    08002809    .(..    DCD    134227977
        0x08003068:    08002809    .(..    DCD    134227977
        0x0800306c:    08002809    .(..    DCD    134227977
        0x08003070:    080026ed    .&..    DCD    134227693
        0x08003074:    08002809    .(..    DCD    134227977
        0x08003078:    08002809    .(..    DCD    134227977
        0x0800307c:    08002809    .(..    DCD    134227977
        0x08003080:    08002809    .(..    DCD    134227977
        0x08003084:    08002809    .(..    DCD    134227977
        0x08003088:    08002809    .(..    DCD    134227977
        0x0800308c:    08002809    .(..    DCD    134227977
        0x08003090:    080026ed    .&..    DCD    134227693
        0x08003094:    08002809    .(..    DCD    134227977
        0x08003098:    08002809    .(..    DCD    134227977
        0x0800309c:    08002809    .(..    DCD    134227977
        0x080030a0:    08002809    .(..    DCD    134227977
        0x080030a4:    08002809    .(..    DCD    134227977
        0x080030a8:    08002809    .(..    DCD    134227977
        0x080030ac:    080028ed    .(..    DCD    134228205
        0x080030b0:    08002809    .(..    DCD    134227977
        0x080030b4:    08002809    .(..    DCD    134227977
        0x080030b8:    08002809    .(..    DCD    134227977
        0x080030bc:    08002809    .(..    DCD    134227977
        0x080030c0:    08002809    .(..    DCD    134227977
        0x080030c4:    08002809    .(..    DCD    134227977
        0x080030c8:    08002809    .(..    DCD    134227977
        0x080030cc:    080028ed    .(..    DCD    134228205
        0x080030d0:    08002809    .(..    DCD    134227977
        0x080030d4:    08002809    .(..    DCD    134227977
        0x080030d8:    08002809    .(..    DCD    134227977
        0x080030dc:    08002891    .(..    DCD    134228113
        0x080030e0:    08002835    5(..    DCD    134228021
        0x080030e4:    08002835    5(..    DCD    134228021
        0x080030e8:    08002835    5(..    DCD    134228021
        0x080030ec:    08002809    .(..    DCD    134227977
        0x080030f0:    08002809    .(..    DCD    134227977
        0x080030f4:    08002809    .(..    DCD    134227977
        0x080030f8:    080028a1    .(..    DCD    134228129
        0x080030fc:    08002809    .(..    DCD    134227977
        0x08003100:    08002809    .(..    DCD    134227977
        0x08003104:    08002809    .(..    DCD    134227977
        0x08003108:    080028a1    .(..    DCD    134228129
        0x0800310c:    08002809    .(..    DCD    134227977
        0x08003110:    08002809    .(..    DCD    134227977
        0x08003114:    08002809    .(..    DCD    134227977
        0x08003118:    08002809    .(..    DCD    134227977
        0x0800311c:    08002809    .(..    DCD    134227977
        0x08003120:    08002809    .(..    DCD    134227977
        0x08003124:    08002835    5(..    DCD    134228021
    .constdata
    g_serialNumber
        0x08003128:    12345678    xV4.    DCD    305419896
    .constdata
    g_productIdentifier
        0x0800312c:    12340041    A.4.    DCD    305397825
        0x08003130:    00ab        ..      DCW    171
    .constdata
    g_configMessageIDTable
        0x08003132:    0101        ..      DCW    257
        0x08003134:    01030102    ....    DCD    16974082
        0x08003138:    00000104    ....    DCD    260
    .constdata
    g_nodeConfigFrameTable
        0x0800313c:    00000801    ....    DCD    2049
        0x08003140:    2000003c    <..     DCD    536870972
        0x08003144:    00000800    ....    DCD    2048
        0x08003148:    20000044    D..     DCD    536870980
        0x0800314c:    00000800    ....    DCD    2048
        0x08003150:    20000052    R..     DCD    536870994
        0x08003154:    00000801    ....    DCD    2049
        0x08003158:    2000005a    Z..     DCD    536871002
        0x0800315c:    00000000    ....    DCD    0
        0x08003160:    00000000    ....    DCD    0
        0x08003164:    00000000    ....    DCD    0
        0x08003168:    00000000    ....    DCD    0
    .constdata
    g_SID2Callbacks
        0x0800316c:    000000b0    ....    DCD    176
        0x08003170:    08001b21    !...    DCD    134224673
        0x08003174:    000000b1    ....    DCD    177
        0x08003178:    08001a8d    ....    DCD    134224525
        0x0800317c:    000000b2    ....    DCD    178
        0x08003180:    08001cfd    ....    DCD    134225149
        0x08003184:    000000b3    ....    DCD    179
        0x08003188:    08001b9d    ....    DCD    134224797
        0x0800318c:    000000b4    ....    DCD    180
        0x08003190:    08001c4d    M...    DCD    134224973
        0x08003194:    000000b5    ....    DCD    181
        0x08003198:    08001e19    ....    DCD    134225433
    .constdata
    ValAmpTab
        0x0800319c:    80008000    ....    DCD    2147516416
        0x080031a0:    80008000    ....    DCD    2147516416
        0x080031a4:    80008000    ....    DCD    2147516416
        0x080031a8:    80018001    ....    DCD    2147581953
        0x080031ac:    80018001    ....    DCD    2147581953
        0x080031b0:    80028002    ....    DCD    2147647490
        0x080031b4:    80038002    ....    DCD    2147713026
        0x080031b8:    80048003    ....    DCD    2147778563
        0x080031bc:    80058004    ....    DCD    2147844100
        0x080031c0:    80068005    ....    DCD    2147909637
        0x080031c4:    80078006    ....    DCD    2147975174
        0x080031c8:    80088008    ....    DCD    2148040712
        0x080031cc:    800a8009    ....    DCD    2148171785
        0x080031d0:    800b800b    ....    DCD    2148237323
        0x080031d4:    800d800c    ....    DCD    2148368396
        0x080031d8:    800f800e    ....    DCD    2148499470
        0x080031dc:    80118010    ....    DCD    2148630544
        0x080031e0:    80138012    ....    DCD    2148761618
        0x080031e4:    80158014    ....    DCD    2148892692
        0x080031e8:    80188017    ....    DCD    2149089303
        0x080031ec:    801a8019    ....    DCD    2149220377
        0x080031f0:    801d801c    ....    DCD    2149416988
        0x080031f4:    8020801e    .. .    DCD    2149613598
        0x080031f8:    80228021    !.".    DCD    2149744673
        0x080031fc:    80258024    $.%.    DCD    2149941284
        0x08003200:    80298027    '.).    DCD    2150203431
        0x08003204:    802c802a    *.,.    DCD    2150400042
        0x08003208:    802f802e    ../.    DCD    2150596654
        0x0800320c:    80338031    1.3.    DCD    2150858801
        0x08003210:    80368035    5.6.    DCD    2151055413
        0x08003214:    803a8038    8.:.    DCD    2151317560
        0x08003218:    803e803c    <.>.    DCD    2151579708
        0x0800321c:    80428040    @.B.    DCD    2151841856
        0x08003220:    80468044    D.F.    DCD    2152104004
        0x08003224:    804a8048    H.J.    DCD    2152366152
        0x08003228:    804f804c    L.O.    DCD    2152693836
        0x0800322c:    80538051    Q.S.    DCD    2152955985
        0x08003230:    80588055    U.X.    DCD    2153283669
        0x08003234:    805d805a    Z.].    DCD    2153611354
        0x08003238:    8061805f    _.a.    DCD    2153873503
        0x0800323c:    80668064    d.f.    DCD    2154201188
        0x08003240:    806b8069    i.k.    DCD    2154528873
        0x08003244:    8071806e    n.q.    DCD    2154922094
        0x08003248:    80768073    s.v.    DCD    2155249779
        0x0800324c:    807c8079    y.|.    DCD    2155643001
        0x08003250:    8081807e    ~...    DCD    2155970686
        0x08003254:    80878084    ....    DCD    2156363908
        0x08003258:    808d808a    ....    DCD    2156757130
        0x0800325c:    80938090    ....    DCD    2157150352
        0x08003260:    80998096    ....    DCD    2157543574
        0x08003264:    809f809c    ....    DCD    2157936796
        0x08003268:    80a580a2    ....    DCD    2158330018
        0x0800326c:    80ac80a9    ....    DCD    2158788777
        0x08003270:    80b280af    ....    DCD    2159181999
        0x08003274:    80b980b6    ....    DCD    2159640758
        0x08003278:    80c080bd    ....    DCD    2160099517
        0x0800327c:    80c780c3    ....    DCD    2160558275
        0x08003280:    80ce80ca    ....    DCD    2161017034
        0x08003284:    80d580d2    ....    DCD    2161475794
        0x08003288:    80dd80d9    ....    DCD    2162000089
        0x0800328c:    80e480e0    ....    DCD    2162458848
        0x08003290:    80ec80e8    ....    DCD    2162983144
        0x08003294:    80f380ef    ....    DCD    2163441903
        0x08003298:    80fb80f7    ....    DCD    2163966199
        0x0800329c:    810380ff    ....    DCD    2164490495
        0x080032a0:    810b8107    ....    DCD    2165014791
        0x080032a4:    8113810f    ....    DCD    2165539087
        0x080032a8:    811c8117    ....    DCD    2166128919
        0x080032ac:    81248120     .$.    DCD    2166653216
        0x080032b0:    812d8128    (.-.    DCD    2167243048
        0x080032b4:    81358131    1.5.    DCD    2167767345
        0x080032b8:    813e813a    :.>.    DCD    2168357178
        0x080032bc:    81478142    B.G.    DCD    2168947010
        0x080032c0:    8150814b    K.P.    DCD    2169536843
        0x080032c4:    81598154    T.Y.    DCD    2170126676
        0x080032c8:    8162815e    ^.b.    DCD    2170716510
        0x080032cc:    816c8167    g.l.    DCD    2171371879
        0x080032d0:    81758170    p.u.    DCD    2171961712
        0x080032d4:    817f817a    z...    DCD    2172617082
        0x080032d8:    81898184    ....    DCD    2173272452
        0x080032dc:    8193818e    ....    DCD    2173927822
        0x080032e0:    819d8198    ....    DCD    2174583192
        0x080032e4:    81a781a2    ....    DCD    2175238562
        0x080032e8:    81b181ac    ....    DCD    2175893932
        0x080032ec:    81bb81b6    ....    DCD    2176549302
        0x080032f0:    81c681c0    ....    DCD    2177270208
        0x080032f4:    81d081cb    ....    DCD    2177925579
        0x080032f8:    81db81d6    ....    DCD    2178646486
        0x080032fc:    81e681e0    ....    DCD    2179367392
        0x08003300:    81f181eb    ....    DCD    2180088299
        0x08003304:    81fc81f6    ....    DCD    2180809206
        0x08003308:    82078202    ....    DCD    2181530114
        0x0800330c:    8212820d    ....    DCD    2182251021
        0x08003310:    821e8218    ....    DCD    2183037464
        0x08003314:    82298224    $.).    DCD    2183758372
        0x08003318:    8235822f    /.5.    DCD    2184544815
        0x0800331c:    8241823b    ;.A.    DCD    2185331259
        0x08003320:    824d8247    G.M.    DCD    2186117703
        0x08003324:    82598253    S.Y.    DCD    2186904147
        0x08003328:    8265825f    _.e.    DCD    2187690591
        0x0800332c:    8271826b    k.q.    DCD    2188477035
        0x08003330:    827e8277    w.~.    DCD    2189329015
        0x08003334:    828a8284    ....    DCD    2190115460
        0x08003338:    82978290    ....    DCD    2190967440
        0x0800333c:    82a4829d    ....    DCD    2191819421
        0x08003340:    82b082aa    ....    DCD    2192605866
        0x08003344:    82bd82b7    ....    DCD    2193457847
        0x08003348:    82ca82c4    ....    DCD    2194309828
        0x0800334c:    82d882d1    ....    DCD    2195227345
        0x08003350:    82e582de    ....    DCD    2196079326
        0x08003354:    82f282ec    ....    DCD    2196931308
        0x08003358:    830082f9    ....    DCD    2197848825
        0x0800335c:    830e8307    ....    DCD    2198766343
        0x08003360:    831b8315    ....    DCD    2199618325
        0x08003364:    83298322    ".).    DCD    2200535842
        0x08003368:    83378330    0.7.    DCD    2201453360
        0x0800336c:    8346833e    >.F.    DCD    2202436414
        0x08003370:    8354834d    M.T.    DCD    2203353933
        0x08003374:    8362835b    [.b.    DCD    2204271451
        0x08003378:    83718369    i.q.    DCD    2205254505
        0x0800337c:    837f8378    x...    DCD    2206172024
        0x08003380:    838e8387    ....    DCD    2207155079
        0x08003384:    839d8395    ....    DCD    2208138133
        0x08003388:    83ac83a4    ....    DCD    2209121188
        0x0800338c:    83bb83b3    ....    DCD    2210104243
        0x08003390:    83ca83c2    ....    DCD    2211087298
        0x08003394:    83d983d2    ....    DCD    2212070354
        0x08003398:    83e983e1    ....    DCD    2213118945
        0x0800339c:    83f883f0    ....    DCD    2214102000
        0x080033a0:    84088400    ....    DCD    2215150592
        0x080033a4:    84188410    ....    DCD    2216199184
        0x080033a8:    84288420     .(.    DCD    2217247776
        0x080033ac:    8437842f    /.7.    DCD    2218230831
        0x080033b0:    84488440    @.H.    DCD    2219344960
        0x080033b4:    84588450    P.X.    DCD    2220393552
        0x080033b8:    84688460    `.h.    DCD    2221442144
        0x080033bc:    84798470    p.y.    DCD    2222556272
        0x080033c0:    84898481    ....    DCD    2223604865
        0x080033c4:    849a8491    ....    DCD    2224718993
        0x080033c8:    84aa84a2    ....    DCD    2225767586
        0x080033cc:    84bb84b3    ....    DCD    2226881715
        0x080033d0:    84cc84c4    ....    DCD    2227995844
        0x080033d4:    84dd84d5    ....    DCD    2229109973
        0x080033d8:    84ef84e6    ....    DCD    2230289638
        0x080033dc:    850084f7    ....    DCD    2231403767
        0x080033e0:    85118509    ....    DCD    2232517897
        0x080033e4:    8523851a    ..#.    DCD    2233697562
        0x080033e8:    8535852c    ,.5.    DCD    2234877228
        0x080033ec:    8546853e    >.F.    DCD    2235991358
        0x080033f0:    8558854f    O.X.    DCD    2237171023
        0x080033f4:    856a8561    a.j.    DCD    2238350689
        0x080033f8:    857c8573    s.|.    DCD    2239530355
        0x080033fc:    858f8586    ....    DCD    2240775558
        0x08003400:    85a18598    ....    DCD    2241955224
        0x08003404:    85b385aa    ....    DCD    2243134890
        0x08003408:    85c685bd    ....    DCD    2244380093
        0x0800340c:    85d985cf    ....    DCD    2245625295
        0x08003410:    85eb85e2    ....    DCD    2246804962
        0x08003414:    85fe85f5    ....    DCD    2248050165
        0x08003418:    86118608    ....    DCD    2249295368
        0x0800341c:    8624861b    ..$.    DCD    2250540571
        0x08003420:    8637862e    ..7.    DCD    2251785774
        0x08003424:    864b8641    A.K.    DCD    2253096513
        0x08003428:    865e8654    T.^.    DCD    2254341716
        0x0800342c:    86728668    h.r.    DCD    2255652456
        0x08003430:    8685867c    |...    DCD    2256897660
        0x08003434:    8699868f    ....    DCD    2258208399
        0x08003438:    86ad86a3    ....    DCD    2259519139
        0x0800343c:    86c186b7    ....    DCD    2260829879
        0x08003440:    86d586cb    ....    DCD    2262140619
        0x08003444:    86e986df    ....    DCD    2263451359
        0x08003448:    86fd86f3    ....    DCD    2264762099
        0x0800344c:    87128708    ....    DCD    2266138376
        0x08003450:    8726871c    ..&.    DCD    2267449116
        0x08003454:    873b8731    1.;.    DCD    2268825393
        0x08003458:    87508745    E.P.    DCD    2270201669
        0x0800345c:    8764875a    Z.d.    DCD    2271512410
        0x08003460:    8779876f    o.y.    DCD    2272888687
        0x08003464:    878e8784    ....    DCD    2274264964
        0x08003468:    87a38799    ....    DCD    2275641241
        0x0800346c:    87b987ae    ....    DCD    2277083054
        0x08003470:    87ce87c3    ....    DCD    2278459331
        0x08003474:    87e387d9    ....    DCD    2279835609
        0x08003478:    87f987ee    ....    DCD    2281277422
        0x0800347c:    880f8804    ....    DCD    2282719236
        0x08003480:    88248819    ..$.    DCD    2284095513
        0x08003484:    883a882f    /.:.    DCD    2285537327
        0x08003488:    88508845    E.P.    DCD    2286979141
        0x0800348c:    8866885b    [.f.    DCD    2288420955
        0x08003490:    887c8871    q.|.    DCD    2289862769
        0x08003494:    88938888    ....    DCD    2291370120
        0x08003498:    88a9889e    ....    DCD    2292811934
        0x0800349c:    88bf88b4    ....    DCD    2294253748
        0x080034a0:    88d688cb    ....    DCD    2295761099
        0x080034a4:    88ed88e1    ....    DCD    2297268449
        0x080034a8:    890488f8    ....    DCD    2298775800
        0x080034ac:    891a890f    ....    DCD    2300217615
        0x080034b0:    89318926    &.1.    DCD    2301724966
        0x080034b4:    8948893d    =.H.    DCD    2303232317
        0x080034b8:    89608954    T.`.    DCD    2304805204
        0x080034bc:    8977896b    k.w.    DCD    2306312555
        0x080034c0:    898e8983    ....    DCD    2307819907
        0x080034c4:    89a6899a    ....    DCD    2309392794
        0x080034c8:    89bd89b2    ....    DCD    2310900146
        0x080034cc:    89d589c9    ....    DCD    2312473033
        0x080034d0:    89ed89e1    ....    DCD    2314045921
        0x080034d4:    8a0589f9    ....    DCD    2315618809
        0x080034d8:    8a1d8a11    ....    DCD    2317191697
        0x080034dc:    8a358a29    ).5.    DCD    2318764585
        0x080034e0:    8a4d8a41    A.M.    DCD    2320337473
        0x080034e4:    8a658a59    Y.e.    DCD    2321910361
        0x080034e8:    8a7e8a71    q.~.    DCD    2323548785
        0x080034ec:    8a968a8a    ....    DCD    2325121674
        0x080034f0:    8aaf8aa2    ....    DCD    2326760098
        0x080034f4:    8ac78abb    ....    DCD    2328332987
        0x080034f8:    8ae08ad4    ....    DCD    2329971412
        0x080034fc:    8af98aed    ....    DCD    2331609837
        0x08003500:    8b128b06    ....    DCD    2333248262
        0x08003504:    8b2b8b1f    ..+.    DCD    2334886687
        0x08003508:    8b448b38    8.D.    DCD    2336525112
        0x0800350c:    8b5e8b51    Q.^.    DCD    2338229073
        0x08003510:    8b778b6a    j.w.    DCD    2339867498
        0x08003514:    8b908b84    ....    DCD    2341505924
        0x08003518:    8baa8b9d    ....    DCD    2343209885
        0x0800351c:    8bc48bb7    ....    DCD    2344913847
        0x08003520:    8bdd8bd0    ....    DCD    2346552272
        0x08003524:    8bf78bea    ....    DCD    2348256234
        0x08003528:    8c118c04    ....    DCD    2349960196
        0x0800352c:    8c2b8c1e    ..+.    DCD    2351664158
        0x08003530:    8c458c38    8.E.    DCD    2353368120
        0x08003534:    8c608c52    R.`.    DCD    2355137618
        0x08003538:    8c7a8c6d    m.z.    DCD    2356841581
        0x0800353c:    8c948c87    ....    DCD    2358545543
        0x08003540:    8caf8ca2    ....    DCD    2360315042
        0x08003544:    8cc98cbc    ....    DCD    2362019004
        0x08003548:    8ce48cd7    ....    DCD    2363788503
        0x0800354c:    8cff8cf1    ....    DCD    2365558001
        0x08003550:    8d1a8d0c    ....    DCD    2367327500
        0x08003554:    8d358d27    '.5.    DCD    2369096999
        0x08003558:    8d508d42    B.P.    DCD    2370866498
        0x0800355c:    8d6b8d5d    ].k.    DCD    2372635997
        0x08003560:    8d868d79    y...    DCD    2374405497
        0x08003564:    8da28d94    ....    DCD    2376240532
        0x08003568:    8dbd8daf    ....    DCD    2378010031
        0x0800356c:    8dd98dcb    ....    DCD    2379845067
        0x08003570:    8df48de6    ....    DCD    2381614566
        0x08003574:    8e108e02    ....    DCD    2383449602
        0x08003578:    8e2c8e1e    ..,.    DCD    2385284638
        0x0800357c:    8e488e3a    :.H.    DCD    2387119674
        0x08003580:    8e648e56    V.d.    DCD    2388954710
        0x08003584:    8e808e72    r...    DCD    2390789746
        0x08003588:    8e9c8e8e    ....    DCD    2392624782
        0x0800358c:    8eb88eaa    ....    DCD    2394459818
        0x08003590:    8ed48ec6    ....    DCD    2396294854
        0x08003594:    8ef18ee3    ....    DCD    2398195427
        0x08003598:    8f0d8eff    ....    DCD    2400030463
        0x0800359c:    8f2a8f1c    ..*.    DCD    2401931036
        0x080035a0:    8f478f38    8.G.    DCD    2403831608
        0x080035a4:    8f648f55    U.d.    DCD    2405732181
        0x080035a8:    8f808f72    r...    DCD    2407567218
        0x080035ac:    8f9d8f8f    ....    DCD    2409467791
        0x080035b0:    8fbb8fac    ....    DCD    2411433900
        0x080035b4:    8fd88fc9    ....    DCD    2413334473
        0x080035b8:    8ff58fe6    ....    DCD    2415235046
        0x080035bc:    90129004    ....    DCD    2417135620
        0x080035c0:    90309021    !.0.    DCD    2419101729
        0x080035c4:    904d903e    >.M.    DCD    2421002302
        0x080035c8:    906b905c    \.k.    DCD    2422968412
        0x080035cc:    9088907a    z...    DCD    2424868986
        0x080035d0:    90a69097    ....    DCD    2426835095
        0x080035d4:    90c490b5    ....    DCD    2428801205
        0x080035d8:    90e290d3    ....    DCD    2430767315
        0x080035dc:    910090f1    ....    DCD    2432733425
        0x080035e0:    911e910f    ....    DCD    2434699535
        0x080035e4:    913c912d    -.<.    DCD    2436665645
        0x080035e8:    915b914b    K.[.    DCD    2438697291
        0x080035ec:    9179916a    j.y.    DCD    2440663402
        0x080035f0:    91979188    ....    DCD    2442629512
        0x080035f4:    91b691a7    ....    DCD    2444661159
        0x080035f8:    91d591c5    ....    DCD    2446692805
        0x080035fc:    91f391e4    ....    DCD    2448658916
        0x08003600:    92129203    ....    DCD    2450690563
        0x08003604:    92319222    ".1.    DCD    2452722210
        0x08003608:    92509240    @.P.    DCD    2454753856
        0x0800360c:    926f925f    _.o.    DCD    2456785503
        0x08003610:    928e927f    ....    DCD    2458817151
        0x08003614:    92ad929e    ....    DCD    2460848798
        0x08003618:    92cd92bd    ....    DCD    2462945981
        0x0800361c:    92ec92dc    ....    DCD    2464977628
        0x08003620:    930b92fc    ....    DCD    2467009276
        0x08003624:    932b931b    ..+.    DCD    2469106459
        0x08003628:    934b933b    ;.K.    DCD    2471203643
        0x0800362c:    936a935a    Z.j.    DCD    2473235290
        0x08003630:    938a937a    z...    DCD    2475332474
        0x08003634:    93aa939a    ....    DCD    2477429658
        0x08003638:    93ca93ba    ....    DCD    2479526842
        0x0800363c:    93ea93da    ....    DCD    2481624026
        0x08003640:    940a93fa    ....    DCD    2483721210
        0x08003644:    942a941a    ..*.    DCD    2485818394
        0x08003648:    944b943a    :.K.    DCD    2487981114
        0x0800364c:    946b945b    [.k.    DCD    2490078299
        0x08003650:    948b947b    {...    DCD    2492175483
        0x08003654:    94ac949c    ....    DCD    2494338204
        0x08003658:    94cc94bc    ....    DCD    2496435388
        0x0800365c:    94ed94dd    ....    DCD    2498598109
        0x08003660:    950e94fd    ....    DCD    2500760829
        0x08003664:    952f951e    ../.    DCD    2502923550
        0x08003668:    9550953f    ?.P.    DCD    2505086271
        0x0800366c:    95719560    `.q.    DCD    2507248992
        0x08003670:    95929581    ....    DCD    2509411713
        0x08003674:    95b395a2    ....    DCD    2511574434
        0x08003678:    95d495c3    ....    DCD    2513737155
        0x0800367c:    95f595e5    ....    DCD    2515899877
        0x08003680:    96179606    ....    DCD    2518128134
        0x08003684:    96389627    '.8.    DCD    2520290855
        0x08003688:    965a9649    I.Z.    DCD    2522519113
        0x0800368c:    967b966b    k.{.    DCD    2524681835
        0x08003690:    969d968c    ....    DCD    2526910092
        0x08003694:    96bf96ae    ....    DCD    2529138350
        0x08003698:    96e196d0    ....    DCD    2531366608
        0x0800369c:    970396f2    ....    DCD    2533594866
        0x080036a0:    97259714    ..%.    DCD    2535823124
        0x080036a4:    97479736    6.G.    DCD    2538051382
        0x080036a8:    97699758    X.i.    DCD    2540279640
        0x080036ac:    978b977a    z...    DCD    2542507898
        0x080036b0:    97ad979c    ....    DCD    2544736156
        0x080036b4:    97d097be    ....    DCD    2547029950
        0x080036b8:    97f297e1    ....    DCD    2549258209
        0x080036bc:    98159803    ....    DCD    2551552003
        0x080036c0:    98379826    &.7.    DCD    2553780262
        0x080036c4:    985a9849    I.Z.    DCD    2556074057
        0x080036c8:    987d986b    k.}.    DCD    2558367851
        0x080036cc:    989f988e    ....    DCD    2560596110
        0x080036d0:    98c298b1    ....    DCD    2562889905
        0x080036d4:    98e598d4    ....    DCD    2565183700
        0x080036d8:    990898f7    ....    DCD    2567477495
        0x080036dc:    992b991a    ..+.    DCD    2569771290
        0x080036e0:    994f993d    =.O.    DCD    2572130621
        0x080036e4:    99729960    `.r.    DCD    2574424416
        0x080036e8:    99959984    ....    DCD    2576718212
        0x080036ec:    99b999a7    ....    DCD    2579077543
        0x080036f0:    99dc99ca    ....    DCD    2581371338
        0x080036f4:    9a0099ee    ....    DCD    2583730670
        0x080036f8:    9a239a12    ..#.    DCD    2586024466
        0x080036fc:    9a479a35    5.G.    DCD    2588383797
        0x08003700:    9a6b9a59    Y.k.    DCD    2590743129
        0x08003704:    9a8f9a7d    }...    DCD    2593102461
        0x08003708:    9ab39aa1    ....    DCD    2595461793
        0x0800370c:    9ad69ac4    ....    DCD    2597755588
        0x08003710:    9afb9ae9    ....    DCD    2600180457
        0x08003714:    9b1f9b0d    ....    DCD    2602539789
        0x08003718:    9b439b31    1.C.    DCD    2604899121
        0x0800371c:    9b679b55    U.g.    DCD    2607258453
        0x08003720:    9b8b9b79    y...    DCD    2609617785
        0x08003724:    9bb09b9e    ....    DCD    2612042654
        0x08003728:    9bd49bc2    ....    DCD    2614401986
        0x0800372c:    9bf99be7    ....    DCD    2616826855
        0x08003730:    9c1d9c0b    ....    DCD    2619186187
        0x08003734:    9c429c30    0.B.    DCD    2621611056
        0x08003738:    9c679c54    T.g.    DCD    2624035924
        0x0800373c:    9c8c9c79    y...    DCD    2626460793
        0x08003740:    9cb19c9e    ....    DCD    2628885662
        0x08003744:    9cd59cc3    ....    DCD    2631244995
        0x08003748:    9cfb9ce8    ....    DCD    2633735400
        0x0800374c:    9d209d0d    .. .    DCD    2636160269
        0x08003750:    9d459d32    2.E.    DCD    2638585138
        0x08003754:    9d6a9d57    W.j.    DCD    2641010007
        0x08003758:    9d8f9d7d    }...    DCD    2643434877
        0x0800375c:    9db59da2    ....    DCD    2645925282
        0x08003760:    9dda9dc7    ....    DCD    2648350151
        0x08003764:    9e009ded    ....    DCD    2650840557
        0x08003768:    9e259e12    ..%.    DCD    2653265426
        0x0800376c:    9e4b9e38    8.K.    DCD    2655755832
        0x08003770:    9e709e5e    ^.p.    DCD    2658180702
        0x08003774:    9e969e83    ....    DCD    2660671107
        0x08003778:    9ebc9ea9    ....    DCD    2663161513
        0x0800377c:    9ee29ecf    ....    DCD    2665651919
        0x08003780:    9f089ef5    ....    DCD    2668142325
        0x08003784:    9f2e9f1b    ....    DCD    2670632731
        0x08003788:    9f549f41    A.T.    DCD    2673123137
        0x0800378c:    9f7a9f67    g.z.    DCD    2675613543
        0x08003790:    9fa09f8d    ....    DCD    2678103949
        0x08003794:    9fc69fb3    ....    DCD    2680594355
        0x08003798:    9fed9fda    ....    DCD    2683150298
        0x0800379c:    a013a000    ....    DCD    2685640704
        0x080037a0:    a03aa026    &.:.    DCD    2688196646
        0x080037a4:    a060a04d    M.`.    DCD    2690687053
        0x080037a8:    a087a073    s...    DCD    2693242995
        0x080037ac:    a0ada09a    ....    DCD    2695733402
        0x080037b0:    a0d4a0c1    ....    DCD    2698289345
        0x080037b4:    a0fba0e8    ....    DCD    2700845288
        0x080037b8:    a122a10e    ..".    DCD    2703401230
        0x080037bc:    a149a135    5.I.    DCD    2705957173
        0x080037c0:    a170a15c    \.p.    DCD    2708513116
        0x080037c4:    a197a183    ....    DCD    2711069059
        0x080037c8:    a1bea1aa    ....    DCD    2713625002
        0x080037cc:    a1e5a1d1    ....    DCD    2716180945
        0x080037d0:    a20ca1f9    ....    DCD    2718736889
        0x080037d4:    a233a220     .3.    DCD    2721292832
        0x080037d8:    a25ba247    G.[.    DCD    2723914311
        0x080037dc:    a282a26e    n...    DCD    2726470254
        0x080037e0:    a2aaa296    ....    DCD    2729091734
        0x080037e4:    a2d1a2bd    ....    DCD    2731647677
        0x080037e8:    a2f9a2e5    ....    DCD    2734269157
        0x080037ec:    a320a30d    .. .    DCD    2736825101
        0x080037f0:    a348a334    4.H.    DCD    2739446580
        0x080037f4:    a370a35c    \.p.    DCD    2742068060
        0x080037f8:    a398a384    ....    DCD    2744689540
        0x080037fc:    a3c0a3ac    ....    DCD    2747311020
        0x08003800:    a3e8a3d4    ....    DCD    2749932500
        0x08003804:    a410a3fc    ....    DCD    2752553980
        0x08003808:    a438a424    $.8.    DCD    2755175460
        0x0800380c:    a460a44c    L.`.    DCD    2757796940
        0x08003810:    a488a474    t...    DCD    2760418420
        0x08003814:    a4b0a49c    ....    DCD    2763039900
        0x08003818:    a4d8a4c4    ....    DCD    2765661380
        0x0800381c:    a501a4ed    ....    DCD    2768348397
        0x08003820:    a529a515    ..).    DCD    2770969877
        0x08003824:    a552a53d    =.R.    DCD    2773656893
        0x08003828:    a57aa566    f.z.    DCD    2776278374
        0x0800382c:    a5a3a58e    ....    DCD    2778965390
        0x08003830:    a5cba5b7    ....    DCD    2781586871
        0x08003834:    a5f4a5e0    ....    DCD    2784273888
        0x08003838:    a61da609    ....    DCD    2786960905
        0x0800383c:    a646a631    1.F.    DCD    2789647921
        0x08003840:    a66fa65a    Z.o.    DCD    2792334938
        0x08003844:    a698a683    ....    DCD    2795021955
        0x08003848:    a6c1a6ac    ....    DCD    2797708972
        0x0800384c:    a6eaa6d5    ....    DCD    2800395989
        0x08003850:    a713a6fe    ....    DCD    2803083006
        0x08003854:    a73ca727    '.<.    DCD    2805770023
        0x08003858:    a765a750    P.e.    DCD    2808457040
        0x0800385c:    a78ea77a    z...    DCD    2811144058
        0x08003860:    a7b8a7a3    ....    DCD    2813896611
        0x08003864:    a7e1a7cc    ....    DCD    2816583628
        0x08003868:    a80aa7f6    ....    DCD    2819270646
        0x0800386c:    a834a81f    ..4.    DCD    2822023199
        0x08003870:    a85ea849    I.^.    DCD    2824775753
        0x08003874:    a887a872    r...    DCD    2827462770
        0x08003878:    a8b1a89c    ....    DCD    2830215324
        0x0800387c:    a8dba8c6    ....    DCD    2832967878
        0x08003880:    a904a8ef    ....    DCD    2835654895
        0x08003884:    a92ea919    ....    DCD    2838407449
        0x08003888:    a958a943    C.X.    DCD    2841160003
        0x0800388c:    a982a96d    m...    DCD    2843912557
        0x08003890:    a9aca997    ....    DCD    2846665111
        0x08003894:    a9d6a9c1    ....    DCD    2849417665
        0x08003898:    aa00a9eb    ....    DCD    2852170219
        0x0800389c:    aa2aaa15    ..*.    DCD    2854922773
        0x080038a0:    aa54aa3f    ?.T.    DCD    2857675327
        0x080038a4:    aa7faa69    i...    DCD    2860493417
        0x080038a8:    aaa9aa94    ....    DCD    2863245972
        0x080038ac:    aad3aabe    ....    DCD    2865998526
        0x080038b0:    aafeaae8    ....    DCD    2868816616
        0x080038b4:    ab28ab13    ..(.    DCD    2871569171
        0x080038b8:    ab53ab3d    =.S.    DCD    2874387261
        0x080038bc:    ab7dab68    h.}.    DCD    2877139816
        0x080038c0:    aba8ab93    ....    DCD    2879957907
        0x080038c4:    abd2abbd    ....    DCD    2882710461
        0x080038c8:    abfdabe8    ....    DCD    2885528552
        0x080038cc:    ac28ac13    ..(.    DCD    2888346643
        0x080038d0:    ac53ac3d    =.S.    DCD    2891164733
        0x080038d4:    ac7eac68    h.~.    DCD    2893982824
        0x080038d8:    aca9ac93    ....    DCD    2896800915
        0x080038dc:    acd4acbe    ....    DCD    2899619006
        0x080038e0:    acfface9    ....    DCD    2902437097
        0x080038e4:    ad2aad14    ..*.    DCD    2905255188
        0x080038e8:    ad55ad3f    ?.U.    DCD    2908073279
        0x080038ec:    ad80ad6a    j...    DCD    2910891370
        0x080038f0:    adabad96    ....    DCD    2913709462
        0x080038f4:    add7adc1    ....    DCD    2916593089
        0x080038f8:    ae02adec    ....    DCD    2919411180
        0x080038fc:    ae2dae18    ..-.    DCD    2922229272
        0x08003900:    ae59ae43    C.Y.    DCD    2925112899
        0x08003904:    ae84ae6e    n...    DCD    2927930990
        0x08003908:    aeb0ae9a    ....    DCD    2930814618
        0x0800390c:    aedbaec5    ....    DCD    2933632709
        0x08003910:    af07aef1    ....    DCD    2936516337
        0x08003914:    af33af1d    ..3.    DCD    2939399965
        0x08003918:    af5eaf48    H.^.    DCD    2942218056
        0x0800391c:    af8aaf74    t...    DCD    2945101684
        0x08003920:    afb6afa0    ....    DCD    2947985312
        0x08003924:    afe2afcc    ....    DCD    2950868940
        0x08003928:    b00eaff8    ....    DCD    2953752568
        0x0800392c:    b03ab024    $.:.    DCD    2956636196
        0x08003930:    b066b050    P.f.    DCD    2959519824
        0x08003934:    b092b07c    |...    DCD    2962403452
        0x08003938:    b0beb0a8    ....    DCD    2965287080
        0x0800393c:    b0eab0d4    ....    DCD    2968170708
        0x08003940:    b116b100    ....    DCD    2971054336
        0x08003944:    b142b12c    ,.B.    DCD    2973937964
        0x08003948:    b16fb159    Y.o.    DCD    2976887129
        0x0800394c:    b19bb185    ....    DCD    2979770757
        0x08003950:    b1c7b1b1    ....    DCD    2982654385
        0x08003954:    b1f4b1de    ....    DCD    2985603550
        0x08003958:    b220b20a    .. .    DCD    2988487178
        0x0800395c:    b24db237    7.M.    DCD    2991436343
        0x08003960:    b279b263    c.y.    DCD    2994319971
        0x08003964:    b2a6b290    ....    DCD    2997269136
        0x08003968:    b2d3b2bc    ....    DCD    3000218300
        0x0800396c:    b2ffb2e9    ....    DCD    3003101929
        0x08003970:    b32cb316    ..,.    DCD    3006051094
        0x08003974:    b359b343    C.Y.    DCD    3009000259
        0x08003978:    b386b36f    o...    DCD    3011949423
        0x0800397c:    b3b3b39c    ....    DCD    3014898588
        0x08003980:    b3e0b3c9    ....    DCD    3017847753
        0x08003984:    b40db3f6    ....    DCD    3020796918
        0x08003988:    b43ab423    #.:.    DCD    3023746083
        0x0800398c:    b467b450    P.g.    DCD    3026695248
        0x08003990:    b494b47d    }...    DCD    3029644413
        0x08003994:    b4c1b4ab    ....    DCD    3032593579
        0x08003998:    b4eeb4d8    ....    DCD    3035542744
        0x0800399c:    b51cb505    ....    DCD    3038557445
        0x080039a0:    b549b532    2.I.    DCD    3041506610
        0x080039a4:    b576b560    `.v.    DCD    3044455776
        0x080039a8:    b5a4b58d    ....    DCD    3047470477
        0x080039ac:    b5d1b5ba    ....    DCD    3050419642
    pu16SqrtTbl
        0x080039b0:    08000000    ....    DCD    134217728
        0x080039b4:    0ddb0b50    P...    DCD    232459088
        0x080039b8:    11e31000    ....    DCD    300093440
        0x080039bc:    152a1398    ..*.    DCD    355079064
        0x080039c0:    180016a1    ....    DCD    402658977
        0x080039c4:    1a88194c    L...    DCD    445126988
        0x080039c8:    1cd81bb6    ....    DCD    483924918
        0x080039cc:    1efc1def    ....    DCD    519839215
        0x080039d0:    20fc2000    . .     DCD    553394176
        0x080039d4:    22df21f1    .!."    DCD    585048561
        0x080039d8:    24a923c7    .#.$    DCD    615064519
        0x080039dc:    265e2586    .%^&    DCD    643704198
        0x080039e0:    28002731    1'.(    DCD    671098673
        0x080039e4:    299228cb    .(.)    DCD    697444555
        0x080039e8:    2b152a55    U*.+    DCD    722807381
        0x080039ec:    2c8b2bd1    .+.,    DCD    747318225
        0x080039f0:    2df52d41    A-.-    DCD    771042625
        0x080039f4:    2f542ea6    ..T/    DCD    794046118
        0x080039f8:    30a93000    .0.0    DCD    816394240
        0x080039fc:    31f63151    Q1.1    DCD    838218065
        0x08003a00:    33393298    .293    DCD    859386520
        0x08003a04:    347533d8    .3u4    DCD    880096216
        0x08003a08:    35aa3511    .5.5    DCD    900347153
        0x08003a0c:    36d83642    B6.6    DCD    920139330
        0x08003a10:    3800376d    m7.8    DCD    939538285
        0x08003a14:    39213891    .8!9    DCD    958478481
        0x08003a18:    3a3d39b0    .9=:    DCD    977090992
        0x08003a1c:    3b543ac9    .:T;    DCD    995375817
        0x08003a20:    3c663bde    .;f<    DCD    1013332958
        0x08003a24:    3d733ced    .<s=    DCD    1030962413
        0x08003a28:    3e7b3df7    .={>    DCD    1048264183
        0x08003a2c:    3f7f3efe    .>.?    DCD    1065303806
        0x08003a30:    407f4000    .@.@    DCD    1082081280
        0x08003a34:    417b40fe    .@{A    DCD    1098596606
        0x08003a38:    427441f8    .AtB    DCD    1114915320
        0x08003a3c:    436842ef    .BhC    DCD    1130906351
        0x08003a40:    445a43e2    .CZD    DCD    1146766306
        0x08003a44:    454844d1    .DHE    DCD    1162364113
        0x08003a48:    463345be    .E3F    DCD    1177765310
        0x08003a4c:    471b46a7    .F.G    DCD    1192969895
        0x08003a50:    4800478e    .G.H    DCD    1207977870
        0x08003a54:    48e24871    qH.H    DCD    1222789233
        0x08003a58:    49c14952    RI.I    DCD    1237403986
        0x08003a5c:    4a9e4a30    0J.J    DCD    1251887664
        0x08003a60:    4b784b0c    .KxK    DCD    1266174732
        0x08003a64:    4c504be5    .KPL    DCD    1280330725
        0x08003a68:    4d264cbb    .L&M    DCD    1294355643
        0x08003a6c:    4df94d90    .M.M    DCD    1308183952
        0x08003a70:    4eca4e62    bN.N    DCD    1321881186
        0x08003a74:    4f994f32    2O.O    DCD    1335447346
        0x08003a78:    50665000    .PfP    DCD    1348882432
        0x08003a7c:    513150cb    .P1Q    DCD    1362186443
        0x08003a80:    51f95195    .Q.Q    DCD    1375293845
        0x08003a84:    52c0525d    ]R.R    DCD    1388335709
        0x08003a88:    53855323    #S.S    DCD    1401246499
        0x08003a8c:    544953e7    .SIT    DCD    1414091751
        0x08003a90:    550a54aa    .T.U    DCD    1426740394
        0x08003a94:    55ca556a    jU.U    DCD    1439323498
        0x08003a98:    56885629    )V.V    DCD    1451775529
        0x08003a9c:    574556e7    .VEW    DCD    1464162023
        0x08003aa0:    580057a2    .W.X    DCD    1476417442
        0x08003aa4:    58b9585d    ]X.X    DCD    1488541789
        0x08003aa8:    59715915    .YqY    DCD    1500600597
        0x08003aac:    5a2759cc    .Y'Z    DCD    1512528332
        0x08003ab0:    5adc5a82    .Z.Z    DCD    1524390530
        0x08003ab4:    5b905b36    6[.[    DCD    1536187190
        0x08003ab8:    5c425be9    .[B\    DCD    1547852777
        0x08003abc:    5cf35c9b    .\.\    DCD    1559452827
        0x08003ac0:    5da35d4b    K].]    DCD    1570987339
        0x08003ac4:    5e515dfa    .]Q^    DCD    1582390778
        0x08003ac8:    5efe5ea8    .^.^    DCD    1593728680
        0x08003acc:    5faa5f54    T_._    DCD    1605001044
        0x08003ad0:    60556000    .`U`    DCD    1616207872
        0x08003ad4:    60fe60aa    .`.`    DCD    1627283626
        0x08003ad8:    61a76153    Sa.a    DCD    1638359379
        0x08003adc:    624e61fa    .aNb    DCD    1649304058
        0x08003ae0:    62f462a1    .b.b    DCD    1660183201
        0x08003ae4:    63996347    Gc.c    DCD    1670996807
        0x08003ae8:    643d63eb    .c=d    DCD    1681744875
        0x08003aec:    64e0648f    .d.d    DCD    1692427407
        0x08003af0:    65826531    1e.e    DCD    1703044401
        0x08003af4:    662365d2    .e#f    DCD    1713595858
        0x08003af8:    66c36673    sf.f    DCD    1724081779
        0x08003afc:    67626712    .gbg    DCD    1734502162
        0x08003b00:    680067b1    .g.h    DCD    1744857009
        0x08003b04:    689d684e    Nh.h    DCD    1755146318
        0x08003b08:    693968eb    .h9i    DCD    1765370091
        0x08003b0c:    69d46987    .i.i    DCD    1775528327
        0x08003b10:    6a6e6a21    !jnj    DCD    1785621025
        0x08003b14:    6b086abb    .j.k    DCD    1795713723
        0x08003b18:    6ba16b54    Tk.k    DCD    1805740884
        0x08003b1c:    6c386bed    .k8l    DCD    1815636973
        0x08003b20:    6ccf6c84    .l.l    DCD    1825533060
        0x08003b24:    6d666d1b    .mfm    DCD    1835429147
        0x08003b28:    6dfb6db0    .m.m    DCD    1845194160
        0x08003b2c:    6e8f6e45    En.n    DCD    1854893637
        0x08003b30:    6f236ed9    .n#o    DCD    1864593113
        0x08003b34:    6fb66f6d    mo.o    DCD    1874227053
        0x08003b38:    70497000    .pIp    DCD    1883860992
        0x08003b3c:    70da7091    .p.p    DCD    1893363857
        0x08003b40:    716b7123    #qkq    DCD    1902866723
        0x08003b44:    71fb71b3    .q.q    DCD    1912304051
        0x08003b48:    728a7243    Cr.r    DCD    1921675843
        0x08003b4c:    731972d2    .r.s    DCD    1931047634
        0x08003b50:    73a77360    `s.s    DCD    1940353888
        0x08003b54:    743473ee    .s4t    DCD    1949594606
        0x08003b58:    74c1747b    {t.t    DCD    1958835323
        0x08003b5c:    754d7507    .uMu    DCD    1968010503
        0x08003b60:    75d87593    .u.u    DCD    1977120147
        0x08003b64:    7663761e    .vcv    DCD    1986229790
        0x08003b68:    76ed76a8    .v.v    DCD    1995273896
        0x08003b6c:    77777732    2www    DCD    2004318002
        0x08003b70:    780077bb    .w.x    DCD    2013296571
        0x08003b74:    78887844    Dx.x    DCD    2022209604
        0x08003b78:    790f78cc    .x.y    DCD    2031057100
        0x08003b7c:    79967953    Sy.y    DCD    2039904595
        0x08003b80:    7a1d79da    .y.z    DCD    2048752090
        0x08003b84:    7aa37a60    `z.z    DCD    2057534048
        0x08003b88:    7b287ae5    .z({    DCD    2066250469
        0x08003b8c:    7bad7b6b    k{.{    DCD    2074966891
        0x08003b90:    7c317bef    .{1|    DCD    2083617775
        0x08003b94:    7cb57c73    s|.|    DCD    2092268659
        0x08003b98:    7d387cf6    .|8}    DCD    2100854006
        0x08003b9c:    7dba7d79    y}.}    DCD    2109373817
        0x08003ba0:    7e3c7dfb    .}<~    DCD    2117893627
        0x08003ba4:    7ebe7e7d    }~.~    DCD    2126413437
        0x08003ba8:    7f3f7efe    .~?.    DCD    2134867710
        0x08003bac:    7fbf7f7f    ....    DCD    2143256447
        0x08003bb0:    00007fff    ....    DCD    32767
    Region$$Table$$Base
        0x08003bb4:    08003bd4    .;..    DCD    134233044
        0x08003bb8:    20000000    ...     DCD    536870912
        0x08003bbc:    000000cc    ....    DCD    204
        0x08003bc0:    08002cac    .,..    DCD    134229164
        0x08003bc4:    08003ca0    .<..    DCD    134233248
        0x08003bc8:    200000cc    ...     DCD    536871116
        0x08003bcc:    000006e4    ....    DCD    1764
        0x08003bd0:    08002cbc    .,..    DCD    134229180
    Region$$Table$$Limit

** Section #2 'RW_IRAM1' (SHT_PROGBITS) [SHF_ALLOC + SHF_WRITE]
    Size   : 204 bytes (alignment 8)
    Address: 0x20000000


** Section #3 'RW_IRAM1' (SHT_NOBITS) [SHF_ALLOC + SHF_WRITE]
    Size   : 1764 bytes (alignment 8)
    Address: 0x200000cc


** Section #4 '.debug_abbrev' (SHT_PROGBITS)
    Size   : 1476 bytes


** Section #5 '.debug_frame' (SHT_PROGBITS)
    Size   : 3440 bytes


** Section #6 '.debug_info' (SHT_PROGBITS)
    Size   : 156624 bytes


** Section #7 '.debug_line' (SHT_PROGBITS)
    Size   : 30640 bytes


** Section #8 '.debug_loc' (SHT_PROGBITS)
    Size   : 8772 bytes


** Section #9 '.debug_macinfo' (SHT_PROGBITS)
    Size   : 115936 bytes


** Section #10 '.debug_pubnames' (SHT_PROGBITS)
    Size   : 5139 bytes


** Section #11 '.symtab' (SHT_SYMTAB)
    Size   : 10688 bytes (alignment 4)
    String table #12 '.strtab'
    Last local symbol no. 504


** Section #12 '.strtab' (SHT_STRTAB)
    Size   : 9196 bytes


** Section #13 '.note' (SHT_NOTE)
    Size   : 28 bytes (alignment 4)


** Section #14 '.comment' (SHT_PROGBITS)
    Size   : 44320 bytes


** Section #15 '.shstrtab' (SHT_STRTAB)
    Size   : 156 bytes


address     size       variable name                            type
0x200000be  0x2        g_MyLinIfcStatus                         l_u16

address     size       variable name                            type
0x200000c0  0x2        g_busIdleTimeoutCounter                  l_u16

address     size       variable name                            type
0x200000c8  0x4        g_currentFramePointer                    pointer to const ConfigFrame

address     size       variable name                            type
0x200003a0  0xa        g_dataBuffTmp                            array[10] of l_u8

address     size       variable name                            type
0x200000bc  0x1        g_frameErr                               l_u8

address     size       variable name                            type
0x200000c2  0x3        g_myLinStatus                            volatile LINStatus
0x200000c2  0x1        g_myLinStatus.networkState               l_u8
0x200000c3  0x1        g_myLinStatus.protocolState              l_u8
0x200000c4  0x1        g_myLinStatus.task                       l_u8

address     size       variable name                            type
0x200000bd  0x1        g_nowFrameExpectedByte                   l_u8

address     size       variable name                            type
0x20000330  0x70       tCurrSample1rps                          tCurrSample1RPS
0x20000330  0x8        tCurrSample1rps.RefPU                    Reference
0x20000330  0x2        tCurrSample1rps.RefPU.CurrentRef         int16_t
0x20000332  0x2        tCurrSample1rps.RefPU.VqRef              int16_t
0x20000334  0x2        tCurrSample1rps.RefPU.DutyRef            int16_t
0x20000336  0x2        tCurrSample1rps.RefPU.SpeedRPMRef        int16_t
0x20000338  0x50       tCurrSample1rps.UVWCurrRecon             CurReconStruct
0x20000338  0x30       tCurrSample1rps.UVWCurrRecon.UVWData     SeqData
0x20000338  0x18       tCurrSample1rps.UVWCurrRecon.UVWData.DataArr array[3] of array[2] of int32_t
0x20000350  0x18       tCurrSample1rps.UVWCurrRecon.UVWData.DataArrPrev array[3] of array[2] of int32_t
0x20000368  0x2        tCurrSample1rps.UVWCurrRecon.IuOffset    int16_t
0x2000036a  0x2        tCurrSample1rps.UVWCurrRecon.IvOffset    int16_t
0x2000036c  0x2        tCurrSample1rps.UVWCurrRecon.IwOffset    int16_t
0x2000036e  0x2        tCurrSample1rps.UVWCurrRecon.I0Temp      int16_t
0x20000370  0x2        tCurrSample1rps.UVWCurrRecon.I1Temp      int16_t
0x20000372  0x2        tCurrSample1rps.UVWCurrRecon.I0Temp0     int16_t
0x20000374  0x2        tCurrSample1rps.UVWCurrRecon.I1Temp0     int16_t
0x20000376  0x2        tCurrSample1rps.UVWCurrRecon.SSMode      int16_t
0x20000378  0x2        tCurrSample1rps.UVWCurrRecon.SSModePre   int16_t
0x2000037a  0x2        tCurrSample1rps.UVWCurrRecon.t1          int16_t
0x2000037c  0x2        tCurrSample1rps.UVWCurrRecon.t2          int16_t
0x2000037e  0x2        tCurrSample1rps.UVWCurrRecon.t3          int16_t
0x20000380  0x2        tCurrSample1rps.UVWCurrRecon.t4          int16_t
0x20000382  0x2        tCurrSample1rps.UVWCurrRecon.t5          int16_t
0x20000384  0x2        tCurrSample1rps.UVWCurrRecon.t6          int16_t
0x20000386  0x2        tCurrSample1rps.UVWCurrRecon.t7          int16_t
0x20000388  0x18       tCurrSample1rps.Signal                   IUInfoTemplate
0x20000388  0x2        tCurrSample1rps.Signal.Iu                int16_t
0x2000038a  0x2        tCurrSample1rps.Signal.Iv                int16_t
0x2000038c  0x2        tCurrSample1rps.Signal.Iw                int16_t
0x2000038e  0x2        tCurrSample1rps.Signal.IuPrev            int16_t
0x20000390  0x2        tCurrSample1rps.Signal.IvPrev            int16_t
0x20000392  0x2        tCurrSample1rps.Signal.IwPrev            int16_t
0x20000394  0x2        tCurrSample1rps.Signal.IuOffset          int16_t
0x20000396  0x2        tCurrSample1rps.Signal.TP1               int16_t
0x20000398  0x2        tCurrSample1rps.Signal.TP2               int16_t
0x2000039a  0x2        tCurrSample1rps.Signal.DtyPhaseU         int16_t
0x2000039c  0x2        tCurrSample1rps.Signal.DtyPhaseV         int16_t
0x2000039e  0x2        tCurrSample1rps.Signal.DtyPhaseW         int16_t

address     size       variable name                            type
0x0800319c  0x814      ValAmpTab                                array[1034] of const uint16_t

address     size       variable name                            type
0x200000b8  0x4        ValAtanTab                               pointer to const uint16_t

address     size       variable name                            type
0x200000b4  0x4        ValSinTab_1                              pointer to const uint16_t

address     size       variable name                            type
0x00000000  0x30       f16AtanCoef1                             const MM_ATAN_T_F16
0x00000000  0x30       f16AtanCoef1.NSMC_ATAN_SECTOR            array[8] of const MM_ATAN_TAYLOR_COEF_T_F16

address     size       variable name                            type
0x080039b0  0x202      pu16SqrtTbl                              array[257] of const uint16_t

address     size       variable name                            type
0x2000031c  0x14       tFaultCfg                                Fault_config_t
0x2000031c  0x2        tFaultCfg.i16SftOVTh                     int16_t
0x2000031e  0x2        tFaultCfg.i16SftPreOVTh                  int16_t
0x20000320  0x2        tFaultCfg.i16SftUVTh                     int16_t
0x20000322  0x2        tFaultCfg.i16SftPreUVTh                  int16_t
0x20000324  0x2        tFaultCfg.i16SftOTTh                     int16_t
0x20000326  0x2        tFaultCfg.i16SftOTRecTh                  int16_t
0x20000328  0x2        tFaultCfg.i16SftOTSTTh                   int16_t
0x2000032a  0x2        tFaultCfg.i16SftOTSTRecTh                int16_t
0x2000032c  0x2        tFaultCfg.i16SftUTTh                     int16_t
0x2000032e  0x2        tFaultCfg.i16FltHystTimes                int16_t

address     size       variable name                            type
0x200000a6  0x8        g_i16DcCur                               array[4] of int16_t

address     size       variable name                            type
0x2000007e  0x2        g_i16Dcoft                               int16_t

address     size       variable name                            type
0x200000a0  0x6        g_i16PhsVol                              array[3] of int16_t

address     size       variable name                            type
0x2000009c  0x4        tFaultMode                               Fault_Mode_t
0x2000009c  0x4        tFaultMode.                              anonymous
0x2000009c  0x4        tFaultMode..u32FaultMode                 uint32_t
0x2000009c  0x4        tFaultMode..FM_b                         anonymous
0x2000009c  0x4(31:1)  tFaultMode..FM_b.VBUS_HOV                uint32_t
0x2000009c  0x4(30:1)  tFaultMode..FM_b.VBUS_HUV                uint32_t
0x2000009c  0x4(29:1)  tFaultMode..FM_b.VBUS_SOV                uint32_t
0x2000009c  0x4(28:1)  tFaultMode..FM_b.VBUS_SPREOV             uint32_t
0x2000009c  0x4(27:1)  tFaultMode..FM_b.VBUS_SOVREC             uint32_t
0x2000009c  0x4(26:1)  tFaultMode..FM_b.VBUS_SUV                uint32_t
0x2000009c  0x4(25:1)  tFaultMode..FM_b.VBUS_SPREUV             uint32_t
0x2000009c  0x4(24:1)  tFaultMode..FM_b.VBUS_SUVREC             uint32_t
0x2000009c  0x4(23:1)  tFaultMode..FM_b.MOT_STALL               uint32_t
0x2000009c  0x4(22:1)  tFaultMode..FM_b.MOT_HOC                 uint32_t
0x2000009c  0x4(21:1)  tFaultMode..FM_b.MOT_SOC                 uint32_t
0x2000009c  0x4(20:1)  tFaultMode..FM_b.ECU_HOT                 uint32_t
0x2000009c  0x4(19:1)  tFaultMode..FM_b.ECU_SOT                 uint32_t
0x2000009c  0x4(18:1)  tFaultMode..FM_b.ECU_SOTREC              uint32_t
0x2000009c  0x4(17:1)  tFaultMode..FM_b.ECU_SOTST               uint32_t
0x2000009c  0x4(16:1)  tFaultMode..FM_b.ECU_SOTSTREC            uint32_t
0x2000009c  0x4(15:1)  tFaultMode..FM_b.ECU_SUT                 uint32_t
0x2000009c  0x4(14:1)  tFaultMode..FM_b.ECU_SUTREC              uint32_t
0x2000009c  0x4(13:1)  tFaultMode..FM_b.CP_OV                   uint32_t
0x2000009c  0x4(12:1)  tFaultMode..FM_b.CP_UV                   uint32_t
0x2000009c  0x4(11:1)  tFaultMode..FM_b.BSW_COIL_SHRT_GND       uint32_t
0x2000009c  0x4(10:1)  tFaultMode..FM_b.TSW_COIL_SHRT_BAT       uint32_t
0x2000009c  0x4(9:1)   tFaultMode..FM_b.BSW_COIL_OPEN           uint32_t
0x2000009c  0x4(8:1)   tFaultMode..FM_b.TSW_OPEN_COIL_SHRT      uint32_t
0x2000009c  0x4(0:8)   tFaultMode..FM_b.__reserved              uint32_t

address     size       variable name                            type
0x2000029c  0x80       g_NVRProgramDatabuffer                   array[32] of uint32_t

address     size       variable name                            type
0x00000000  0x10       g_stBootInfo                             const BootInfo
0x00000000  0x1        g_stBootInfo.infoDataLen                 uint8_t
0x00000001  0x1        g_stBootInfo.requestEnterBootloader      uint8_t
0x00000002  0x1      * g_stBootInfo.downloadAPPSuccessful       uint8_t
0x00000004  0x4        g_stBootInfo.infoStartAddr               uint32_t
0x00000008  0x4        g_stBootInfo.requestEnterBootloaderAddr  uint32_t
0x0000000c  0x4        g_stBootInfo.downloadAppSuccessfulAddr   uint32_t

address     size       variable name                            type
0x0800316c  0x30       g_SID2Callbacks                          array[6] of const SidToConfigFunc

address     size       variable name                            type
0x20000074  0x4        g_adcBaseAddr                            uint32_t

address     size       variable name                            type
0x2000006a  0x1        g_adcCfgStoreFlg                         l_u8

address     size       variable name                            type
0x20000078  0x4        g_adcIENBuf                              uint32_t

address     size       variable name                            type
0x20000268  0x34       g_adcRegBuf                              array[13] of uint32_t

address     size       variable name                            type
0x20000069  0x1        g_bsmBit                                 l_u8

address     size       variable name                            type
0x20000068  0x1        g_bsmNodeState                           l_u8

address     size       variable name                            type
0x20000065  0x1        g_nad                                    l_u8

address     size       variable name                            type
0x20000066  0x1        g_saveNADRequest                         l_u8

address     size       variable name                            type
0x20000067  0x1        g_savePIDRequest                         l_u8

address     size       variable name                            type
0x20000064  0x1        g_sendingResponseForConfig               l_u8

address     size       variable name                            type
0x2000006c  0x2        g_tpLayerNCrTimeout                      l_u16

address     size       variable name                            type
0x08003132  0x8        g_configMessageIDTable                   array[4] of const l_u16

address     size       variable name                            type
0x2000003c  0x8        g_linFrameDataBufferOf_ID56              array[8] of l_u8

address     size       variable name                            type
0x20000044  0x8        g_linFrameDataBufferOf_ID57              array[8] of l_u8

address     size       variable name                            type
0x20000052  0x8        g_linFrameDataBufferOf_ID60              array[8] of l_u8

address     size       variable name                            type
0x2000005a  0x8        g_linFrameDataBufferOf_ID61              array[8] of l_u8

address     size       variable name                            type
0x0800313c  0x30       g_nodeConfigFrameTable                   array[6] of const ConfigFrame

address     size       variable name                            type
0x2000004c  0x6        g_nodeFramePIDTable                      array[6] of l_u8

address     size       variable name                            type
0x0800312c  0x6        g_productIdentifier                      const ProductIdentifier
0x0800312c  0x2        g_productIdentifier.supplierID           l_u16
0x0800312e  0x2        g_productIdentifier.functionID           l_u16
0x08003130  0x1        g_productIdentifier.variantID            l_u8

address     size       variable name                            type
0x08003128  0x4        g_serialNumber                           array[4] of const l_u8

address     size       variable name                            type
0x20000038  0x4        g_tATCPCtrl                              ATCP_Ctrl_t
0x20000038  0x4        g_tATCPCtrl.                             anonymous
0x20000038  0x4        g_tATCPCtrl..u32CtrlWord1                uint32_t
0x20000038  0x4        g_tATCPCtrl..CW_b                        anonymous
0x20000038  0x4(16:16) g_tATCPCtrl..CW_b.NTagRotPump            uint32_t
0x20000038  0x4(8:8)   g_tATCPCtrl..CW_b.DCTagPWM               uint32_t
0x20000038  0x4(0:8)   g_tATCPCtrl..CW_b.CMDPumpAction          uint32_t

address     size       variable name                            type
0x20000030  0x8        g_tATCPState                             ATCP_Status_t
0x20000030  0x8        g_tATCPState.                            anonymous
0x20000030  0x8        g_tATCPState..u64StateLongWord1          uint64_t
0x20000030  0x8        g_tATCPState..AS_b                       anonymous
0x20000030  0x4(16:16) g_tATCPState..AS_b.NMeaRotPump           uint32_t
0x20000030  0x4(0:16)  g_tATCPState..AS_b.TempATCP              uint32_t
0x20000034  0x4(24:8)  g_tATCPState..AS_b.DCCurrentPWM          uint32_t
0x20000034  0x4(16:8)  g_tATCPState..AS_b.ActualVS              uint32_t
0x20000034  0x4(0:16)  g_tATCPState..AS_b.IMeaAvgPump           uint32_t

address     size       variable name                            type
0x20000028  0x1        g_updateCtrlCmd                          l_u8

address     size       variable name                            type
0x08002fa0  0x188      pStateFuncTable                          array[14] of array[7] of const pFunc_t

address     size       variable name                            type
0x20000024  0x4        CL_SpeedRampDec                          volatile Frac32_t

address     size       variable name                            type
0x20000020  0x4        CL_SpeedRampInc                          volatile Frac32_t

address     size       variable name                            type
0x2000001c  0x4        OL_SpeedRampInc                          volatile Frac32_t

address     size       variable name                            type
0x20000012  0x2        PWMPeriod                                uint16_t

address     size       variable name                            type
0x20000014  0x2        g_u16SampleSlot                          uint16_t

address     size       variable name                            type
0x200000cc  0x19c      tDrvFoc                                  FOC_Driver_t
0x200000cc  0x2        tDrvFoc.tAppState                        APP_State_Transfer_t
0x200000cc  0x1        tDrvFoc.tAppState.tStatus                AppStates
0x200000cd  0x1        tDrvFoc.tAppState.tEvent                 AppEvents
0x200000ce  0x2        tDrvFoc.u16AlignCntr                     uint16_t
0x200000d0  0x2        tDrvFoc.u16AlignVoltage                  uint16_t
0x200000d2  0x2        tDrvFoc.u16CalibCntr                     uint16_t
0x200000d4  0x4        tDrvFoc.i32CalibSum                      int32_t
0x200000d8  0x2        tDrvFoc.i16AdcOffset                     int16_t
0x200000da  0x10       tDrvFoc.i16AdcRaw                        array[8] of int16_t
0x200000ea  0x2        tDrvFoc.f16DcBusFilt                     Frac16_t
0x200000ec  0x2        tDrvFoc.i16DcBusRaw                      int16_t
0x200000ee  0x2        tDrvFoc.i16IntTemp                       int16_t
0x200000f0  0x2        tDrvFoc.u16NormalRunTime                 uint16_t
0x200000f2  0x2        tDrvFoc.f16ExtSpeed                      Frac16_t
0x200000f4  0x6        tDrvFoc.tIabcFbck                        CTD_3SystF16_t
0x200000f4  0x2        tDrvFoc.tIabcFbck.f16Arg1                int16_t
0x200000f6  0x2        tDrvFoc.tIabcFbck.f16Arg2                int16_t
0x200000f8  0x2        tDrvFoc.tIabcFbck.f16Arg3                int16_t
0x200000fa  0x4        tDrvFoc.tIAlBeFbck                       CTD_2SystF16_t
0x200000fa  0x2        tDrvFoc.tIAlBeFbck.f16Arg1               int16_t
0x200000fc  0x2        tDrvFoc.tIAlBeFbck.f16Arg2               int16_t
0x200000fe  0x4        tDrvFoc.tIDQFbck                         CTD_2SystF16_t
0x200000fe  0x2        tDrvFoc.tIDQFbck.f16Arg1                 int16_t
0x20000100  0x2        tDrvFoc.tIDQFbck.f16Arg2                 int16_t
0x20000102  0x4        tDrvFoc.tIDQErr                          CTD_2SystF16_t
0x20000102  0x2        tDrvFoc.tIDQErr.f16Arg1                  int16_t
0x20000104  0x2        tDrvFoc.tIDQErr.f16Arg2                  int16_t
0x20000106  0x4        tDrvFoc.tIDQReq                          CTD_2SystF16_t
0x20000106  0x2        tDrvFoc.tIDQReq.f16Arg1                  int16_t
0x20000108  0x2        tDrvFoc.tIDQReq.f16Arg2                  int16_t
0x2000010a  0x4        tDrvFoc.tUDQReq                          CTD_2SystF16_t
0x2000010a  0x2        tDrvFoc.tUDQReq.f16Arg1                  int16_t
0x2000010c  0x2        tDrvFoc.tUDQReq.f16Arg2                  int16_t
0x2000010e  0x4        tDrvFoc.tUAlBeReq                        CTD_2SystF16_t
0x2000010e  0x2        tDrvFoc.tUAlBeReq.f16Arg1                int16_t
0x20000110  0x2        tDrvFoc.tUAlBeReq.f16Arg2                int16_t
0x20000112  0x4        tDrvFoc.tUAlBeReqDCB                     CTD_2SystF16_t
0x20000112  0x2        tDrvFoc.tUAlBeReqDCB.f16Arg1             int16_t
0x20000114  0x2        tDrvFoc.tUAlBeReqDCB.f16Arg2             int16_t
0x20000116  0x4        tDrvFoc.tThetaTransform                  MM_PolarTrigono_t
0x20000116  0x2        tDrvFoc.tThetaTransform.f16Sin           Frac16_t
0x20000118  0x2      * tDrvFoc.tThetaTransform.f16Cos           Frac16_t
0x2000011c  0x10       tDrvFoc.tAxisDCtrl                       GCF_CtrlPIAW_RTF16_t
0x2000011c  0x2        tDrvFoc.tAxisDCtrl.f16CC1sc              Frac16_t
0x2000011e  0x2        tDrvFoc.tAxisDCtrl.f16CC2sc              Frac16_t
0x20000120  0x2        tDrvFoc.tAxisDCtrl.f16InErrK1            Frac16_t
0x20000122  0x2        tDrvFoc.tAxisDCtrl.f16UpperLimit         Frac16_t
0x20000124  0x2        tDrvFoc.tAxisDCtrl.f16LowerLimit         Frac16_t
0x20000126  0x2        tDrvFoc.tAxisDCtrl.u16NShift             uint16_t
0x20000128  0x4        tDrvFoc.tAxisDCtrl.f32Acc                Frac32_t
0x2000012c  0x10       tDrvFoc.tAxisQCtrl                       GCF_CtrlPIAW_RTF16_t
0x2000012c  0x2        tDrvFoc.tAxisQCtrl.f16CC1sc              Frac16_t
0x2000012e  0x2        tDrvFoc.tAxisQCtrl.f16CC2sc              Frac16_t
0x20000130  0x2        tDrvFoc.tAxisQCtrl.f16InErrK1            Frac16_t
0x20000132  0x2        tDrvFoc.tAxisQCtrl.f16UpperLimit         Frac16_t
0x20000134  0x2        tDrvFoc.tAxisQCtrl.f16LowerLimit         Frac16_t
0x20000136  0x2        tDrvFoc.tAxisQCtrl.u16NShift             uint16_t
0x20000138  0x4        tDrvFoc.tAxisQCtrl.f32Acc                Frac32_t
0x2000013c  0x14       tDrvFoc.tSpeedCtrl                       GCF_CtrlPIAW_PTF16_t
0x2000013c  0x2        tDrvFoc.tSpeedCtrl.f16PropGain           Frac16_t
0x2000013e  0x2        tDrvFoc.tSpeedCtrl.f16IntegGain          Frac16_t
0x20000140  0x2        tDrvFoc.tSpeedCtrl.s16PropGainShift      int16_t
0x20000142  0x2        tDrvFoc.tSpeedCtrl.s16IntegGainShift     int16_t
0x20000144  0x2        tDrvFoc.tSpeedCtrl.f16LowerLimit         Frac16_t
0x20000146  0x2        tDrvFoc.tSpeedCtrl.f16UpperLimit         Frac16_t
0x20000148  0x2        tDrvFoc.tSpeedCtrl.f16InK_1              Frac16_t
0x2000014a  0x2        tDrvFoc.tSpeedCtrl.u16LimitFlag          uint16_t
0x2000014c  0x4        tDrvFoc.tSpeedCtrl.f32IntegPartK_1       Frac32_t
0x20000150  0x6        tDrvFoc.tSpeedRamp                       GCF_Ramp_F16_t
0x20000150  0x2        tDrvFoc.tSpeedRamp.f16State              Frac16_t
0x20000152  0x2        tDrvFoc.tSpeedRamp.f16RampUp             Frac16_t
0x20000154  0x2      * tDrvFoc.tSpeedRamp.f16RampDown           Frac16_t
0x20000158  0x20       tDrvFoc.tPospeControl                    FOC_PospeCtrl_t
0x20000158  0x2        tDrvFoc.tPospeControl.f16ThetaRotEl      Frac16_t
0x2000015a  0x2        tDrvFoc.tPospeControl.f16wRotE1          Frac16_t
0x2000015c  0x2        tDrvFoc.tPospeControl.f16wRotE1Filt      Frac16_t
0x2000015e  0x2        tDrvFoc.tPospeControl.f16wRotElReq       Frac16_t
0x20000160  0x2        tDrvFoc.tPospeControl.f16wRotElReqRamp   Frac16_t
0x20000162  0x2        tDrvFoc.tPospeControl.f16wRotElErr       Frac16_t
0x20000164  0x2      * tDrvFoc.tPospeControl.i16SpeedLoopCntr   int16_t
0x20000168  0x10       tDrvFoc.tPospeControl.twRotFilter        GCF_Filter1_LPF16_t
0x20000168  0x2        tDrvFoc.tPospeControl.twRotFilter.f16C1  Frac16_t
0x2000016a  0x2        tDrvFoc.tPospeControl.twRotFilter.f16C2  Frac16_t
0x2000016c  0x2        tDrvFoc.tPospeControl.twRotFilter.f16State Frac16_t
0x2000016e  0x2        tDrvFoc.tPospeControl.twRotFilter.s16NShift Frac16_t
0x20000170  0x2      * tDrvFoc.tPospeControl.twRotFilter.f16NSample Frac16_t
0x20000174  0x4        tDrvFoc.tPospeControl.twRotFilter.f32Acc Frac32_t
0x20000178  0x18       tDrvFoc.tPospeOpenloop                   FOC_Openloop_t
0x20000178  0x2        tDrvFoc.tPospeOpenloop.f16ThetaRotEl     Frac16_t
0x2000017a  0x2        tDrvFoc.tPospeOpenloop.f16wRotE1         Frac16_t
0x2000017c  0x2        tDrvFoc.tPospeOpenloop.f16IQUpperLimit   Frac16_t
0x2000017e  0x2        tDrvFoc.tPospeOpenloop.f16IQLowerLimit   Frac16_t
0x20000180  0x2      * tDrvFoc.tPospeOpenloop.f16ThetaDifOplpEstm Frac16_t
0x20000184  0xc        tDrvFoc.tPospeOpenloop.tOplpInteg        GCF_Integrator_TRF16_t
0x20000184  0x2        tDrvFoc.tPospeOpenloop.tOplpInteg.f16InK1 Frac16_t
0x20000186  0x2        tDrvFoc.tPospeOpenloop.tOplpInteg.f16C1  Frac16_t
0x20000188  0x2      * tDrvFoc.tPospeOpenloop.tOplpInteg.u16NShift uint16_t
0x2000018c  0x4        tDrvFoc.tPospeOpenloop.tOplpInteg.f32State Frac32_t
0x20000190  0x80       tDrvFoc.tPospeSensorless                 FOC_SensorlessCtrl_t
0x20000190  0x2        tDrvFoc.tPospeSensorless.f16ThetaRotEl   Frac16_t
0x20000192  0x2        tDrvFoc.tPospeSensorless.f16wRotE1       Frac16_t
0x20000194  0x2        tDrvFoc.tPospeSensorless.f16wRotElMatch_1 Frac16_t
0x20000196  0x2        tDrvFoc.tPospeSensorless.f16wRotElMatch_2 Frac16_t
0x20000198  0x2        tDrvFoc.tPospeSensorless.f16DQtoGaDeError Frac16_t
0x2000019a  0x2        tDrvFoc.tPospeSensorless.f16IQUpperLimit Frac16_t
0x2000019c  0x2        tDrvFoc.tPospeSensorless.f16IQLowerLimit Frac16_t
0x2000019e  0x2        tDrvFoc.tPospeSensorless.u16sensorlessCnt uint16_t
0x200001a0  0x70       tDrvFoc.tPospeSensorless.tBemfObsvr      AMC_BemfcObsvrDQ_t
0x200001a0  0x4        tDrvFoc.tPospeSensorless.tBemfObsvr.ptEObsrv CTD_2SystF16_t
0x200001a0  0x2        tDrvFoc.tPospeSensorless.tBemfObsvr.ptEObsrv.f16Arg1 int16_t
0x200001a2  0x2        tDrvFoc.tPospeSensorless.tBemfObsvr.ptEObsrv.f16Arg2 int16_t
0x200001a4  0x8        tDrvFoc.tPospeSensorless.tBemfObsvr.ptIObsrv CTD_2SystF32_t
0x200001a4  0x4        tDrvFoc.tPospeSensorless.tBemfObsvr.ptIObsrv.f32Arg1 uint32_t
0x200001a8  0x4        tDrvFoc.tPospeSensorless.tBemfObsvr.ptIObsrv.f32Arg2 uint32_t
0x200001ac  0x10       tDrvFoc.tPospeSensorless.tBemfObsvr.tDeltaPIEmfCtrl GCF_CtrlPIAW_RTF16_t
0x200001ac  0x2        tDrvFoc.tPospeSensorless.tBemfObsvr.tDeltaPIEmfCtrl.f16CC1sc Frac16_t
0x200001ae  0x2        tDrvFoc.tPospeSensorless.tBemfObsvr.tDeltaPIEmfCtrl.f16CC2sc Frac16_t
0x200001b0  0x2        tDrvFoc.tPospeSensorless.tBemfObsvr.tDeltaPIEmfCtrl.f16InErrK1 Frac16_t
0x200001b2  0x2        tDrvFoc.tPospeSensorless.tBemfObsvr.tDeltaPIEmfCtrl.f16UpperLimit Frac16_t
0x200001b4  0x2        tDrvFoc.tPospeSensorless.tBemfObsvr.tDeltaPIEmfCtrl.f16LowerLimit Frac16_t
0x200001b6  0x2        tDrvFoc.tPospeSensorless.tBemfObsvr.tDeltaPIEmfCtrl.u16NShift uint16_t
0x200001b8  0x4        tDrvFoc.tPospeSensorless.tBemfObsvr.tDeltaPIEmfCtrl.f32Acc Frac32_t
0x200001bc  0x10       tDrvFoc.tPospeSensorless.tBemfObsvr.tGammaPIEmfCtrl GCF_CtrlPIAW_RTF16_t
0x200001bc  0x2        tDrvFoc.tPospeSensorless.tBemfObsvr.tGammaPIEmfCtrl.f16CC1sc Frac16_t
0x200001be  0x2        tDrvFoc.tPospeSensorless.tBemfObsvr.tGammaPIEmfCtrl.f16CC2sc Frac16_t
0x200001c0  0x2        tDrvFoc.tPospeSensorless.tBemfObsvr.tGammaPIEmfCtrl.f16InErrK1 Frac16_t
0x200001c2  0x2        tDrvFoc.tPospeSensorless.tBemfObsvr.tGammaPIEmfCtrl.f16UpperLimit Frac16_t
0x200001c4  0x2        tDrvFoc.tPospeSensorless.tBemfObsvr.tGammaPIEmfCtrl.f16LowerLimit Frac16_t
0x200001c6  0x2        tDrvFoc.tPospeSensorless.tBemfObsvr.tGammaPIEmfCtrl.u16NShift uint16_t
0x200001c8  0x4        tDrvFoc.tPospeSensorless.tBemfObsvr.tGammaPIEmfCtrl.f32Acc Frac32_t
0x200001cc  0x8        tDrvFoc.tPospeSensorless.tBemfObsvr.tIObsrvIn_1L CTD_2SystF32_t
0x200001cc  0x4        tDrvFoc.tPospeSensorless.tBemfObsvr.tIObsrvIn_1L.f32Arg1 uint32_t
0x200001d0  0x4        tDrvFoc.tPospeSensorless.tBemfObsvr.tIObsrvIn_1L.f32Arg2 uint32_t
0x200001d4  0x4        tDrvFoc.tPospeSensorless.tBemfObsvr.tIObsrvIn_1H CTD_2SystF16_t
0x200001d4  0x2        tDrvFoc.tPospeSensorless.tBemfObsvr.tIObsrvIn_1H.f16Arg1 int16_t
0x200001d6  0x2        tDrvFoc.tPospeSensorless.tBemfObsvr.tIObsrvIn_1H.f16Arg2 int16_t
0x200001d8  0x2        tDrvFoc.tPospeSensorless.tBemfObsvr.f16ErrOfDQnGD Frac16_t
0x200001da  0x2        tDrvFoc.tPospeSensorless.tBemfObsvr.f16GainU Frac16_t
0x200001dc  0x2        tDrvFoc.tPospeSensorless.tBemfObsvr.f16GainE Frac16_t
0x200001de  0x2        tDrvFoc.tPospeSensorless.tBemfObsvr.f16GainWI Frac16_t
0x200001e0  0x2        tDrvFoc.tPospeSensorless.tBemfObsvr.f16GainI Frac16_t
0x200001e2  0x2        tDrvFoc.tPospeSensorless.tBemfObsvr.f16ScaleK int16_t
0x200001e4  0x2c       tDrvFoc.tPospeSensorless.tBemfObsvr.tTrackObsvr AMC_TrackObser_t
0x200001e4  0x10       tDrvFoc.tPospeSensorless.tBemfObsvr.tTrackObsvr.tPllCtrl GCF_CtrlPIAW_RTF16_t
0x200001e4  0x2        tDrvFoc.tPospeSensorless.tBemfObsvr.tTrackObsvr.tPllCtrl.f16CC1sc Frac16_t
0x200001e6  0x2        tDrvFoc.tPospeSensorless.tBemfObsvr.tTrackObsvr.tPllCtrl.f16CC2sc Frac16_t
0x200001e8  0x2        tDrvFoc.tPospeSensorless.tBemfObsvr.tTrackObsvr.tPllCtrl.f16InErrK1 Frac16_t
0x200001ea  0x2        tDrvFoc.tPospeSensorless.tBemfObsvr.tTrackObsvr.tPllCtrl.f16UpperLimit Frac16_t
0x200001ec  0x2        tDrvFoc.tPospeSensorless.tBemfObsvr.tTrackObsvr.tPllCtrl.f16LowerLimit Frac16_t
0x200001ee  0x2        tDrvFoc.tPospeSensorless.tBemfObsvr.tTrackObsvr.tPllCtrl.u16NShift uint16_t
0x200001f0  0x4        tDrvFoc.tPospeSensorless.tBemfObsvr.tTrackObsvr.tPllCtrl.f32Acc Frac32_t
0x200001f4  0xc        tDrvFoc.tPospeSensorless.tBemfObsvr.tTrackObsvr.tPllInte GCF_Integrator_TRF16_t
0x200001f4  0x2        tDrvFoc.tPospeSensorless.tBemfObsvr.tTrackObsvr.tPllInte.f16InK1 Frac16_t
0x200001f6  0x2        tDrvFoc.tPospeSensorless.tBemfObsvr.tTrackObsvr.tPllInte.f16C1 Frac16_t
0x200001f8  0x2      * tDrvFoc.tPospeSensorless.tBemfObsvr.tTrackObsvr.tPllInte.u16NShift uint16_t
0x200001fc  0x4        tDrvFoc.tPospeSensorless.tBemfObsvr.tTrackObsvr.tPllInte.f32State Frac32_t
0x20000200  0x10       tDrvFoc.tPospeSensorless.tBemfObsvr.tTrackObsvr.tFilter GCF_Filter1_LPF16_t
0x20000200  0x2        tDrvFoc.tPospeSensorless.tBemfObsvr.tTrackObsvr.tFilter.f16C1 Frac16_t
0x20000202  0x2        tDrvFoc.tPospeSensorless.tBemfObsvr.tTrackObsvr.tFilter.f16C2 Frac16_t
0x20000204  0x2        tDrvFoc.tPospeSensorless.tBemfObsvr.tTrackObsvr.tFilter.f16State Frac16_t
0x20000206  0x2        tDrvFoc.tPospeSensorless.tBemfObsvr.tTrackObsvr.tFilter.s16NShift Frac16_t
0x20000208  0x2      * tDrvFoc.tPospeSensorless.tBemfObsvr.tTrackObsvr.tFilter.f16NSample Frac16_t
0x2000020c  0x4        tDrvFoc.tPospeSensorless.tBemfObsvr.tTrackObsvr.tFilter.f32Acc Frac32_t
0x20000210  0x1      * tDrvFoc.tPosMode                         PosMode_t
0x20000212  0x12       tDrvFoc.tSvm                             CTD_LUT_SVM_t
0x20000212  0x2        tDrvFoc.tSvm.u16Sec                      uint16_t
0x20000214  0x2        tDrvFoc.tSvm.u16T1                       uint16_t
0x20000216  0x2        tDrvFoc.tSvm.u16T2                       uint16_t
0x20000218  0x2        tDrvFoc.tSvm.u16AdcTrg                   uint16_t
0x2000021a  0x2        tDrvFoc.tSvm.u16RefAmp                   uint16_t
0x2000021c  0x2        tDrvFoc.tSvm.u16Angle                    uint16_t
0x2000021e  0x6        tDrvFoc.tSvm.tPwmDuty                    CTD_3SystF16_t
0x2000021e  0x2        tDrvFoc.tSvm.tPwmDuty.f16Arg1            int16_t
0x20000220  0x2        tDrvFoc.tSvm.tPwmDuty.f16Arg2            int16_t
0x20000222  0x2        tDrvFoc.tSvm.tPwmDuty.f16Arg3            int16_t
0x20000224  0x4        tDrvFoc.tDcBusComp                       GMC_DcBusComp_t
0x20000224  0x2        tDrvFoc.tDcBusComp.f16ArgDcBusMsr        Frac16_t
0x20000226  0x2        tDrvFoc.tDcBusComp.f16ModIndex           Frac16_t
0x20000228  0x6        tDrvFoc.tProConWind                      FOC_Wdir_t
0x20000228  0x2        tDrvFoc.tProConWind.u16ProConDetectCnt   uint16_t
0x2000022a  0x2        tDrvFoc.tProConWind.u16ContsCnt          int16_t
0x2000022c  0x1      * tDrvFoc.tProConWind.tWDIR                WDir_t
0x20000230  0x10       tDrvFoc.tDcBusFilter                     GCF_Filter1_LPF16_t
0x20000230  0x2        tDrvFoc.tDcBusFilter.f16C1               Frac16_t
0x20000232  0x2        tDrvFoc.tDcBusFilter.f16C2               Frac16_t
0x20000234  0x2        tDrvFoc.tDcBusFilter.f16State            Frac16_t
0x20000236  0x2        tDrvFoc.tDcBusFilter.s16NShift           Frac16_t
0x20000238  0x2      * tDrvFoc.tDcBusFilter.f16NSample          Frac16_t
0x2000023c  0x4        tDrvFoc.tDcBusFilter.f32Acc              Frac32_t
0x20000240  0x10       tDrvFoc.tExtSpeedFilter                  GCF_Filter1_LPF16_t
0x20000240  0x2        tDrvFoc.tExtSpeedFilter.f16C1            Frac16_t
0x20000242  0x2        tDrvFoc.tExtSpeedFilter.f16C2            Frac16_t
0x20000244  0x2        tDrvFoc.tExtSpeedFilter.f16State         Frac16_t
0x20000246  0x2        tDrvFoc.tExtSpeedFilter.s16NShift        Frac16_t
0x20000248  0x2      * tDrvFoc.tExtSpeedFilter.f16NSample       Frac16_t
0x2000024c  0x4        tDrvFoc.tExtSpeedFilter.f32Acc           Frac32_t
0x20000250  0x16       tDrvFoc.tPwmMod                          FOC_Mod_t
0x20000250  0x2        tDrvFoc.tPwmMod.u16PhAEdge               uint16_t
0x20000252  0x2        tDrvFoc.tPwmMod.u16PhADbswEdge           uint16_t
0x20000254  0x2        tDrvFoc.tPwmMod.u16PhBEdge               uint16_t
0x20000256  0x2        tDrvFoc.tPwmMod.u16PhBDbswEdge           uint16_t
0x20000258  0x2        tDrvFoc.tPwmMod.u16PhCEdge               uint16_t
0x2000025a  0x2        tDrvFoc.tPwmMod.u16PhCDbswEdge           uint16_t
0x2000025c  0xa        tDrvFoc.tPwmMod.tAdcTrg                  FOC_ReTrigT_t
0x2000025c  0x2        tDrvFoc.tPwmMod.tAdcTrg.u16Ph1Trg1       uint16_t
0x2000025e  0x2        tDrvFoc.tPwmMod.tAdcTrg.u16Ph2Trg1       uint16_t
0x20000260  0x2        tDrvFoc.tPwmMod.tAdcTrg.u16DcOffsetTrg   uint16_t
0x20000262  0x2        tDrvFoc.tPwmMod.tAdcTrg.u16Ph2Trg2       uint16_t
0x20000264  0x2        tDrvFoc.tPwmMod.tAdcTrg.u16Ph1Trg2       uint16_t

address     size       variable name                            type
0x08002f34  0x6c       tFocParas                                const FOC_Paras_t
0x08002f34  0x4        tFocParas.I_MAX                          float
0x08002f38  0x4        tFocParas.U_DCB_MAX                      float
0x08002f3c  0x4        tFocParas.N_MAX                          float
0x08002f40  0x4        tFocParas.WEL_MAX                        float
0x08002f44  0x4        tFocParas.E_MAX                          float
0x08002f48  0x2        tFocParas.MOTOR_PP_GAIN                  Frac16_t
0x08002f4a  0x2        tFocParas.MOTOR_PP_SHIFT                 uint16_t
0x08002f4c  0x2        tFocParas.U_DCB_TRIP                     Frac16_t
0x08002f4e  0x2        tFocParas.U_DCB_UNDERVOLTAGE             Frac16_t
0x08002f50  0x2        tFocParas.U_DCB_OVERVOLTAGE              Frac16_t
0x08002f52  0x2        tFocParas.I_PH_OVER                      Frac16_t
0x08002f54  0x2        tFocParas.TEMP_OVER                      Frac16_t
0x08002f56  0x2        tFocParas.DC_BUS_FILTER_MA_NPOINT        Frac16_t
0x08002f58  0x2        tFocParas.ALIGN_VOLTAGE                  Frac16_t
0x08002f5a  0x2        tFocParas.ALIGN_DURATION                 uint16_t
0x08002f5c  0x2        tFocParas.CLOOP_LIMIT                    Frac16_t
0x08002f5e  0x2        tFocParas.D_NSHIFT                       uint16_t
0x08002f60  0x2        tFocParas.D_CC1SC                        Frac16_t
0x08002f62  0x2        tFocParas.D_CC2SC                        Frac16_t
0x08002f64  0x2        tFocParas.Q_NSHIFT                       uint16_t
0x08002f66  0x2        tFocParas.Q_CC1SC                        Frac16_t
0x08002f68  0x2        tFocParas.Q_CC2SC                        Frac16_t
0x08002f6a  0x2        tFocParas.SPEED_PI_PROP_GAIN             Frac16_t
0x08002f6c  0x2        tFocParas.SPEED_PI_PROP_SHIFT            int16_t
0x08002f6e  0x2        tFocParas.SPEED_PI_INTEG_GAIN            Frac16_t
0x08002f70  0x2        tFocParas.SPEED_PI_INTEG_SHIFT           int16_t
0x08002f72  0x2        tFocParas.SPEED_LOOP_HIGH_LIMIT          Frac16_t
0x08002f74  0x2        tFocParas.SPEED_LOOP_LOW_LIMIT           Frac16_t
0x08002f76  0x2        tFocParas.SPEED_RAMP_UP                  Frac16_t
0x08002f78  0x2        tFocParas.SPEED_RAMP_DOWN                Frac16_t
0x08002f7a  0x2        tFocParas.SPEED_LOOP_CNTR                uint16_t
0x08002f7c  0x2        tFocParas.POSPE_SPEED_FILTER_MA_NPOINT   Frac16_t
0x08002f7e  0x2        tFocParas.I_GAIN                         Frac16_t
0x08002f80  0x2        tFocParas.U_GAIN                         Frac16_t
0x08002f82  0x2        tFocParas.E_GAIN                         Frac16_t
0x08002f84  0x2        tFocParas.WI_GAIN                        Frac16_t
0x08002f86  0x2        tFocParas.BEMF_SHIFT                     int16_t
0x08002f88  0x2        tFocParas.BEMF_DQ_CC1_GAIN               Frac16_t
0x08002f8a  0x2        tFocParas.BEMF_DQ_CC2_GAIN               Frac16_t
0x08002f8c  0x2        tFocParas.BEMF_DQ_NSHIFT                 uint16_t
0x08002f8e  0x2        tFocParas.TO_CC1SC                       Frac16_t
0x08002f90  0x2        tFocParas.TO_CC2SC                       Frac16_t
0x08002f92  0x2        tFocParas.TO_NSHIFT                      uint16_t
0x08002f94  0x2        tFocParas.TO_THETA_GAIN                  Frac16_t
0x08002f96  0x2        tFocParas.TO_THETA_SHIFT                 uint16_t
0x08002f98  0x2        tFocParas.OL_START_RAMP_INC              Frac16_t
0x08002f9a  0x2        tFocParas.OL_START_I                     Frac16_t
0x08002f9c  0x2        tFocParas.MERG_SPEED_1_TRH               Frac16_t
0x08002f9e  0x2        tFocParas.MERG_SPEED_2_TRH               Frac16_t

address     size       variable name                            type
0x2000000c  0x4        SystemCoreClock                          uint32_t

address     size       variable name                            type
0x20000002  0x2        f16TagSpeed                              Frac16_t

address     size       variable name                            type
0x20000004  0x4        g_systickDelayCounter                    volatile int

address     size       variable name                            type
0x20000008  0x4        systick_delay                            volatile int

