Component: ARM Compiler 5.06 update 6 (build 750) Tool: armlink [4d35ed]

==============================================================================

Section Cross References

    startup_nsuc1602.o(RESET) refers to startup_nsuc1602.o(STACK) for __initial_sp
    startup_nsuc1602.o(RESET) refers to startup_nsuc1602.o(.text) for Reset_Handler
    startup_nsuc1602.o(RESET) refers to lin_init.o(i.LINUART_IRQHandler) for LINUART_IRQHandler
    startup_nsuc1602.o(RESET) refers to nvsns_foc.o(i.EPWM_IRQHandler) for EPWM_IRQHandler
    startup_nsuc1602.o(RESET) refers to nvsns_foc.o(i.ADC_IRQHandler) for ADC_IRQHandler
    startup_nsuc1602.o(RESET) refers to fault_handler.o(i.GDU_IRQHandler) for GDU_IRQHandler
    startup_nsuc1602.o(RESET) refers to handler.o(i.FLASH_IRQHandler) for FLASH_IRQHandler
    startup_nsuc1602.o(RESET) refers to pwm_appl.o(i.PWMIO_IRQHandler) for PWMIO_IRQHandler
    startup_nsuc1602.o(RESET) refers to lin_identification_and_configuration.o(i.LINPORT_IRQHandler) for LINPORT_IRQHandler
    startup_nsuc1602.o(RESET) refers to fault_handler.o(i.PMU_IRQHandler) for PMU_IRQHandler
    startup_nsuc1602.o(RESET) refers to fault_handler.o(i.CHP_IRQHandler) for CHP_IRQHandler
    startup_nsuc1602.o(.text) refers to handler.o(i.NMIHandler) for NMIHandler
    startup_nsuc1602.o(.text) refers to handler.o(i.HardFaultHandler) for HardFaultHandler
    startup_nsuc1602.o(.text) refers to handler.o(i.MemManageHandler) for MemManageHandler
    startup_nsuc1602.o(.text) refers to handler.o(i.BusFaultHandler) for BusFaultHandler
    startup_nsuc1602.o(.text) refers to handler.o(i.UsageFaultHandler) for UsageFaultHandler
    startup_nsuc1602.o(.text) refers to handler.o(i.SVCHandler) for SVCHandler
    startup_nsuc1602.o(.text) refers to handler.o(i.DebugMonHandler) for DebugMonHandler
    startup_nsuc1602.o(.text) refers to handler.o(i.PendSVHandler) for PendSVHandler
    startup_nsuc1602.o(.text) refers to systick_isr.o(i.SysTickHandler) for SysTickHandler
    startup_nsuc1602.o(.text) refers to system.o(i.SystemInit) for SystemInit
    startup_nsuc1602.o(.text) refers to entry.o(.ARM.Collect$$$$00000000) for __main
    main.o(i.AtanXYF16_RunPresetTests) refers to mm_lib.o(i.MM_AtanXYF16) for MM_AtanXYF16
    main.o(i.AtanXYF16_RunPresetTests) refers to main.o(.constdata) for .constdata
    main.o(i.AtanXYF16_RunPresetTests) refers to main.o(.bss) for .bss
    main.o(i.MainTask) refers to main.o(.data) for .data
    main.o(i.MainTask) refers to systick_isr.o(.data) for g_tickCnt
    main.o(i.Task1000msProcess) refers to ntcdrive.o(i.CalcIgbtTemp) for CalcIgbtTemp
    main.o(i.Task1000msProcess) refers to hfi_lib.o(i.HFI_CalculateInductanceValues) for HFI_CalculateInductanceValues
    main.o(i.Task1000msProcess) refers to nvsns_foc.o(.bss) for tDrvFoc
    main.o(i.Task1000msProcess) refers to systick_isr.o(.data) for g_epochSecond
    main.o(i.Task1000msProcess) refers to hfi_lib.o(.bss) for tHfiCtrl
    main.o(i.Task10msProcess) refers to lin_appl.o(i.FeedDWDG) for FeedDWDG
    main.o(i.Task10msProcess) refers to fault_diagnose.o(i.AlarmCheck10msTask) for AlarmCheck10msTask
    main.o(i.Task10msProcess) refers to pwm_appl.o(i.PWMIO_Task10ms) for PWMIO_Task10ms
    main.o(i.Task1msProcess) refers to fault_diagnose.o(i.AlarmCheck1msTask) for AlarmCheck1msTask
    main.o(i.Task1msProcess) refers to main.o(i.confirmComType) for confirmComType
    main.o(i.Task1msProcess) refers to motor_state_ctrl.o(i.MotorStateCtrl) for MotorStateCtrl
    main.o(i.Task1msProcess) refers to nvsns_foc.o(i.FOC_1MSTASK) for FOC_1MSTASK
    main.o(i.Task1msProcess) refers to sleep_control.o(i.CheckSleepStatus) for CheckSleepStatus
    main.o(i.Task1msProcess) refers to lin_appl.o(i.UpdateLinATCPStatus) for UpdateLinATCPStatus
    main.o(i.Task1msProcess) refers to lin_appl.o(i.UpdateLinATCPFault) for UpdateLinATCPFault
    main.o(i.Task1msProcess) refers to motor_state_ctrl.o(.data) for g_u8ComType
    main.o(i.confirmComType) refers to motor_state_ctrl.o(.data) for g_u8ComType
    main.o(i.main) refers to nvsns_foc.o(i.InitMotorConfig) for InitMotorConfig
    main.o(i.main) refers to lin_appl.o(i.LinApplMain) for LinApplMain
    main.o(i.main) refers to derating_control.o(i.Derating_Init) for Derating_Init
    main.o(i.main) refers to main.o(i.MainTask) for MainTask
    main.o(i.main) refers to motor_state_ctrl.o(.data) for g_u8ComType
    main.o(i.main) refers to derating_control.o(.constdata) for g_motor_derating_config
    main.o(i.main) refers to derating_control.o(.bss) for g_derating_controller
    main.o(.data) refers to main.o(i.Task1msProcess) for Task1msProcess
    main.o(.data) refers to main.o(i.Task10msCanE2promProcess) for Task10msCanE2promProcess
    main.o(.data) refers to main.o(i.Task10msProcess) for Task10msProcess
    main.o(.data) refers to main.o(i.Task100msProcess) for Task100msProcess
    main.o(.data) refers to main.o(i.Task1000msProcess) for Task1000msProcess
    lin_appl.o(i.FeedDWDG) refers to lin_appl.o(.data) for .data
    lin_appl.o(i.LinApplMain) refers to lin_appl.o(i.PowerEnableGPIO_Init) for PowerEnableGPIO_Init
    lin_appl.o(i.LinApplMain) refers to lin_appl.o(i.PowerEnableForward) for PowerEnableForward
    lin_appl.o(i.LinApplMain) refers to lin_appl.o(i.PowerEnableReverse) for PowerEnableReverse
    lin_appl.o(i.LinApplMain) refers to systick.o(i.SysTick_Init) for SysTick_Init
    lin_appl.o(i.LinApplMain) refers to lin_appl.o(i.ErrorHandler) for ErrorHandler
    lin_appl.o(i.LinApplMain) refers to lin_appl.o(i.DebugGPIO_Init) for DebugGPIO_Init
    lin_appl.o(i.LinApplMain) refers to fault_init.o(i.FAULT_Init) for FAULT_Init
    lin_appl.o(i.LinApplMain) refers to foc_init.o(i.FOC_EpwmInit) for FOC_EpwmInit
    lin_appl.o(i.LinApplMain) refers to foc_init.o(i.FOC_AdcInit) for FOC_AdcInit
    lin_appl.o(i.LinApplMain) refers to foc_init.o(i.FOC_GduInit) for FOC_GduInit
    lin_appl.o(i.LinApplMain) refers to lin_init.o(i.l_sys_init) for l_sys_init
    lin_appl.o(i.LinApplMain) refers to lin_api.o(i.l_ifc_init_MyLinIfc) for l_ifc_init_MyLinIfc
    lin_appl.o(i.LinApplMain) refers to lin_api.o(i.l_ifc_connect_MyLinIfc) for l_ifc_connect_MyLinIfc
    lin_appl.o(i.LinApplMain) refers to lin_api_appl.o(i.l_ver_trans_data_buffer) for l_ver_trans_data_buffer
    lin_appl.o(i.LinApplMain) refers to lin_appl.o(i.InitWatchDog) for InitWatchDog
    lin_appl.o(i.LinApplMain) refers to nvsns_foc.o(.bss) for tDrvFoc
    lin_appl.o(i.LinApplMain) refers to lin_config.o(.constdata) for g_nodeConfigFrameTable
    lin_appl.o(i.LinApplMain) refers to lin_api_appl.o(.data) for g_tATCPVersion
    lin_appl.o(i.UpdateLinATCPFault) refers to lin_api_appl.o(i.l_fault_trans_data_buffer) for l_fault_trans_data_buffer
    lin_appl.o(i.UpdateLinATCPFault) refers to fault_diagnose.o(.data) for tFaultMode
    lin_appl.o(i.UpdateLinATCPFault) refers to lin_api_appl.o(.data) for g_tATCPFault
    lin_appl.o(i.UpdateLinATCPFault) refers to lin_config.o(.constdata) for g_nodeConfigFrameTable
    lin_appl.o(i.UpdateLinATCPStatus) refers to ffixi.o(.text) for __aeabi_f2iz
    lin_appl.o(i.UpdateLinATCPStatus) refers to lin_api_appl.o(i.l_atcp_struct_trans_data_buffer) for l_atcp_struct_trans_data_buffer
    lin_appl.o(i.UpdateLinATCPStatus) refers to foc_paras.o(.data) for tFocParas
    lin_appl.o(i.UpdateLinATCPStatus) refers to nvsns_foc.o(.bss) for tDrvFoc
    lin_appl.o(i.UpdateLinATCPStatus) refers to lin_api_appl.o(.data) for g_tATCPState
    lin_appl.o(i.UpdateLinATCPStatus) refers to lin_config.o(.constdata) for g_nodeConfigFrameTable
    pwm_appl.o(i.PWMIO_CheckTimeout) refers to systick_isr.o(.data) for g_epochSecond
    pwm_appl.o(i.PWMIO_CheckTimeout) refers to pwm_appl.o(.data) for .data
    pwm_appl.o(i.PWMIO_ConfirmDutyCycle) refers to pwm_appl.o(.data) for .data
    pwm_appl.o(i.PWMIO_GetDutyCycle) refers to pwm_appl.o(.data) for .data
    pwm_appl.o(i.PWMIO_GetDutyCycleFloat) refers to ffltui.o(.text) for __aeabi_ui2f
    pwm_appl.o(i.PWMIO_GetDutyCycleFloat) refers to f2d.o(.text) for __aeabi_f2d
    pwm_appl.o(i.PWMIO_GetDutyCycleFloat) refers to ddiv.o(.text) for __aeabi_ddiv
    pwm_appl.o(i.PWMIO_GetDutyCycleFloat) refers to d2f.o(.text) for __aeabi_d2f
    pwm_appl.o(i.PWMIO_GetDutyCycleFloat) refers to pwm_appl.o(.data) for .data
    pwm_appl.o(i.PWMIO_GetMotorState) refers to pwm_appl.o(.data) for .data
    pwm_appl.o(i.PWMIO_GetPeriodTime) refers to pwm_appl.o(.data) for .data
    pwm_appl.o(i.PWMIO_IRQHandler) refers to pwm_appl.o(.data) for .data
    pwm_appl.o(i.PWMIO_IRQHandler) refers to systick_isr.o(.data) for g_epochSecond
    pwm_appl.o(i.PWMIO_ResetState) refers to pwm_appl.o(.data) for .data
    pwm_appl.o(i.PWMIO_Task10ms) refers to pwm_appl.o(i.PWMIO_CheckTimeout) for PWMIO_CheckTimeout
    pwm_appl.o(i.PWMIO_Task10ms) refers to pwm_appl.o(i.PWMIO_ConfirmDutyCycle) for PWMIO_ConfirmDutyCycle
    pwm_appl.o(i.ParsePWMSpeed) refers to fflti.o(.text) for __aeabi_i2f
    pwm_appl.o(i.ParsePWMSpeed) refers to fmul.o(.text) for __aeabi_fmul
    pwm_appl.o(i.ParsePWMSpeed) refers to fadd.o(.text) for __aeabi_fadd
    pwm_appl.o(i.ParsePWMSpeed) refers to ffixui.o(.text) for __aeabi_f2uiz
    pwm_appl.o(i.ParsePWMSpeed) refers to ffixi.o(.text) for __aeabi_f2iz
    pwm_appl.o(i.ParsePWMSpeed) refers to pwm_appl.o(.data) for .data
    pwm_appl.o(i.ParsePWMSpeed) refers to foc_paras.o(.data) for tFocParas
    motor_state_ctrl.o(i.GetUMaxCurrent) refers to motor_state_ctrl.o(.data) for .data
    motor_state_ctrl.o(i.GetVMaxCurrent) refers to motor_state_ctrl.o(.data) for .data
    motor_state_ctrl.o(i.GetWMaxCurrent) refers to motor_state_ctrl.o(.data) for .data
    motor_state_ctrl.o(i.HandleLinCmd) refers to lin_api_appl.o(i.l_get_ctrl_update_cmd) for l_get_ctrl_update_cmd
    motor_state_ctrl.o(i.HandleLinCmd) refers to lin_api_appl.o(i.l_data_buffer_trans_atcp_ctrl_struct) for l_data_buffer_trans_atcp_ctrl_struct
    motor_state_ctrl.o(i.HandleLinCmd) refers to motor_state_ctrl.o(i.ParseDirectSpeed) for ParseDirectSpeed
    motor_state_ctrl.o(i.HandleLinCmd) refers to lin_api_appl.o(i.l_clr_ctrl_update_cmd) for l_clr_ctrl_update_cmd
    motor_state_ctrl.o(i.HandleLinCmd) refers to motor_state_ctrl.o(.data) for .data
    motor_state_ctrl.o(i.HandleLinCmd) refers to lin_config.o(.constdata) for g_nodeConfigFrameTable
    motor_state_ctrl.o(i.HandleLinCmd) refers to lin_api_appl.o(.data) for g_tATCPCtrl
    motor_state_ctrl.o(i.MotorStateCtrl) refers to ffixui.o(.text) for __aeabi_f2uiz
    motor_state_ctrl.o(i.MotorStateCtrl) refers to derating_control.o(i.Derating_Apply) for Derating_Apply
    motor_state_ctrl.o(i.MotorStateCtrl) refers to pwm_appl.o(i.PWMOUT_SetEnable) for PWMOUT_SetEnable
    motor_state_ctrl.o(i.MotorStateCtrl) refers to pwm_appl.o(i.PWMOUT_Set) for PWMOUT_Set
    motor_state_ctrl.o(i.MotorStateCtrl) refers to foc_paras.o(.data) for tFocParas
    motor_state_ctrl.o(i.MotorStateCtrl) refers to nvsns_foc.o(.bss) for tDrvFoc
    motor_state_ctrl.o(i.MotorStateCtrl) refers to motor_state_ctrl.o(.data) for .data
    motor_state_ctrl.o(i.MotorStateCtrl) refers to derating_control.o(.bss) for g_derating_controller
    motor_state_ctrl.o(i.MotorStateCtrl) refers to fault_diagnose.o(.data) for tFaultMode
    motor_state_ctrl.o(i.ParseDirectSpeed) refers to dfltui.o(.text) for __aeabi_ui2d
    motor_state_ctrl.o(i.ParseDirectSpeed) refers to cdrcmple.o(.text) for __aeabi_cdrcmple
    motor_state_ctrl.o(i.ParseDirectSpeed) refers to ffixi.o(.text) for __aeabi_f2iz
    motor_state_ctrl.o(i.ParseDirectSpeed) refers to foc_paras.o(.data) for tFocParas
    motor_state_ctrl.o(i.calPhaseCurrentMaxFilter) refers to motor_state_ctrl.o(.data) for .data
    motor_state_ctrl.o(i.getMotorCmdSpeed) refers to motor_state_ctrl.o(i.HandleLinCmd) for HandleLinCmd
    motor_state_ctrl.o(i.getMotorCmdSpeed) refers to motor_state_ctrl.o(i.HandlePwmCmd) for HandlePwmCmd
    motor_state_ctrl.o(i.getMotorCmdSpeed) refers to nvsns_foc.o(.bss) for tDrvFoc
    motor_state_ctrl.o(i.getMotorCmdSpeed) refers to motor_state_ctrl.o(.data) for .data
    derating_control.o(i.Derating_Apply) refers to derating_control.o(i.Derating_GetMaxAllowedRpm) for Derating_GetMaxAllowedRpm
    derating_control.o(i.Derating_Apply) refers to derating_control.o(i.Derating_ConvertRpmToFrac16) for Derating_ConvertRpmToFrac16
    derating_control.o(.constdata) refers to derating_control.o(.constdata) for g_temp_derating_profile
    derating_control.o(.constdata) refers to derating_control.o(.constdata) for g_volt_derating_profile
    ntcdrive.o(i.CalcIgbtTemp) refers to ntcdrive.o(i.CalcSensorTemp) for CalcSensorTemp
    ntcdrive.o(i.CalcIgbtTemp) refers to ntcdrive.o(.constdata) for .constdata
    system.o(i.SystemCoreClockUpdate) refers to system.o(.data) for .data
    system.o(i.SystemInit) refers to system.o(.data) for .data
    systick.o(i.SysTick_Init) refers to systick.o(.data) for .data
    systick.o(i.Timer_GetFASTTime) refers to systick.o(.data) for .data
    systick.o(i.Timer_Start) refers to systick_isr.o(.data) for g_systick_overflows
    systick.o(i.Timer_Stop) refers to uldiv.o(.text) for __aeabi_uldivmod
    systick.o(i.Timer_Stop) refers to systick_isr.o(.data) for g_systick_overflows
    systick.o(i.Timer_Stop) refers to systick.o(.data) for .data
    systick.o(i.delay_ms) refers to systick.o(i.delay_us) for delay_us
    systick.o(i.delay_us) refers to systick.o(.data) for .data
    systick.o(i.delay_us) refers to systick_isr.o(.data) for g_systick_overflows
    systick_isr.o(i.SysTickHandler) refers to systick_isr.o(.data) for .data
    foc_init.o(i.FOC_AdcInit) refers to foc_init.o(i.NVIC_DisableIRQ) for NVIC_DisableIRQ
    foc_init.o(i.FOC_AdcInit) refers to foc_init.o(i.NVIC_SetPriority) for NVIC_SetPriority
    foc_init.o(i.FOC_EpwmInit) refers to foc_init.o(i.NVIC_DisableIRQ) for NVIC_DisableIRQ
    foc_init.o(i.FOC_EpwmInit) refers to foc_init.o(i.NVIC_SetPriority) for NVIC_SetPriority
    foc_init.o(i.FOC_GduInit) refers to foc_init.o(i.NVIC_SetPriority) for NVIC_SetPriority
    nvsns_foc.o(i.AutomaticMode) refers to nvsns_foc.o(.bss) for .bss
    nvsns_foc.o(i.BrakeOutput) refers to nvsns_foc.o(.data) for .data
    nvsns_foc.o(i.CalcOpenLoop) refers to transform.o(i.GCF_IntegratorTR_F16_AIWIN) for GCF_IntegratorTR_F16_AIWIN
    nvsns_foc.o(i.DeadTimeCompensation) refers to mm_lib.o(.emb_text) for MM_SatDivF16
    nvsns_foc.o(i.DeadTimeCompensation) refers to nvsns_foc.o(.data) for .data
    nvsns_foc.o(i.DisableOutput) refers to nvsns_foc.o(.data) for .data
    nvsns_foc.o(i.EPWM_IRQHandler) refers to gcf_lib.o(.emb_text) for GCF_LpFilterMA_F16
    nvsns_foc.o(i.EPWM_IRQHandler) refers to systick.o(i.Timer_Start) for Timer_Start
    nvsns_foc.o(i.EPWM_IRQHandler) refers to qpr_fixed.o(i.QPR_FXP_TestLite_Step) for QPR_FXP_TestLite_Step
    nvsns_foc.o(i.EPWM_IRQHandler) refers to nvsns_foc.o(i.saturate_16) for saturate_16
    nvsns_foc.o(i.EPWM_IRQHandler) refers to fault_diagnose.o(i.getCurrentMaxMin) for getCurrentMaxMin
    nvsns_foc.o(i.EPWM_IRQHandler) refers to nvsns_foc.o(i.SetPwmDutyAIWIN) for SetPwmDutyAIWIN
    nvsns_foc.o(i.EPWM_IRQHandler) refers to systick.o(i.Timer_GetFASTTime) for Timer_GetFASTTime
    nvsns_foc.o(i.EPWM_IRQHandler) refers to nvsns_foc.o(.bss) for .bss
    nvsns_foc.o(i.EPWM_IRQHandler) refers to hfi_lib.o(.bss) for tHfiCtrl
    nvsns_foc.o(i.EPWM_IRQHandler) refers to curr_sample_1rps.o(.bss) for tCurrSample1rps
    nvsns_foc.o(i.EPWM_IRQHandler) refers to curr_sample_1rps_aiwin.o(.data) for g_u8MeasureVectorFlag
    nvsns_foc.o(i.EPWM_IRQHandler) refers to nvsns_foc.o(.data) for .data
    nvsns_foc.o(i.EPWM_IRQHandler) refers to curr_sample_1rps_aiwin.o(.bss) for tCurrAuxInfo
    nvsns_foc.o(i.EPWM_IRQHandler) refers to state_machine.o(.constdata) for pStateFuncTable
    nvsns_foc.o(i.EnableOutput) refers to nvsns_foc.o(.data) for .data
    nvsns_foc.o(i.FOC_1MSTASK) refers to nvsns_foc.o(i.StateFault) for StateFault
    nvsns_foc.o(i.FOC_1MSTASK) refers to nvsns_foc.o(.bss) for .bss
    nvsns_foc.o(i.FocFastLoop) refers to gmc_lib.o(.emb_text) for GMC_ClarkeF16
    nvsns_foc.o(i.FocFastLoop) refers to mm_lib.o(i.MM_ThetaTransferTrigonoLut) for MM_ThetaTransferTrigonoLut
    nvsns_foc.o(i.FocFastLoop) refers to iq_filter.o(i.IQ_LPFilterCalc) for IQ_LPFilterCalc
    nvsns_foc.o(i.FocFastLoop) refers to gcf_lib.o(.emb_text) for GCF_CtrlPIrAW_F16
    nvsns_foc.o(i.FocFastLoop) refers to mm_lib.o(i.MM_SqrtLut_F16) for MM_SqrtLut_F16
    nvsns_foc.o(i.FocFastLoop) refers to mm_lib.o(i.MM_AtanXYF16) for MM_AtanXYF16
    nvsns_foc.o(i.FocFastLoop) refers to nvsns_foc.o(.bss) for .bss
    nvsns_foc.o(i.FocFastLoop) refers to nvsns_foc.o(.data) for .data
    nvsns_foc.o(i.FocSlowLoop) refers to gcf_lib.o(i.GCF_Ramp_F16) for GCF_Ramp_F16
    nvsns_foc.o(i.FocSlowLoop) refers to pi.o(i.GCF_PositionalPI_F16) for GCF_PositionalPI_F16
    nvsns_foc.o(i.FocSlowLoop) refers to mm_lib.o(.emb_text) for MM_SatDivF16
    nvsns_foc.o(i.FocSlowLoop) refers to mm_lib.o(i.MM_SqrtLut_F16) for MM_SqrtLut_F16
    nvsns_foc.o(i.FocSlowLoop) refers to nvsns_foc.o(.data) for .data
    nvsns_foc.o(i.FocSlowLoop) refers to nvsns_foc.o(.bss) for .bss
    nvsns_foc.o(i.InitFocParas) refers to amc_lib.o(i.AMC_InitObsrv_F16) for AMC_InitObsrv_F16
    nvsns_foc.o(i.InitFocParas) refers to mtr_adv_init.o(i.WM_Init) for WM_Init
    nvsns_foc.o(i.InitFocParas) refers to deadtime_comp.o(i.DeadTimeCompensationInit) for DeadTimeCompensationInit
    nvsns_foc.o(i.InitFocParas) refers to mtr_adv_init.o(i.AMC_FWInit_F16) for AMC_FWInit_F16
    nvsns_foc.o(i.InitFocParas) refers to foclib_init.o(i.stallDetectionInit) for stallDetectionInit
    nvsns_foc.o(i.InitFocParas) refers to motor_data_calc.o(i.motorInitCalculations) for motorInitCalculations
    nvsns_foc.o(i.InitFocParas) refers to memcpya.o(.text) for __aeabi_memcpy4
    nvsns_foc.o(i.InitFocParas) refers to foclib_init.o(i.PARAM_ID_Init) for PARAM_ID_Init
    nvsns_foc.o(i.InitFocParas) refers to dq_dual_space_switch.o(i.DQ_DualSpaceBlendReset) for DQ_DualSpaceBlendReset
    nvsns_foc.o(i.InitFocParas) refers to iq_filter.o(i.IQ_HPFilterInit) for IQ_HPFilterInit
    nvsns_foc.o(i.InitFocParas) refers to iq_filter.o(i.IQ_LPFilterInit) for IQ_LPFilterInit
    nvsns_foc.o(i.InitFocParas) refers to iq_filter.o(i.IQ_LPFilterSetCutoffHz) for IQ_LPFilterSetCutoffHz
    nvsns_foc.o(i.InitFocParas) refers to iq_filter.o(i.IQ_LPFilterParaCalc) for IQ_LPFilterParaCalc
    nvsns_foc.o(i.InitFocParas) refers to qpr_fixed.o(i.MulQ15_By_IntmHz) for MulQ15_By_IntmHz
    nvsns_foc.o(i.InitFocParas) refers to qpr_fixed.o(i.qprFxpInit) for qprFxpInit
    nvsns_foc.o(i.InitFocParas) refers to qpr_fixed.o(i.qprFxpSetWcByAlphamhz) for qprFxpSetWcByAlphamhz
    nvsns_foc.o(i.InitFocParas) refers to nvsns_foc.o(.data) for .data
    nvsns_foc.o(i.InitFocParas) refers to nvsns_foc.o(.bss) for .bss
    nvsns_foc.o(i.InitFocParas) refers to foc_paras.o(.data) for tFocParas
    nvsns_foc.o(i.InitFocParas) refers to deadtime_comp.o(.bss) for tDeadTimeComp
    nvsns_foc.o(i.InitFocParas) refers to stalldetection.o(.bss) for tStallDetection
    nvsns_foc.o(i.InitFocParas) refers to hfi_lib.o(.bss) for tHfiCtrl
    nvsns_foc.o(i.InitFocParas) refers to motor_param_id.o(.bss) for tMotorParamId
    nvsns_foc.o(i.InitFocParas) refers to curr_sample_1rps.o(.bss) for tCurrSample1rps
    nvsns_foc.o(i.InitFocStatus) refers to nvsns_foc.o(.bss) for .bss
    nvsns_foc.o(i.InitFocStatus) refers to foc_paras.o(.data) for tFocParas
    nvsns_foc.o(i.InitMotorConfig) refers to dq_dual_space_switch.o(i.DQ_DualSpaceSetBlendStep) for DQ_DualSpaceSetBlendStep
    nvsns_foc.o(i.InitMotorConfig) refers to transform.o(i.InitFreqToAngleIncrement) for InitFreqToAngleIncrement
    nvsns_foc.o(i.InitMotorConfig) refers to nvsns_foc.o(.bss) for .bss
    nvsns_foc.o(i.InitMotorConfig) refers to foc_paras.o(.data) for tFocParas
    nvsns_foc.o(i.InitMotorConfig) refers to curr_sample_1rps_aiwin.o(.bss) for tCurrAuxInfo
    nvsns_foc.o(i.SetAdcTrg) refers to nvsns_foc.o(.bss) for .bss
    nvsns_foc.o(i.SetDuty) refers to nvsns_foc.o(i.SetAdcTrg) for SetAdcTrg
    nvsns_foc.o(i.SetDuty) refers to nvsns_foc.o(.bss) for .bss
    nvsns_foc.o(i.SetPwmDutyAIWIN) refers to nvsns_foc.o(.data) for .data
    nvsns_foc.o(i.StateAlign) refers to smart_align.o(i.SmartAlgnInit) for SmartAlgnInit
    nvsns_foc.o(i.StateAlign) refers to nvsns_foc.o(i.DisableOutput) for DisableOutput
    nvsns_foc.o(i.StateAlign) refers to windmilling.o(i.WM_WindDetection) for WM_WindDetection
    nvsns_foc.o(i.StateAlign) refers to nvsns_foc.o(i.BrakeOutput) for BrakeOutput
    nvsns_foc.o(i.StateAlign) refers to mtr_adv_init.o(i.WM_Init) for WM_Init
    nvsns_foc.o(i.StateAlign) refers to nvsns_foc.o(i.EnableOutput) for EnableOutput
    nvsns_foc.o(i.StateAlign) refers to nvsns_foc.o(i.FocFastLoop) for FocFastLoop
    nvsns_foc.o(i.StateAlign) refers to nvsns_foc.o(i.ChangeAdcQ5ToIbus) for ChangeAdcQ5ToIbus
    nvsns_foc.o(i.StateAlign) refers to nvsns_foc.o(.bss) for .bss
    nvsns_foc.o(i.StateAlign) refers to foc_paras.o(.data) for tFocParas
    nvsns_foc.o(i.StateAlign) refers to nvsns_foc.o(.data) for .data
    nvsns_foc.o(i.StateCalib) refers to nvsns_foc.o(i.ChangeAdcQ5ToBEMF) for ChangeAdcQ5ToBEMF
    nvsns_foc.o(i.StateCalib) refers to nvsns_foc.o(i.DisableOutput) for DisableOutput
    nvsns_foc.o(i.StateCalib) refers to nvsns_foc.o(.bss) for .bss
    nvsns_foc.o(i.StateCalib) refers to curr_sample_1rps.o(.bss) for tCurrSample1rps
    nvsns_foc.o(i.StateFault) refers to nvsns_foc.o(i.DisableOutput) for DisableOutput
    nvsns_foc.o(i.StateFault) refers to nvsns_foc.o(.bss) for .bss
    nvsns_foc.o(i.StateInit) refers to nvsns_foc.o(i.DisableOutput) for DisableOutput
    nvsns_foc.o(i.StateInit) refers to nvsns_foc.o(i.InitFocParas) for InitFocParas
    nvsns_foc.o(i.StateInit) refers to nvsns_foc.o(.bss) for .bss
    nvsns_foc.o(i.StateReady) refers to nvsns_foc.o(.bss) for .bss
    nvsns_foc.o(i.StateReset) refers to nvsns_foc.o(i.DisableOutput) for DisableOutput
    nvsns_foc.o(i.StateReset) refers to nvsns_foc.o(.bss) for .bss
    nvsns_foc.o(i.StateRun) refers to amc_lib.o(.emb_text) for AMC_PMSMBemfObsvrDQ_F16
    nvsns_foc.o(i.StateRun) refers to nvsns_foc.o(i.AutomaticMode) for AutomaticMode
    nvsns_foc.o(i.StateRun) refers to nvsns_foc.o(i.FocSlowLoop) for FocSlowLoop
    nvsns_foc.o(i.StateRun) refers to nvsns_foc.o(i.FocFastLoop) for FocFastLoop
    nvsns_foc.o(i.StateRun) refers to nvsns_foc.o(i.CalcOpenLoop) for CalcOpenLoop
    nvsns_foc.o(i.StateRun) refers to nvsns_foc.o(.bss) for .bss
    nvsns_foc.o(i.StateRun) refers to nvsns_foc.o(.data) for .data
    nvsns_foc.o(i.StateRun) refers to foc_paras.o(.data) for tFocParas
    state_machine.o(.constdata) refers to nvsns_foc.o(i.StateFault) for StateFault
    state_machine.o(.constdata) refers to nvsns_foc.o(i.StateInit) for StateInit
    state_machine.o(.constdata) refers to nvsns_foc.o(i.StateReady) for StateReady
    state_machine.o(.constdata) refers to nvsns_foc.o(i.StateCalib) for StateCalib
    state_machine.o(.constdata) refers to nvsns_foc.o(i.StateAlign) for StateAlign
    state_machine.o(.constdata) refers to nvsns_foc.o(i.StateRun) for StateRun
    state_machine.o(.constdata) refers to nvsns_foc.o(i.StateReset) for StateReset
    freemaster_appcmd.o(i.FMSTR_AppCmdAck) refers to freemaster_appcmd.o(.data) for .data
    freemaster_appcmd.o(i.FMSTR_AppCmdSetResponseData) refers to freemaster_kxx.o(i.FMSTR_CopyMemory) for FMSTR_CopyMemory
    freemaster_appcmd.o(i.FMSTR_AppCmdSetResponseData) refers to freemaster_appcmd.o(.data) for .data
    freemaster_appcmd.o(i.FMSTR_AppCmdSetResponseData) refers to freemaster_appcmd.o(.bss) for .bss
    freemaster_appcmd.o(i.FMSTR_FindAppCmdCallIndex) refers to freemaster_appcmd.o(.data) for .data
    freemaster_appcmd.o(i.FMSTR_GetAppCmd) refers to freemaster_appcmd.o(i.FMSTR_FindAppCmdCallIndex) for FMSTR_FindAppCmdCallIndex
    freemaster_appcmd.o(i.FMSTR_GetAppCmd) refers to freemaster_appcmd.o(.data) for .data
    freemaster_appcmd.o(i.FMSTR_GetAppCmdData) refers to freemaster_appcmd.o(i.FMSTR_FindAppCmdCallIndex) for FMSTR_FindAppCmdCallIndex
    freemaster_appcmd.o(i.FMSTR_GetAppCmdData) refers to freemaster_appcmd.o(.data) for .data
    freemaster_appcmd.o(i.FMSTR_GetAppCmdData) refers to freemaster_appcmd.o(.bss) for .bss
    freemaster_appcmd.o(i.FMSTR_GetAppCmdRespData) refers to freemaster_kxx.o(i.FMSTR_CopyToBuffer) for FMSTR_CopyToBuffer
    freemaster_appcmd.o(i.FMSTR_GetAppCmdRespData) refers to freemaster_appcmd.o(.data) for .data
    freemaster_appcmd.o(i.FMSTR_GetAppCmdRespData) refers to freemaster_appcmd.o(.bss) for .bss
    freemaster_appcmd.o(i.FMSTR_GetAppCmdStatus) refers to freemaster_appcmd.o(i.FMSTR_FindAppCmdCallIndex) for FMSTR_FindAppCmdCallIndex
    freemaster_appcmd.o(i.FMSTR_GetAppCmdStatus) refers to freemaster_appcmd.o(.data) for .data
    freemaster_appcmd.o(i.FMSTR_GetAppCmdStatus) refers to freemaster_appcmd.o(.bss) for .bss
    freemaster_appcmd.o(i.FMSTR_InitAppCmds) refers to freemaster_appcmd.o(.data) for .data
    freemaster_appcmd.o(i.FMSTR_InitAppCmds) refers to freemaster_appcmd.o(.bss) for .bss
    freemaster_appcmd.o(i.FMSTR_RegisterAppCmdCall) refers to freemaster_appcmd.o(i.FMSTR_FindAppCmdCallIndex) for FMSTR_FindAppCmdCallIndex
    freemaster_appcmd.o(i.FMSTR_RegisterAppCmdCall) refers to freemaster_appcmd.o(.bss) for .bss
    freemaster_appcmd.o(i.FMSTR_RegisterAppCmdCall) refers to freemaster_appcmd.o(.data) for .data
    freemaster_appcmd.o(i.FMSTR_StoreAppCmd) refers to freemaster_kxx.o(i.FMSTR_CopyFromBuffer) for FMSTR_CopyFromBuffer
    freemaster_appcmd.o(i.FMSTR_StoreAppCmd) refers to freemaster_appcmd.o(.data) for .data
    freemaster_appcmd.o(i.FMSTR_StoreAppCmd) refers to freemaster_appcmd.o(.bss) for .bss
    freemaster_kxx.o(i.FMSTR_AddressFromBuffer) refers to freemaster_kxx.o(i.FMSTR_CopyFromBuffer) for FMSTR_CopyFromBuffer
    freemaster_kxx.o(i.FMSTR_AddressFromBuffer) refers to freemaster_kxx.o(.data) for .data
    freemaster_kxx.o(i.FMSTR_AddressToBuffer) refers to freemaster_kxx.o(i.FMSTR_CopyToBuffer) for FMSTR_CopyToBuffer
    freemaster_kxx.o(i.FMSTR_AddressToBuffer) refers to freemaster_kxx.o(.data) for .data
    freemaster_kxx.o(i.FMSTR_SetExAddr) refers to freemaster_kxx.o(.data) for .data
    freemaster_kxx.o(i.FMSTR_ValueFromBuffer16) refers to freemaster_kxx.o(i.FMSTR_CopyFromBuffer) for FMSTR_CopyFromBuffer
    freemaster_kxx.o(i.FMSTR_ValueFromBuffer32) refers to freemaster_kxx.o(i.FMSTR_CopyFromBuffer) for FMSTR_CopyFromBuffer
    freemaster_kxx.o(i.FMSTR_ValueToBuffer16) refers to freemaster_kxx.o(i.FMSTR_CopyToBuffer) for FMSTR_CopyToBuffer
    freemaster_kxx.o(i.FMSTR_ValueToBuffer32) refers to freemaster_kxx.o(i.FMSTR_CopyToBuffer) for FMSTR_CopyToBuffer
    freemaster_protocol.o(i.FMSTR_GetBoardInfo) refers to freemaster_rec.o(i.FMSTR_GetRecBuffSize) for FMSTR_GetRecBuffSize
    freemaster_protocol.o(i.FMSTR_GetBoardInfo) refers to freemaster_kxx.o(i.FMSTR_ValueToBuffer16) for FMSTR_ValueToBuffer16
    freemaster_protocol.o(i.FMSTR_Init) refers to freemaster_scope.o(i.FMSTR_InitScope) for FMSTR_InitScope
    freemaster_protocol.o(i.FMSTR_Init) refers to freemaster_rec.o(i.FMSTR_InitRec) for FMSTR_InitRec
    freemaster_protocol.o(i.FMSTR_Init) refers to freemaster_appcmd.o(i.FMSTR_InitAppCmds) for FMSTR_InitAppCmds
    freemaster_protocol.o(i.FMSTR_Init) refers to freemaster_serial.o(i.FMSTR_InitSerial) for FMSTR_InitSerial
    freemaster_protocol.o(i.FMSTR_ProtocolDecoder) refers to freemaster_kxx.o(i.FMSTR_SetExAddr) for FMSTR_SetExAddr
    freemaster_protocol.o(i.FMSTR_ProtocolDecoder) refers to freemaster_serial.o(i.FMSTR_SendResponse) for FMSTR_SendResponse
    freemaster_protocol.o(i.FMSTR_ProtocolDecoder) refers to freemaster_protocol.o(i.FMSTR_ReadMem) for FMSTR_ReadMem
    freemaster_protocol.o(i.FMSTR_ProtocolDecoder) refers to freemaster_scope.o(i.FMSTR_SetUpScope) for FMSTR_SetUpScope
    freemaster_protocol.o(i.FMSTR_ProtocolDecoder) refers to freemaster_scope.o(i.FMSTR_ReadScope) for FMSTR_ReadScope
    freemaster_protocol.o(i.FMSTR_ProtocolDecoder) refers to freemaster_rec.o(i.FMSTR_GetRecStatus) for FMSTR_GetRecStatus
    freemaster_protocol.o(i.FMSTR_ProtocolDecoder) refers to freemaster_rec.o(i.FMSTR_StartRec) for FMSTR_StartRec
    freemaster_protocol.o(i.FMSTR_ProtocolDecoder) refers to freemaster_rec.o(i.FMSTR_StopRec) for FMSTR_StopRec
    freemaster_protocol.o(i.FMSTR_ProtocolDecoder) refers to freemaster_rec.o(i.FMSTR_SetUpRec) for FMSTR_SetUpRec
    freemaster_protocol.o(i.FMSTR_ProtocolDecoder) refers to freemaster_rec.o(i.FMSTR_GetRecBuff) for FMSTR_GetRecBuff
    freemaster_protocol.o(i.FMSTR_ProtocolDecoder) refers to freemaster_appcmd.o(i.FMSTR_StoreAppCmd) for FMSTR_StoreAppCmd
    freemaster_protocol.o(i.FMSTR_ProtocolDecoder) refers to freemaster_appcmd.o(i.FMSTR_GetAppCmdStatus) for FMSTR_GetAppCmdStatus
    freemaster_protocol.o(i.FMSTR_ProtocolDecoder) refers to freemaster_appcmd.o(i.FMSTR_GetAppCmdRespData) for FMSTR_GetAppCmdRespData
    freemaster_protocol.o(i.FMSTR_ProtocolDecoder) refers to freemaster_protocol.o(i.FMSTR_WriteMem) for FMSTR_WriteMem
    freemaster_protocol.o(i.FMSTR_ProtocolDecoder) refers to freemaster_protocol.o(i.FMSTR_WriteMemMask) for FMSTR_WriteMemMask
    freemaster_protocol.o(i.FMSTR_ProtocolDecoder) refers to freemaster_protocol.o(i.FMSTR_GetBoardInfo) for FMSTR_GetBoardInfo
    freemaster_protocol.o(i.FMSTR_ReadMem) refers to freemaster_kxx.o(i.FMSTR_AddressFromBuffer) for FMSTR_AddressFromBuffer
    freemaster_protocol.o(i.FMSTR_ReadMem) refers to freemaster_kxx.o(i.FMSTR_CopyToBuffer) for FMSTR_CopyToBuffer
    freemaster_protocol.o(i.FMSTR_ReadVar) refers to freemaster_kxx.o(i.FMSTR_AddressFromBuffer) for FMSTR_AddressFromBuffer
    freemaster_protocol.o(i.FMSTR_ReadVar) refers to freemaster_kxx.o(i.FMSTR_CopyToBuffer) for FMSTR_CopyToBuffer
    freemaster_protocol.o(i.FMSTR_SendTestFrame) refers to freemaster_serial.o(i.FMSTR_SendResponse) for FMSTR_SendResponse
    freemaster_protocol.o(i.FMSTR_WriteMem) refers to freemaster_kxx.o(i.FMSTR_AddressFromBuffer) for FMSTR_AddressFromBuffer
    freemaster_protocol.o(i.FMSTR_WriteMem) refers to freemaster_kxx.o(i.FMSTR_CopyFromBuffer) for FMSTR_CopyFromBuffer
    freemaster_protocol.o(i.FMSTR_WriteMemMask) refers to freemaster_kxx.o(i.FMSTR_AddressFromBuffer) for FMSTR_AddressFromBuffer
    freemaster_protocol.o(i.FMSTR_WriteMemMask) refers to freemaster_kxx.o(i.FMSTR_CopyFromBufferWithMask) for FMSTR_CopyFromBufferWithMask
    freemaster_protocol.o(i.FMSTR_WriteVar) refers to freemaster_kxx.o(i.FMSTR_AddressFromBuffer) for FMSTR_AddressFromBuffer
    freemaster_protocol.o(i.FMSTR_WriteVar) refers to freemaster_kxx.o(i.FMSTR_CopyFromBuffer) for FMSTR_CopyFromBuffer
    freemaster_protocol.o(i.FMSTR_WriteVarMask) refers to freemaster_kxx.o(i.FMSTR_AddressFromBuffer) for FMSTR_AddressFromBuffer
    freemaster_protocol.o(i.FMSTR_WriteVarMask) refers to freemaster_kxx.o(i.FMSTR_CopyFromBufferWithMask) for FMSTR_CopyFromBufferWithMask
    freemaster_rec.o(i.FMSTR_AbortRec) refers to freemaster_rec.o(.data) for .data
    freemaster_rec.o(i.FMSTR_Compare16S) refers to freemaster_rec.o(.data) for .data
    freemaster_rec.o(i.FMSTR_Compare16U) refers to freemaster_rec.o(.data) for .data
    freemaster_rec.o(i.FMSTR_Compare32S) refers to freemaster_rec.o(.data) for .data
    freemaster_rec.o(i.FMSTR_Compare32U) refers to freemaster_rec.o(.data) for .data
    freemaster_rec.o(i.FMSTR_Compare8S) refers to freemaster_rec.o(.data) for .data
    freemaster_rec.o(i.FMSTR_Compare8U) refers to freemaster_rec.o(.data) for .data
    freemaster_rec.o(i.FMSTR_GetRecBuff) refers to freemaster_kxx.o(i.FMSTR_AddressToBuffer) for FMSTR_AddressToBuffer
    freemaster_rec.o(i.FMSTR_GetRecBuff) refers to freemaster_kxx.o(i.FMSTR_ValueToBuffer16) for FMSTR_ValueToBuffer16
    freemaster_rec.o(i.FMSTR_GetRecBuff) refers to freemaster_rec.o(.data) for .data
    freemaster_rec.o(i.FMSTR_GetRecStatus) refers to freemaster_rec.o(.data) for .data
    freemaster_rec.o(i.FMSTR_InitRec) refers to freemaster_rec.o(.data) for .data
    freemaster_rec.o(i.FMSTR_InitRec) refers to freemaster_rec.o(.bss) for .bss
    freemaster_rec.o(i.FMSTR_IsInRecBuffer) refers to freemaster_rec.o(i.FMSTR_GetRecBuffSize) for FMSTR_GetRecBuffSize
    freemaster_rec.o(i.FMSTR_IsInRecBuffer) refers to freemaster_rec.o(.data) for .data
    freemaster_rec.o(i.FMSTR_Recorder) refers to freemaster_rec.o(i.FMSTR_Recorder2) for FMSTR_Recorder2
    freemaster_rec.o(i.FMSTR_Recorder) refers to freemaster_rec.o(.data) for .data
    freemaster_rec.o(i.FMSTR_Recorder2) refers to freemaster_kxx.o(i.FMSTR_CopyMemory) for FMSTR_CopyMemory
    freemaster_rec.o(i.FMSTR_Recorder2) refers to freemaster_rec.o(i.FMSTR_TriggerRec) for FMSTR_TriggerRec
    freemaster_rec.o(i.FMSTR_Recorder2) refers to freemaster_rec.o(.data) for .data
    freemaster_rec.o(i.FMSTR_Recorder2) refers to freemaster_rec.o(.bss) for .bss
    freemaster_rec.o(i.FMSTR_SetUpRec) refers to freemaster_rec.o(i.FMSTR_AbortRec) for FMSTR_AbortRec
    freemaster_rec.o(i.FMSTR_SetUpRec) refers to freemaster_kxx.o(i.FMSTR_ValueFromBuffer16) for FMSTR_ValueFromBuffer16
    freemaster_rec.o(i.FMSTR_SetUpRec) refers to freemaster_kxx.o(i.FMSTR_AddressFromBuffer) for FMSTR_AddressFromBuffer
    freemaster_rec.o(i.FMSTR_SetUpRec) refers to freemaster_kxx.o(i.FMSTR_ValueFromBuffer32) for FMSTR_ValueFromBuffer32
    freemaster_rec.o(i.FMSTR_SetUpRec) refers to freemaster_rec.o(i.FMSTR_GetRecBuffSize) for FMSTR_GetRecBuffSize
    freemaster_rec.o(i.FMSTR_SetUpRec) refers to freemaster_rec.o(.bss) for .bss
    freemaster_rec.o(i.FMSTR_SetUpRec) refers to freemaster_rec.o(.data) for .data
    freemaster_rec.o(i.FMSTR_SetUpRec) refers to freemaster_rec.o(i.FMSTR_Compare8S) for FMSTR_Compare8S
    freemaster_rec.o(i.FMSTR_SetUpRec) refers to freemaster_rec.o(i.FMSTR_Compare8U) for FMSTR_Compare8U
    freemaster_rec.o(i.FMSTR_SetUpRec) refers to freemaster_rec.o(i.FMSTR_Compare16S) for FMSTR_Compare16S
    freemaster_rec.o(i.FMSTR_SetUpRec) refers to freemaster_rec.o(i.FMSTR_Compare16U) for FMSTR_Compare16U
    freemaster_rec.o(i.FMSTR_SetUpRec) refers to freemaster_rec.o(i.FMSTR_Compare32S) for FMSTR_Compare32S
    freemaster_rec.o(i.FMSTR_SetUpRec) refers to freemaster_rec.o(i.FMSTR_Compare32U) for FMSTR_Compare32U
    freemaster_rec.o(i.FMSTR_StartRec) refers to freemaster_rec.o(.data) for .data
    freemaster_rec.o(i.FMSTR_StopRec) refers to freemaster_rec.o(i.FMSTR_TriggerRec) for FMSTR_TriggerRec
    freemaster_rec.o(i.FMSTR_StopRec) refers to freemaster_rec.o(.data) for .data
    freemaster_rec.o(i.FMSTR_TriggerRec) refers to freemaster_rec.o(.data) for .data
    freemaster_scope.o(i.FMSTR_ReadScope) refers to freemaster_kxx.o(i.FMSTR_CopyToBuffer) for FMSTR_CopyToBuffer
    freemaster_scope.o(i.FMSTR_ReadScope) refers to freemaster_scope.o(.data) for .data
    freemaster_scope.o(i.FMSTR_ReadScope) refers to freemaster_scope.o(.bss) for .bss
    freemaster_scope.o(i.FMSTR_SetUpScope) refers to freemaster_kxx.o(i.FMSTR_AddressFromBuffer) for FMSTR_AddressFromBuffer
    freemaster_scope.o(i.FMSTR_SetUpScope) refers to freemaster_scope.o(.data) for .data
    freemaster_scope.o(i.FMSTR_SetUpScope) refers to freemaster_scope.o(.bss) for .bss
    freemaster_serial.o(i.FMSTR_InitSerial) refers to freemaster_serial.o(i.FMSTR_Listen) for FMSTR_Listen
    freemaster_serial.o(i.FMSTR_InitSerial) refers to freemaster_serial.o(.data) for .data
    freemaster_serial.o(i.FMSTR_Listen) refers to freemaster_serial.o(.data) for .data
    freemaster_serial.o(i.FMSTR_Poll) refers to freemaster_serial.o(i.FMSTR_ProcessSCI) for FMSTR_ProcessSCI
    freemaster_serial.o(i.FMSTR_ProcessSCI) refers to freemaster_serial.o(i.FMSTR_Tx) for FMSTR_Tx
    freemaster_serial.o(i.FMSTR_ProcessSCI) refers to uart.o(i.UART_DataTransmit) for UART_DataTransmit
    freemaster_serial.o(i.FMSTR_ProcessSCI) refers to uart.o(i.UART_DataReceive) for UART_DataReceive
    freemaster_serial.o(i.FMSTR_ProcessSCI) refers to freemaster_serial.o(i.FMSTR_Rx) for FMSTR_Rx
    freemaster_serial.o(i.FMSTR_ProcessSCI) refers to freemaster_serial.o(.data) for .data
    freemaster_serial.o(i.FMSTR_Rx) refers to freemaster_serial.o(i.FMSTR_SendError) for FMSTR_SendError
    freemaster_serial.o(i.FMSTR_Rx) refers to freemaster_protocol.o(i.FMSTR_ProtocolDecoder) for FMSTR_ProtocolDecoder
    freemaster_serial.o(i.FMSTR_Rx) refers to freemaster_serial.o(.data) for .data
    freemaster_serial.o(i.FMSTR_Rx) refers to freemaster_serial.o(.bss) for .bss
    freemaster_serial.o(i.FMSTR_SendError) refers to freemaster_serial.o(i.FMSTR_SendResponse) for FMSTR_SendResponse
    freemaster_serial.o(i.FMSTR_SendError) refers to freemaster_serial.o(.bss) for .bss
    freemaster_serial.o(i.FMSTR_SendResponse) refers to uart.o(i.UART_DataTransmit) for UART_DataTransmit
    freemaster_serial.o(i.FMSTR_SendResponse) refers to freemaster_serial.o(.data) for .data
    freemaster_serial.o(i.FMSTR_Tx) refers to freemaster_serial.o(i.FMSTR_Listen) for FMSTR_Listen
    freemaster_serial.o(i.FMSTR_Tx) refers to freemaster_serial.o(.data) for .data
    lin_api_appl.o(i.l_clr_confirm_com_type_cmd) refers to lin_api_appl.o(.data) for .data
    lin_api_appl.o(i.l_clr_ctrl_update_cmd) refers to lin_api_appl.o(.data) for .data
    lin_api_appl.o(i.l_flg_set_update_flags) refers to lin_config.o(.data) for g_nodeFramePIDTable
    lin_api_appl.o(i.l_flg_set_update_flags) refers to lin_api_appl.o(.data) for .data
    lin_api_appl.o(i.l_get_confirm_com_type_cmd) refers to lin_api_appl.o(.data) for .data
    lin_api_appl.o(i.l_get_ctrl_update_cmd) refers to lin_api_appl.o(.data) for .data
    lin_api_appl.o(i.l_u8_wr_Counter) refers to lin_api.o(i.l_sys_irq_disable) for l_sys_irq_disable
    lin_api_appl.o(i.l_u8_wr_Counter) refers to lin_api.o(i.l_sys_irq_restore) for l_sys_irq_restore
    lin_api_appl.o(i.l_u8_wr_Counter) refers to lin_config.o(.constdata) for g_nodeConfigFrameTable
    lin_api_appl.o(i.l_u8_wr_Counter) refers to lin_config.o(.bss) for g_eventTable
    lin_config.o(.constdata) refers to lin_config.o(.data) for g_linFrameDataBufferOf_ID02
    lin_config.o(.constdata) refers to lin_config.o(.data) for g_linFrameDataBufferOf_ID03
    lin_config.o(.constdata) refers to lin_config.o(.data) for g_linFrameDataBufferOf_ID48
    lin_config.o(.constdata) refers to lin_config.o(.data) for g_linFrameDataBufferOf_ID58
    lin_config.o(.constdata) refers to lin_config.o(.data) for g_linFrameDataBufferOf_ID59
    lin_config.o(.constdata) refers to lin_config.o(.data) for g_linFrameDataBufferOf_ID15
    lin_config.o(.constdata) refers to lin_config.o(.data) for g_linFrameDataBufferOf_ID16
    lin_config.o(.constdata) refers to lin_config.o(.data) for g_linFrameDataBufferOf_ID60
    lin_config.o(.constdata) refers to lin_config.o(.data) for g_linFrameDataBufferOf_ID61
    lin_identification_and_configuration.o(i.BSM_BitEndCallback) refers to lin_identification_and_configuration.o(i.BSM_ShuntMeasurement) for BSM_ShuntMeasurement
    lin_identification_and_configuration.o(i.BSM_BitEndCallback) refers to lin_identification_and_configuration.o(i.BSM_Reset) for BSM_Reset
    lin_identification_and_configuration.o(i.BSM_BitEndCallback) refers to lin_identification_and_configuration.o(.data) for .data
    lin_identification_and_configuration.o(i.BSM_FeCallback) refers to lin_identification_and_configuration.o(i.BSM_InitShuntMeasurement) for BSM_InitShuntMeasurement
    lin_identification_and_configuration.o(i.BSM_FeCallback) refers to lin_identification_and_configuration.o(.data) for .data
    lin_identification_and_configuration.o(i.BSM_GetBSMNodeStatus) refers to lin_identification_and_configuration.o(.data) for .data
    lin_identification_and_configuration.o(i.BSM_InitShuntMeasurement) refers to lin_identification_and_configuration.o(.data) for .data
    lin_identification_and_configuration.o(i.BSM_InitShuntMeasurement) refers to lin_identification_and_configuration.o(.bss) for .bss
    lin_identification_and_configuration.o(i.BSM_Reset) refers to lin_identification_and_configuration.o(.data) for .data
    lin_identification_and_configuration.o(i.BSM_Reset) refers to lin_identification_and_configuration.o(.bss) for .bss
    lin_identification_and_configuration.o(i.BSM_ResetInFrameEnd) refers to lin_identification_and_configuration.o(.data) for .data
    lin_identification_and_configuration.o(i.LINPORT_IRQHandler) refers to lin_identification_and_configuration.o(i.BSM_Reset) for BSM_Reset
    lin_identification_and_configuration.o(i.LINPORT_IRQHandler) refers to lin_init.o(i.ResetProtocolState) for ResetProtocolState
    lin_identification_and_configuration.o(i.LINPORT_IRQHandler) refers to lin_identification_and_configuration.o(i.BSM_FeCallback) for BSM_FeCallback
    lin_identification_and_configuration.o(i.LINPORT_IRQHandler) refers to lin_identification_and_configuration.o(i.BSM_BitEndCallback) for BSM_BitEndCallback
    lin_identification_and_configuration.o(i.LINPORT_IRQHandler) refers to lin_identification_and_configuration.o(.data) for .data
    lin_identification_and_configuration.o(i.LIN_AssignFrameIDRange) refers to lin_identification_and_configuration.o(i.MatchNAD) for MatchNAD
    lin_identification_and_configuration.o(i.LIN_AssignFrameIDRange) refers to lin_identification_and_configuration.o(i.LIN_SetSendingResponseForConfig) for LIN_SetSendingResponseForConfig
    lin_identification_and_configuration.o(i.LIN_AssignFrameIDRange) refers to lin_config.o(.constdata) for g_nodeConfigFrameTable
    lin_identification_and_configuration.o(i.LIN_AssignFrameIDRange) refers to lin_config.o(.data) for g_nodeFramePIDTable
    lin_identification_and_configuration.o(i.LIN_AssignFrameIDRange) refers to lin_identification_and_configuration.o(.data) for .data
    lin_identification_and_configuration.o(i.LIN_AssignNAD) refers to lin_identification_and_configuration.o(i.MatchSupplierID) for MatchSupplierID
    lin_identification_and_configuration.o(i.LIN_AssignNAD) refers to lin_identification_and_configuration.o(i.MatchFunctionID) for MatchFunctionID
    lin_identification_and_configuration.o(i.LIN_AssignNAD) refers to lin_identification_and_configuration.o(i.LIN_SetSendingResponseForConfig) for LIN_SetSendingResponseForConfig
    lin_identification_and_configuration.o(i.LIN_AssignNAD) refers to lin_config.o(.constdata) for g_nodeConfigFrameTable
    lin_identification_and_configuration.o(i.LIN_AssignNAD) refers to lin_identification_and_configuration.o(.data) for .data
    lin_identification_and_configuration.o(i.LIN_ClearResponseFlagForDiagnosisFrame) refers to lin_identification_and_configuration.o(.data) for .data
    lin_identification_and_configuration.o(i.LIN_ClearSaveNADRequest) refers to lin_identification_and_configuration.o(.data) for .data
    lin_identification_and_configuration.o(i.LIN_ClearSavePIDRequest) refers to lin_identification_and_configuration.o(.data) for .data
    lin_identification_and_configuration.o(i.LIN_ConditionalChangeNAD) refers to lin_identification_and_configuration.o(i.MatchNAD) for MatchNAD
    lin_identification_and_configuration.o(i.LIN_ConditionalChangeNAD) refers to lin_identification_and_configuration.o(i.LIN_SetSendingResponseForConfig) for LIN_SetSendingResponseForConfig
    lin_identification_and_configuration.o(i.LIN_ConditionalChangeNAD) refers to lin_config.o(.constdata) for g_nodeConfigFrameTable
    lin_identification_and_configuration.o(i.LIN_ConditionalChangeNAD) refers to lin_config.o(.constdata) for g_serialNumber
    lin_identification_and_configuration.o(i.LIN_ConditionalChangeNAD) refers to lin_identification_and_configuration.o(.data) for .data
    lin_identification_and_configuration.o(i.LIN_EnterProgramSession) refers to lin_identification_and_configuration.o(i.MatchNAD) for MatchNAD
    lin_identification_and_configuration.o(i.LIN_EnterProgramSession) refers to lin_nvr.o(i.SetRequestEnterBootloader) for SetRequestEnterBootloader
    lin_identification_and_configuration.o(i.LIN_EnterProgramSession) refers to lin_config.o(.constdata) for g_nodeConfigFrameTable
    lin_identification_and_configuration.o(i.LIN_GetResponseFlagForDiagnosisFrame) refers to lin_identification_and_configuration.o(.data) for .data
    lin_identification_and_configuration.o(i.LIN_GetSaveNADRequest) refers to lin_identification_and_configuration.o(.data) for .data
    lin_identification_and_configuration.o(i.LIN_GetSavePIDRequest) refers to lin_identification_and_configuration.o(.data) for .data
    lin_identification_and_configuration.o(i.LIN_NodeConfigAndIndentifByDiagnosticFrame) refers to memseta.o(.text) for __aeabi_memset
    lin_identification_and_configuration.o(i.LIN_NodeConfigAndIndentifByDiagnosticFrame) refers to lin_config.o(.constdata) for g_nodeConfigFrameTable
    lin_identification_and_configuration.o(i.LIN_NodeConfigAndIndentifByDiagnosticFrame) refers to lin_identification_and_configuration.o(.data) for .data
    lin_identification_and_configuration.o(i.LIN_NodeConfigAndIndentifByDiagnosticFrame) refers to lin_identification_and_configuration.o(.constdata) for .constdata
    lin_identification_and_configuration.o(i.LIN_ReadByIdentifier) refers to lin_identification_and_configuration.o(i.MatchNAD) for MatchNAD
    lin_identification_and_configuration.o(i.LIN_ReadByIdentifier) refers to lin_identification_and_configuration.o(i.MatchSupplierID) for MatchSupplierID
    lin_identification_and_configuration.o(i.LIN_ReadByIdentifier) refers to lin_identification_and_configuration.o(i.MatchFunctionID) for MatchFunctionID
    lin_identification_and_configuration.o(i.LIN_ReadByIdentifier) refers to lin_identification_and_configuration.o(i.LIN_SetSendingResponseForConfig) for LIN_SetSendingResponseForConfig
    lin_identification_and_configuration.o(i.LIN_ReadByIdentifier) refers to lin_config.o(.constdata) for g_nodeConfigFrameTable
    lin_identification_and_configuration.o(i.LIN_ReadByIdentifier) refers to lin_identification_and_configuration.o(.data) for .data
    lin_identification_and_configuration.o(i.LIN_ReadByIdentifier) refers to lin_config.o(.constdata) for g_productIdentifier
    lin_identification_and_configuration.o(i.LIN_SNPD) refers to lin_identification_and_configuration.o(i.MatchWildcardID) for MatchWildcardID
    lin_identification_and_configuration.o(i.LIN_SNPD) refers to lin_identification_and_configuration.o(i.BSM_Reset) for BSM_Reset
    lin_identification_and_configuration.o(i.LIN_SNPD) refers to lin_nvr.o(i.ReadNADFromNVR) for ReadNADFromNVR
    lin_identification_and_configuration.o(i.LIN_SNPD) refers to lin_config.o(.constdata) for g_nodeConfigFrameTable
    lin_identification_and_configuration.o(i.LIN_SNPD) refers to lin_identification_and_configuration.o(.data) for .data
    lin_identification_and_configuration.o(i.LIN_SaveConfiguration) refers to lin_identification_and_configuration.o(i.MatchNAD) for MatchNAD
    lin_identification_and_configuration.o(i.LIN_SaveConfiguration) refers to lin_identification_and_configuration.o(i.LIN_SetSendingResponseForConfig) for LIN_SetSendingResponseForConfig
    lin_identification_and_configuration.o(i.LIN_SaveConfiguration) refers to lin_config.o(.constdata) for g_nodeConfigFrameTable
    lin_identification_and_configuration.o(i.LIN_SaveConfiguration) refers to lin_identification_and_configuration.o(.data) for .data
    lin_identification_and_configuration.o(i.LIN_SetSendingResponseForConfig) refers to lin_identification_and_configuration.o(.data) for .data
    lin_identification_and_configuration.o(i.LIN_TpLayerNCrTimeoutScheduler) refers to lin_api.o(i.l_sys_irq_disable) for l_sys_irq_disable
    lin_identification_and_configuration.o(i.LIN_TpLayerNCrTimeoutScheduler) refers to lin_api.o(i.l_sys_irq_restore) for l_sys_irq_restore
    lin_identification_and_configuration.o(i.LIN_TpLayerNCrTimeoutScheduler) refers to lin_identification_and_configuration.o(.data) for .data
    lin_identification_and_configuration.o(i.MatchFunctionID) refers to lin_config.o(.constdata) for g_productIdentifier
    lin_identification_and_configuration.o(i.MatchNAD) refers to lin_identification_and_configuration.o(.data) for .data
    lin_identification_and_configuration.o(i.MatchSupplierID) refers to lin_config.o(.constdata) for g_productIdentifier
    lin_identification_and_configuration.o(.constdata) refers to lin_identification_and_configuration.o(i.LIN_AssignNAD) for LIN_AssignNAD
    lin_identification_and_configuration.o(.constdata) refers to lin_identification_and_configuration.o(i.LIN_ReadByIdentifier) for LIN_ReadByIdentifier
    lin_identification_and_configuration.o(.constdata) refers to lin_identification_and_configuration.o(i.LIN_ConditionalChangeNAD) for LIN_ConditionalChangeNAD
    lin_identification_and_configuration.o(.constdata) refers to lin_identification_and_configuration.o(i.LIN_EnterProgramSession) for LIN_EnterProgramSession
    lin_identification_and_configuration.o(.constdata) refers to lin_identification_and_configuration.o(i.LIN_SNPD) for LIN_SNPD
    lin_identification_and_configuration.o(.constdata) refers to lin_identification_and_configuration.o(i.LIN_SaveConfiguration) for LIN_SaveConfiguration
    lin_identification_and_configuration.o(.constdata) refers to lin_identification_and_configuration.o(i.LIN_AssignFrameIDRange) for LIN_AssignFrameIDRange
    lin_nvr.o(i.ReadNADFromNVR) refers to lin_identification_and_configuration.o(.data) for g_nad
    lin_nvr.o(i.SetRequestEnterBootloader) refers to memseta.o(.text) for __aeabi_memset
    lin_nvr.o(i.SetRequestEnterBootloader) refers to lin_nvr.o(.bss) for .bss
    lin_nvr.o(i.WriteNADToNVR) refers to memseta.o(.text) for __aeabi_memset
    lin_nvr.o(i.WriteNADToNVR) refers to lin_nvr.o(.bss) for .bss
    lin_nvr.o(i.WriteNADToNVR) refers to lin_identification_and_configuration.o(.data) for g_nad
    lin_nvr.o(i.WritePIDToNVR) refers to memseta.o(.text) for __aeabi_memset
    lin_nvr.o(i.WritePIDToNVR) refers to lin_nvr.o(.bss) for .bss
    lin_init.o(i.CalculateCheckSum) refers to lin_api.o(.data) for g_nowFrameExpectedByte
    lin_init.o(i.GotoSleep) refers to lin_init.o(i.PrepareToWakeup) for PrepareToWakeup
    lin_init.o(i.LINUART_IRQHandler) refers to lin_api.o(i.NotifyRxTxStatus) for NotifyRxTxStatus
    lin_init.o(i.LINUART_IRQHandler) refers to lin_init.o(i.SetLINResponseErrorForUser) for SetLINResponseErrorForUser
    lin_init.o(i.LINUART_IRQHandler) refers to lin_api.o(i.l_ifc_rx_MyLinIfc) for l_ifc_rx_MyLinIfc
    lin_init.o(i.LINUART_IRQHandler) refers to lin_init.o(i.ResetProtocolState) for ResetProtocolState
    lin_init.o(i.LINUART_IRQHandler) refers to lin_init.o(.data) for .data
    lin_init.o(i.LINUART_IRQHandler) refers to lin_api.o(.data) for g_myLinStatus
    lin_init.o(i.LINUART_ReceiveDataByFIFO) refers to lin_init.o(i.CalculateCheckSum) for CalculateCheckSum
    lin_init.o(i.LINUART_ReceiveDataByFIFO) refers to lin_api.o(.bss) for g_dataBuffTmp
    lin_init.o(i.LINUART_ReceiveDataByFIFO) refers to lin_api.o(.data) for g_nowFrameExpectedByte
    lin_init.o(i.LINUART_TransmitDataByFIFO) refers to memcpya.o(.text) for __aeabi_memcpy
    lin_init.o(i.LINUART_TransmitDataByFIFO) refers to lin_init.o(i.CalculateCheckSum) for CalculateCheckSum
    lin_init.o(i.LINUART_TransmitDataByFIFO) refers to lin_api.o(.data) for g_currentFramePointer
    lin_init.o(i.LINUART_TransmitDataByFIFO) refers to lin_api.o(.bss) for g_dataBuffTmp
    lin_init.o(i.ResetLINResponseErrorForUser) refers to lin_init.o(i.WriteResponseError) for WriteResponseError
    lin_init.o(i.ResetLINResponseErrorForUser) refers to lin_api.o(.data) for g_myLinStatus
    lin_init.o(i.ResetLINResponseErrorForUser) refers to lin_api.o(.bss) for g_dataBuffTmp
    lin_init.o(i.ResetLINResponseErrorForUser) refers to lin_config.o(.data) for g_nodeFramePIDTable
    lin_init.o(i.ResetLINResponseErrorForUser) refers to lin_init.o(.data) for .data
    lin_init.o(i.ResetProtocolState) refers to lin_identification_and_configuration.o(i.BSM_ResetInFrameEnd) for BSM_ResetInFrameEnd
    lin_init.o(i.ResetProtocolState) refers to lin_api.o(.data) for g_myLinStatus
    lin_init.o(i.SetLINResponseErrorForUser) refers to lin_init.o(i.WriteResponseError) for WriteResponseError
    lin_init.o(i.SetLINResponseErrorForUser) refers to lin_init.o(.data) for .data
    lin_init.o(i.WriteResponseError) refers to lin_config.o(.constdata) for g_nodeConfigFrameTable
    lin_init.o(i.l_scheduler) refers to lin_init.o(i.GotoSleep) for GotoSleep
    lin_init.o(i.l_scheduler) refers to lin_init.o(.data) for .data
    lin_init.o(i.l_sys_init) refers to lin_init.o(i.PrepareToWakeup) for PrepareToWakeup
    lin_init.o(i.l_sys_init) refers to lin_nvr.o(i.ReadNADFromNVR) for ReadNADFromNVR
    lin_init.o(i.l_sys_init) refers to lin_nvr.o(i.ReadPIDFromNVR) for ReadPIDFromNVR
    lin_init.o(i.l_sys_init) refers to lin_config.o(.data) for g_nodeFramePIDTable
    lin_init.o(i.l_sys_init) refers to lin_api.o(.data) for g_myLinStatus
    lin_init.o(i.l_sys_init) refers to lin_init.o(.data) for .data
    fault_diagnose.o(i.AlarmCheck10msTask) refers to fault_diagnose.o(i.CheckHardwareOcp) for CheckHardwareOcp
    fault_diagnose.o(i.AlarmCheck10msTask) refers to fault_diagnose.o(i.CheckHardwareShortCircuit) for CheckHardwareShortCircuit
    fault_diagnose.o(i.CheckBusOvp) refers to fault_diagnose.o(.data) for .data
    fault_diagnose.o(i.CheckBusOvp) refers to fault_init.o(.bss) for tFaultCfg
    fault_diagnose.o(i.CheckBusUvp) refers to fault_diagnose.o(.data) for .data
    fault_diagnose.o(i.CheckBusUvp) refers to fault_init.o(.bss) for tFaultCfg
    fault_diagnose.o(i.CheckChipOTp) refers to fault_init.o(.bss) for tFaultCfg
    fault_diagnose.o(i.CheckChipOTp) refers to fault_diagnose.o(.data) for .data
    fault_diagnose.o(i.CheckHardwareOcp) refers to fault_diagnose.o(.data) for .data
    fault_diagnose.o(i.CheckHardwareShortCircuit) refers to fault_diagnose.o(.data) for .data
    fault_diagnose.o(i.CheckLackPhase) refers to fault_diagnose.o(i.ChangePeak2Rms) for ChangePeak2Rms
    fault_diagnose.o(i.CheckLackPhase) refers to fault_diagnose.o(i.BubbleSort) for BubbleSort
    fault_diagnose.o(i.CheckLackPhase) refers to fault_diagnose.o(.data) for .data
    fault_diagnose.o(i.CheckLackPhase) refers to nvsns_foc.o(.bss) for tDrvFoc
    fault_diagnose.o(i.CheckMOSOTpSensor) refers to fault_diagnose.o(.data) for .data
    fault_diagnose.o(i.CheckStall) refers to fault_diagnose.o(.data) for .data
    fault_diagnose.o(i.CheckStallLockState) refers to fault_diagnose.o(.data) for .data
    fault_diagnose.o(i.GetCurrentAbsSum025) refers to fault_diagnose.o(.data) for .data
    fault_diagnose.o(i.getCurrentMaxMin) refers to nvsns_foc.o(.bss) for tDrvFoc
    fault_diagnose.o(i.getCurrentMaxMin) refers to fault_diagnose.o(.data) for .data
    fault_handler.o(i.CHP_IRQHandler) refers to fault_diagnose.o(.data) for tFaultMode
    fault_handler.o(i.GDU_IRQHandler) refers to fault_diagnose.o(.data) for tFaultMode
    fault_handler.o(i.PMU_IRQHandler) refers to fault_diagnose.o(.data) for tFaultMode
    fault_init.o(i.FAULT_Init) refers to foc_paras.o(.data) for tFocParas
    fault_init.o(i.FAULT_Init) refers to fault_init.o(.bss) for .bss
    foclib_init.o(i.HFI_Enable) refers to foclib_init.o(i.HFI_ResetPwmConfig) for HFI_ResetPwmConfig
    foclib_init.o(i.HFI_Enable) refers to hfi_lib.o(i.HFI_GenerateRandom) for HFI_GenerateRandom
    foclib_init.o(i.HFI_Enable) refers to foclib_init.o(i.HFI_ChangePwmFreq) for HFI_ChangePwmFreq
    foclib_init.o(i.HFI_Init) refers to cdcmple.o(.text) for __aeabi_cdcmple
    foclib_init.o(i.HFI_Init) refers to cdrcmple.o(.text) for __aeabi_cdrcmple
    foclib_init.o(i.HFI_Init) refers to dscalb.o(.text) for __ARM_scalbn
    foclib_init.o(i.HFI_Init) refers to dfixi.o(.text) for __aeabi_d2iz
    foclib_init.o(i.HFI_Init) refers to pll_pi.o(i.init_pll_pi) for init_pll_pi
    foclib_init.o(i.HFI_Init) refers to hfi_lib.o(.data) for hfi_theta_32bit
    foclib_init.o(i.head_wind_pll_init) refers to cdcmple.o(.text) for __aeabi_cdcmple
    foclib_init.o(i.head_wind_pll_init) refers to cdrcmple.o(.text) for __aeabi_cdrcmple
    foclib_init.o(i.head_wind_pll_init) refers to dscalb.o(.text) for __ARM_scalbn
    foclib_init.o(i.head_wind_pll_init) refers to dfixi.o(.text) for __aeabi_d2iz
    foclib_init.o(i.head_wind_pll_init) refers to pll_pi.o(i.init_pll_pi) for init_pll_pi
    foclib_init.o(i.head_wind_pll_init) refers to windmilling_pll.o(.data) for is_ccw_wind
    foclib_init.o(i.head_wind_pll_init) refers to windmilling_pll.o(.data) for headwind_machine_speed
    foclib_init.o(i.head_wind_pll_init) refers to windmilling_pll.o(.data) for headwind_machine_speed_flt
    foclib_init.o(i.head_wind_pll_init) refers to windmilling_pll.o(.data) for wind_detect_state
    foclib_init.o(i.head_wind_pll_init) refers to windmilling_pll.o(.data) for brake_counter
    foclib_init.o(i.head_wind_pll_init) refers to windmilling_pll.o(.data) for wind_detect_init_counter
    foclib_init.o(i.head_wind_pll_init) refers to windmilling_pll.o(.data) for wind_detect_time_cnt
    foclib_init.o(i.head_wind_pll_init) refers to windmilling_pll.o(.data) for headwind_det_stability_counter
    foclib_init.o(i.head_wind_pll_init) refers to windmilling_pll.o(.bss) for headwind_pll
    foclib_init.o(i.head_wind_pll_init) refers to windmilling_pll.o(.bss) for headwind_axis_d_ctrl
    foclib_init.o(i.head_wind_pll_init) refers to windmilling_pll.o(.bss) for headwind_axis_q_ctrl
    mm_lib.o(i.MM_AtanXYF16) refers to mm_lib.o(.data) for .data
    mm_lib.o(i.MM_QuartAtanF16) refers to mm_lib.o(.data) for .data
    mm_lib.o(i.MM_SqrtLut_F16) refers to mm_lib.o(.data) for .data
    mm_lib.o(i.MM_ThetaTransferTrigonoLut) refers to mm_lib.o(.data) for .data
    amc_lib.o(.emb_text) refers to mm_lib.o(i.MM_ThetaTransferTrigonoLut) for MM_ThetaTransferTrigonoLut
    amc_lib.o(.emb_text) refers to gmc_lib.o(.emb_text) for GMC_ParkeF16
    amc_lib.o(.emb_text) refers to gcf_lib.o(.emb_text) for GCF_CtrlPIrAW_F16
    amc_lib.o(.emb_text) refers to llshl.o(.text) for __aeabi_llsl
    amc_lib.o(.emb_text) refers to llsshr.o(.text) for __aeabi_lasr
    amc_lib.o(.emb_text) refers to mm_lib.o(i.MM_QuartAtanF16) for MM_QuartAtanF16
    amc_lib.o(.emb_text) refers to amc_lib.o(i.AMC_TrackObsrv_F16) for AMC_TrackObsrv_F16
    amc_lib.o(i.AMC_TrackObsrv_F16) refers to gcf_lib.o(.emb_text) for GCF_CtrlPIrAW_F16
    amc_lib.o(i.AMC_TrackObsrv_F16) refers to amc_lib.o(.data) for .data
    curr_sample_1rps.o(.emb_text) refers to curr_sample_1rps.o(i.SortCurrent) for SortCurrent
    curr_sample_1rps.o(.emb_text) refers to curr_sample_1rps.o(i.MotorPWM_OneShuntSetTriggerPoint) for MotorPWM_OneShuntSetTriggerPoint
    curr_sample_1rps.o(.emb_text) refers to nvsns_foc.o(.data) for PWMPeriod
    curr_sample_1rps.o(i.ADC_Cali16Ibration) refers to curr_sample_1rps.o(.bss) for .bss
    curr_sample_1rps.o(i.InitMotorParameter) refers to nvsns_foc.o(.data) for g_u16SampleSlot
    curr_sample_1rps.o(i.InitMotorParameter) refers to curr_sample_1rps.o(.data) for .data
    curr_sample_1rps.o(i.SetPwmDuty) refers to nvsns_foc.o(.data) for PWMPeriod
    windmilling.o(i.WM_SwitchSmooth) refers to windmilling.o(.data) for .data
    windmilling.o(i.WM_WindDetection) refers to mm_lib.o(i.MM_AtanXYF16) for MM_AtanXYF16
    windmilling.o(i.WM_WindDetection) refers to windmilling.o(.data) for .data
    deadtime_comp.o(i.DeadTimeComUpdate) refers to gmc_lib.o(.emb_text) for GMC_InvParkF16
    deadtime_comp.o(i.DeadTimeComUpdate) refers to mm_lib.o(i.MM_AtanXYF16) for MM_AtanXYF16
    deadtime_comp.o(i.DeadTimeComUpdate) refers to nvsns_foc.o(.bss) for tDrvFoc
    deadtime_comp.o(i.DeadTimeComUpdate) refers to deadtime_comp.o(.data) for .data
    smart_align.o(i.SmartAlgnInit) refers to smart_align.o(.data) for .data
    smart_align.o(i.SmartAlign) refers to smart_align.o(.data) for .data
    smart_align.o(i.SmartAlign) refers to nvsns_foc.o(.bss) for tDrvFoc
    lin_api.o(i.BusIdleStartMeasurement) refers to lin_init.o(.data) for g_busIdleTimeoutCounter
    lin_api.o(i.NotifyRxTxStatus) refers to lin_init.o(i.ResetLINResponseErrorForUser) for ResetLINResponseErrorForUser
    lin_api.o(i.NotifyRxTxStatus) refers to lin_api_appl.o(i.l_flg_set_update_flags) for l_flg_set_update_flags
    lin_api.o(i.NotifyRxTxStatus) refers to lin_init.o(i.GotoSleep) for GotoSleep
    lin_api.o(i.NotifyRxTxStatus) refers to memcpya.o(.text) for __aeabi_memcpy
    lin_api.o(i.NotifyRxTxStatus) refers to lin_identification_and_configuration.o(i.LIN_NodeConfigAndIndentifByDiagnosticFrame) for LIN_NodeConfigAndIndentifByDiagnosticFrame
    lin_api.o(i.NotifyRxTxStatus) refers to lin_api.o(i.SetLINResponseError) for SetLINResponseError
    lin_api.o(i.NotifyRxTxStatus) refers to lin_init.o(i.ResetProtocolState) for ResetProtocolState
    lin_api.o(i.NotifyRxTxStatus) refers to lin_api.o(i.BusIdleStartMeasurement) for BusIdleStartMeasurement
    lin_api.o(i.NotifyRxTxStatus) refers to lin_api.o(.data) for g_myLinStatus
    lin_api.o(i.NotifyRxTxStatus) refers to lin_api.o(.bss) for g_dataBuffTmp
    lin_api.o(i.NotifyRxTxStatus) refers to lin_config.o(.constdata) for g_nodeConfigFrameTable
    lin_api.o(i.NotifyRxTxStatus) refers to lin_config.o(.bss) for g_eventTable
    lin_api.o(i.SetLINResponseError) refers to lin_identification_and_configuration.o(i.BSM_GetBSMNodeStatus) for BSM_GetBSMNodeStatus
    lin_api.o(i.SetLINResponseError) refers to lin_api.o(.data) for g_myLinStatus
    lin_api.o(i.SetLINResponseError) refers to lin_api.o(.bss) for g_dataBuffTmp
    lin_api.o(i.l_ifc_connect_MyLinIfc) refers to lin_init.o(i.LINUART_Enable) for LINUART_Enable
    lin_api.o(i.l_ifc_connect_MyLinIfc) refers to lin_api.o(i.BusIdleStartMeasurement) for BusIdleStartMeasurement
    lin_api.o(i.l_ifc_connect_MyLinIfc) refers to lin_api.o(.data) for g_myLinStatus
    lin_api.o(i.l_ifc_disconnect_MyLinIfc) refers to lin_init.o(i.LINUART_Disable) for LINUART_Disable
    lin_api.o(i.l_ifc_disconnect_MyLinIfc) refers to lin_api.o(.data) for g_myLinStatus
    lin_api.o(i.l_ifc_init_MyLinIfc) refers to lin_init.o(i.LINUART_Init) for LINUART_Init
    lin_api.o(i.l_ifc_init_MyLinIfc) refers to lin_api.o(.data) for g_myLinStatus
    lin_api.o(i.l_ifc_read_status_MyLinIfc) refers to lin_api.o(i.l_sys_irq_disable) for l_sys_irq_disable
    lin_api.o(i.l_ifc_read_status_MyLinIfc) refers to lin_api.o(i.l_sys_irq_restore) for l_sys_irq_restore
    lin_api.o(i.l_ifc_read_status_MyLinIfc) refers to lin_api.o(.data) for g_MyLinIfcStatus
    lin_api.o(i.l_ifc_rx_MyLinIfc) refers to lin_api.o(i.LIN_CheckPID) for LIN_CheckPID
    lin_api.o(i.l_ifc_rx_MyLinIfc) refers to lin_identification_and_configuration.o(i.LIN_GetResponseFlagForDiagnosisFrame) for LIN_GetResponseFlagForDiagnosisFrame
    lin_api.o(i.l_ifc_rx_MyLinIfc) refers to lin_identification_and_configuration.o(i.LIN_ClearResponseFlagForDiagnosisFrame) for LIN_ClearResponseFlagForDiagnosisFrame
    lin_api.o(i.l_ifc_rx_MyLinIfc) refers to lin_init.o(i.LINUART_TransmitDataByFIFO) for LINUART_TransmitDataByFIFO
    lin_api.o(i.l_ifc_rx_MyLinIfc) refers to lin_init.o(i.LINUART_ReceiveDataByFIFO) for LINUART_ReceiveDataByFIFO
    lin_api.o(i.l_ifc_rx_MyLinIfc) refers to lin_api.o(i.NotifyRxTxStatus) for NotifyRxTxStatus
    lin_api.o(i.l_ifc_rx_MyLinIfc) refers to lin_api.o(.data) for g_myLinStatus
    lin_api.o(i.l_ifc_rx_MyLinIfc) refers to lin_init.o(.data) for g_allLinError
    lin_api.o(i.l_ifc_rx_MyLinIfc) refers to lin_api.o(.bss) for g_dataBuffTmp
    lin_api.o(i.l_ifc_rx_MyLinIfc) refers to lin_config.o(.data) for g_nodeFramePIDTable
    lin_api.o(i.l_ifc_rx_MyLinIfc) refers to lin_config.o(.constdata) for g_nodeConfigFrameTable
    lin_api.o(i.l_ifc_rx_MyLinIfc) refers to lin_config.o(.bss) for g_eventTable
    lin_api.o(i.l_ifc_wake_up_MyLinIfc) refers to lin_api.o(i.l_sys_irq_disable) for l_sys_irq_disable
    lin_api.o(i.l_ifc_wake_up_MyLinIfc) refers to lin_api.o(i.l_sys_irq_restore) for l_sys_irq_restore
    lin_api.o(i.l_ifc_wake_up_MyLinIfc) refers to lin_api.o(.data) for g_myLinStatus
    curr_sample_1rps_aiwin.o(i.GetPhaseCurr_1rps_AIWIN) refers to curr_sample_1rps_aiwin.o(i.saturate_16) for saturate_16
    curr_sample_1rps_aiwin.o(i.GetPhaseCurr_1rps_AIWIN) refers to curr_sample_1rps_aiwin.o(i.PredictPhaseCurrents) for PredictPhaseCurrents
    curr_sample_1rps_aiwin.o(i.GetPhaseCurr_1rps_AIWIN) refers to curr_sample_1rps_aiwin.o(.data) for .data
    curr_sample_1rps_aiwin.o(i.InitMotorParameterAIWIN) refers to nvsns_foc.o(.data) for g_u16SampleSlot
    curr_sample_1rps_aiwin.o(i.InitMotorParameterAIWIN) refers to curr_sample_1rps_aiwin.o(.data) for .data
    curr_sample_1rps_aiwin.o(i.MeasureVectorPeriod) refers to curr_sample_1rps_aiwin.o(.data) for .data
    curr_sample_1rps_aiwin.o(i.PredictNextAngle) refers to transform.o(i.GetAngleIncrement) for GetAngleIncrement
    curr_sample_1rps_aiwin.o(i.PredictPhaseCurrents) refers to curr_sample_1rps_aiwin.o(i.PredictNextAngle) for PredictNextAngle
    curr_sample_1rps_aiwin.o(i.PredictPhaseCurrents) refers to mm_lib.o(i.MM_ThetaTransferTrigonoLut) for MM_ThetaTransferTrigonoLut
    curr_sample_1rps_aiwin.o(i.PredictPhaseCurrents) refers to gmc_lib.o(.emb_text) for GMC_InvParkF16
    curr_sample_1rps_aiwin.o(i.PredictPhaseCurrents) refers to transform.o(i.GMC_InvClarkeF16) for GMC_InvClarkeF16
    curr_sample_1rps_aiwin.o(i.PredictPhaseCurrents) refers to curr_sample_1rps_aiwin.o(.data) for .data
    curr_sample_1rps_aiwin.o(i.Svm1rpsTrig_AIWIN) refers to curr_sample_1rps.o(i.SortCurrent) for SortCurrent
    curr_sample_1rps_aiwin.o(i.Svm1rpsTrig_AIWIN) refers to curr_sample_1rps.o(i.MotorPWM_OneShuntSetTriggerPoint) for MotorPWM_OneShuntSetTriggerPoint
    curr_sample_1rps_aiwin.o(i.Svm1rpsTrig_AIWIN) refers to nvsns_foc.o(.data) for PWMPeriod
    curr_sample_1rps_aiwin.o(i.Svm1rpsTrig_AIWIN) refers to curr_sample_1rps_aiwin.o(.data) for .data
    dq_dual_space_switch.o(i.DQ_DualSpaceBlendReset) refers to dq_dual_space_switch.o(.data) for .data
    dq_dual_space_switch.o(i.DQ_DualSpaceDecayBlendAlpha) refers to dq_dual_space_switch.o(.data) for .data
    dq_dual_space_switch.o(i.DQ_DualSpaceGetBlendAlpha) refers to dq_dual_space_switch.o(.data) for .data
    dq_dual_space_switch.o(i.DQ_DualSpaceGetIdStart) refers to dq_dual_space_switch.o(.data) for .data
    dq_dual_space_switch.o(i.DQ_DualSpaceGetIqStart) refers to dq_dual_space_switch.o(.data) for .data
    dq_dual_space_switch.o(i.DQ_DualSpaceSetBlendStep) refers to dq_dual_space_switch.o(.data) for .data
    dq_dual_space_switch.o(i.DQ_DualSpaceSwitchInit) refers to transform.o(i.WrapAngleSumQ15) for WrapAngleSumQ15
    dq_dual_space_switch.o(i.DQ_DualSpaceSwitchInit) refers to mm_lib.o(i.MM_ThetaTransferTrigonoLut) for MM_ThetaTransferTrigonoLut
    dq_dual_space_switch.o(i.DQ_DualSpaceSwitchInit) refers to nvsns_foc.o(.bss) for tDrvFoc
    dq_dual_space_switch.o(i.DQ_DualSpaceSwitchInit) refers to dq_dual_space_switch.o(.data) for .data
    dq_dual_space_switch.o(i.DQ_DualSpaceSwitchInitUseAlphaBeta) refers to mm_lib.o(i.MM_ThetaTransferTrigonoLut) for MM_ThetaTransferTrigonoLut
    dq_dual_space_switch.o(i.DQ_DualSpaceSwitchInitUseAlphaBeta) refers to gmc_lib.o(.emb_text) for GMC_InvParkF16
    dq_dual_space_switch.o(i.DQ_DualSpaceSwitchInitUseAlphaBeta) refers to dq_dual_space_switch.o(i.DQ_DualSpaceSwitchMaintainTorque) for DQ_DualSpaceSwitchMaintainTorque
    dq_dual_space_switch.o(i.DQ_DualSpaceSwitchInitUseAlphaBeta) refers to nvsns_foc.o(.bss) for tDrvFoc
    dq_dual_space_switch.o(i.DQ_DualSpaceSwitchInitUseAlphaBeta) refers to dq_dual_space_switch.o(.data) for .data
    dq_dual_space_switch.o(i.DQ_DualSpaceSwitchMaintainTorque) refers to mm_lib.o(.emb_text) for MM_SatDivF16
    dq_dual_space_switch.o(i.DQ_DualSpaceSwitchMaintainTorque) refers to dq_dual_space_switch.o(.data) for .data
    dq_dual_space_switch.o(i.DQ_DualSpaceSwitchTransformRealDQ) refers to transform.o(i.WrapAngleSumQ15) for WrapAngleSumQ15
    dq_dual_space_switch.o(i.DQ_DualSpaceSwitchTransformRealDQ) refers to mm_lib.o(i.MM_ThetaTransferTrigonoLut) for MM_ThetaTransferTrigonoLut
    dq_dual_space_switch.o(i.DQ_DualSpaceSwitchTransformVirDQ) refers to transform.o(i.WrapAngleSumQ15) for WrapAngleSumQ15
    dq_dual_space_switch.o(i.DQ_DualSpaceSwitchTransformVirDQ) refers to mm_lib.o(i.MM_ThetaTransferTrigonoLut) for MM_ThetaTransferTrigonoLut
    dq_dual_space_switch.o(i.calcIDendIQend) refers to mm_lib.o(i.MM_ThetaTransferTrigonoLut) for MM_ThetaTransferTrigonoLut
    dq_dual_space_switch.o(i.calcIDendIQend) refers to gmc_lib.o(.emb_text) for GMC_InvParkF16
    dq_dual_space_switch.o(i.calcIDendIQend) refers to nvsns_foc.o(.bss) for tDrvFoc
    dq_dual_space_switch.o(i.calcIDendIQend) refers to dq_dual_space_switch.o(.data) for .data
    hfi_lib.o(i.HFI_CalculateInductanceValues) refers to fflti.o(.text) for __aeabi_i2f
    hfi_lib.o(i.HFI_CalculateInductanceValues) refers to fdiv.o(.text) for __aeabi_fdiv
    hfi_lib.o(i.HFI_CalculateInductanceValues) refers to fmul.o(.text) for __aeabi_fmul
    hfi_lib.o(i.HFI_CalculateInductanceValues) refers to f2d.o(.text) for __aeabi_f2d
    hfi_lib.o(i.HFI_CalculateInductanceValues) refers to dmul.o(.text) for __aeabi_dmul
    hfi_lib.o(i.HFI_CalculateInductanceValues) refers to dscalb.o(.text) for __ARM_scalbn
    hfi_lib.o(i.HFI_CalculateInductanceValues) refers to d2f.o(.text) for __aeabi_d2f
    hfi_lib.o(i.HFI_CurrLoopOnlyVolt) refers to gmc_lib.o(.emb_text) for GMC_InvParkF16
    hfi_lib.o(i.HFI_CurrLoopOnlyVolt) refers to nvsns_foc.o(.bss) for tDrvFoc
    hfi_lib.o(i.HFI_Currloop) refers to gcf_lib.o(.emb_text) for GCF_CtrlPIrAW_F16
    hfi_lib.o(i.HFI_Currloop) refers to mm_lib.o(i.MM_SqrtLut_F16) for MM_SqrtLut_F16
    hfi_lib.o(i.HFI_Currloop) refers to gmc_lib.o(.emb_text) for GMC_InvParkF16
    hfi_lib.o(i.HFI_Currloop) refers to nvsns_foc.o(.bss) for tDrvFoc
    hfi_lib.o(i.HFI_ExtractCurrents) refers to gmc_lib.o(.emb_text) for GMC_ClarkeF16
    hfi_lib.o(i.HFI_GenerateRandom) refers to hfi_lib.o(.data) for .data
    hfi_lib.o(i.HFI_GetLimitedRandom) refers to hfi_lib.o(.data) for .data
    hfi_lib.o(i.HFI_PllUpdate) refers to mm_lib.o(i.MM_ThetaTransferTrigonoLut) for MM_ThetaTransferTrigonoLut
    hfi_lib.o(i.HFI_PllUpdate) refers to pll_pi.o(i.run_parallel_pi) for run_parallel_pi
    hfi_lib.o(i.HFI_PllUpdate) refers to gcf_lib.o(.emb_text) for GCF_LpFilterMA_F16
    hfi_lib.o(i.HFI_PllUpdate) refers to hfi_lib.o(.data) for .data
    hfi_lib.o(i.HFI_Process) refers to hfi_lib.o(i.HFI_ProcessIPD) for HFI_ProcessIPD
    hfi_lib.o(i.HFI_Process) refers to hfi_lib.o(i.HFI_ProcessPolarity) for HFI_ProcessPolarity
    hfi_lib.o(i.HFI_Process) refers to hfi_lib.o(i.HFI_ProcessTracking) for HFI_ProcessTracking
    hfi_lib.o(i.HFI_Process) refers to hfi_lib.o(i.HFI_ProcessIdentify) for HFI_ProcessIdentify
    hfi_lib.o(i.HFI_ProcessIPD) refers to hfi_lib.o(i.HFI_ExtractCurrents) for HFI_ExtractCurrents
    hfi_lib.o(i.HFI_ProcessIPD) refers to hfi_lib.o(i.HFI_PllUpdate) for HFI_PllUpdate
    hfi_lib.o(i.HFI_ProcessIPD) refers to gmc_lib.o(.emb_text) for GMC_ParkeF16
    hfi_lib.o(i.HFI_ProcessIPD) refers to gcf_lib.o(.emb_text) for GCF_CtrlPIrAW_F16
    hfi_lib.o(i.HFI_ProcessIPD) refers to mm_lib.o(i.MM_SqrtLut_F16) for MM_SqrtLut_F16
    hfi_lib.o(i.HFI_ProcessIPD) refers to hfi_lib.o(i.HFI_SwitchInjectionVoltage) for HFI_SwitchInjectionVoltage
    hfi_lib.o(i.HFI_ProcessIPD) refers to nvsns_foc.o(.bss) for tDrvFoc
    hfi_lib.o(i.HFI_ProcessPolarity) refers to gmc_lib.o(.emb_text) for GMC_ClarkeF16
    hfi_lib.o(i.HFI_ProcessPolarity) refers to mm_lib.o(i.MM_ThetaTransferTrigonoLut) for MM_ThetaTransferTrigonoLut
    hfi_lib.o(i.HFI_ProcessPolarity) refers to hfi_lib.o(i.HFI_Currloop) for HFI_Currloop
    hfi_lib.o(i.HFI_ProcessPolarity) refers to hfi_lib.o(i.HFI_CurrLoopOnlyVolt) for HFI_CurrLoopOnlyVolt
    hfi_lib.o(i.HFI_ProcessPolarity) refers to hfi_lib.o(.data) for .data
    hfi_lib.o(i.HFI_ProcessPolarity) refers to nvsns_foc.o(.bss) for tDrvFoc
    hfi_lib.o(i.HFI_ProcessTracking) refers to hfi_lib.o(i.HFI_ExtractCurrents) for HFI_ExtractCurrents
    hfi_lib.o(i.HFI_ProcessTracking) refers to hfi_lib.o(i.HFI_PllUpdate) for HFI_PllUpdate
    hfi_lib.o(i.HFI_ProcessTracking) refers to gmc_lib.o(.emb_text) for GMC_ParkeF16
    hfi_lib.o(i.HFI_ProcessTracking) refers to gcf_lib.o(i.GCF_Ramp_F16) for GCF_Ramp_F16
    hfi_lib.o(i.HFI_ProcessTracking) refers to gcf_lib.o(.emb_text) for GCF_CtrlPIpAW_F16
    hfi_lib.o(i.HFI_ProcessTracking) refers to mm_lib.o(i.MM_SqrtLut_F16) for MM_SqrtLut_F16
    hfi_lib.o(i.HFI_ProcessTracking) refers to hfi_lib.o(i.HFI_SwitchInjectionVoltage) for HFI_SwitchInjectionVoltage
    hfi_lib.o(i.HFI_ProcessTracking) refers to hfi_lib.o(.data) for .data
    hfi_lib.o(i.HFI_ProcessTracking) refers to foc_paras.o(.data) for tFocParas
    hfi_lib.o(i.HFI_ProcessTracking) refers to nvsns_foc.o(.bss) for tDrvFoc
    hfi_lib.o(i.HFI_SwitchFromBemf) refers to foclib_init.o(i.HFI_ChangePwmFreq) for HFI_ChangePwmFreq
    hfi_lib.o(i.HFI_SwitchFromBemf) refers to nvsns_foc.o(.bss) for tDrvFoc
    hfi_lib.o(i.HFI_SwitchFromBemf) refers to hfi_lib.o(.data) for .data
    hfi_lib.o(i.HFI_SwitchInjectionVoltage) refers to hfi_lib.o(i.HFI_UpdateRandomParameters) for HFI_UpdateRandomParameters
    hfi_lib.o(i.HFI_SwitchToBemf) refers to foclib_init.o(i.HFI_Enable) for HFI_Enable
    hfi_lib.o(i.HFI_SwitchToBemf) refers to foclib_init.o(i.HFI_ResetPwmConfig) for HFI_ResetPwmConfig
    hfi_lib.o(i.HFI_SwitchToBemf) refers to nvsns_foc.o(.bss) for tDrvFoc
    hfi_lib.o(i.WIND_SwitchToHFI) refers to foclib_init.o(i.HFI_ChangePwmFreq) for HFI_ChangePwmFreq
    hfi_lib.o(i.WIND_SwitchToHFI) refers to nvsns_foc.o(.bss) for tDrvFoc
    hfi_lib.o(i.WIND_SwitchToHFI) refers to hfi_lib.o(.data) for .data
    iq_filter.o(i.IQ_HPFilterCalc) refers to iq_filter.o(i.IQ_LPFilterCalc) for IQ_LPFilterCalc
    iq_filter.o(i.IQ_HPFilterInit) refers to iq_filter.o(i.IQ_LPFilterInit) for IQ_LPFilterInit
    iq_filter.o(i.IQ_HPFilterParaCalc) refers to iq_filter.o(i.IQ_LPFilterParaCalc) for IQ_LPFilterParaCalc
    iq_filter.o(i.IQ_HPFilterSetCutoffHz) refers to iq_filter.o(i.IQ_LPFilterSetCutoffHz) for IQ_LPFilterSetCutoffHz
    iq_filter.o(i.IQ_LPFilterCalc) refers to iq_filter.o(i._IQadd) for _IQadd
    iq_filter.o(i.IQ_LPFilterParaCalc) refers to f2d.o(.text) for __aeabi_f2d
    iq_filter.o(i.IQ_LPFilterParaCalc) refers to dscalb.o(.text) for __ARM_scalbn
    iq_filter.o(i.IQ_LPFilterParaCalc) refers to dadd.o(.text) for __aeabi_dadd
    iq_filter.o(i.IQ_LPFilterParaCalc) refers to ddiv.o(.text) for __aeabi_ddiv
    iq_filter.o(i.IQ_LPFilterParaCalc) refers to cdcmple.o(.text) for __aeabi_cdcmple
    iq_filter.o(i.IQ_LPFilterParaCalc) refers to cdrcmple.o(.text) for __aeabi_cdrcmple
    iq_filter.o(i.IQ_LPFilterParaCalc) refers to dfixi.o(.text) for __aeabi_d2iz
    iq_filter.o(i.IQ_LPFilterSetCutoffHz) refers to fscalb.o(.text) for __ARM_scalbnf
    iq_filter.o(i.IQ_LPFilterSetCutoffHz) refers to cfcmple.o(.text) for __aeabi_cfcmple
    iq_filter.o(i.IQ_LPFilterSetCutoffHz) refers to fdiv.o(.text) for __aeabi_fdiv
    iq_filter.o(i.IQ_LPFilterSetCutoffHz) refers to fmul.o(.text) for __aeabi_fmul
    iq_filter.o(i.IQ_LPFilterSetCutoffHz) refers to iq_filter.o(i.IQ_LPFilterParaCalc) for IQ_LPFilterParaCalc
    motor_data_calc.o(i.motorCalculateAllData) refers to motor_data_calc.o(i.motor_calculate_dc_current) for motor_calculate_dc_current
    motor_data_calc.o(i.motorCalculateAllData) refers to motor_data_calc.o(.data) for .data
    motor_data_calc.o(i.motor_calculate_current_magnitude) refers to mm_lib.o(i.MM_SqrtLut_F16) for MM_SqrtLut_F16
    motor_data_calc.o(i.motor_calculate_current_magnitude) refers to gcf_lib.o(.emb_text) for GCF_LpFilterMA_F16
    motor_data_calc.o(i.motor_calculate_dc_current) refers to mm_lib.o(i.MM_AtanXYF16) for MM_AtanXYF16
    motor_data_calc.o(i.motor_calculate_dc_current) refers to mm_lib.o(i.MM_ThetaTransferTrigonoLut) for MM_ThetaTransferTrigonoLut
    motor_data_calc.o(i.motor_calculate_dc_current_by_sample) refers to gcf_lib.o(.emb_text) for GCF_LpFilterMA_F16
    motor_param_id.o(i.PARAM_ID_CalculateFluxLinkage) refers to fflti.o(.text) for __aeabi_i2f
    motor_param_id.o(i.PARAM_ID_CalculateFluxLinkage) refers to fdiv.o(.text) for __aeabi_fdiv
    motor_param_id.o(i.PARAM_ID_CalculateFluxLinkage) refers to fmul.o(.text) for __aeabi_fmul
    motor_param_id.o(i.PARAM_ID_CalculateFluxLinkage) refers to f2d.o(.text) for __aeabi_f2d
    motor_param_id.o(i.PARAM_ID_CalculateFluxLinkage) refers to dmul.o(.text) for __aeabi_dmul
    motor_param_id.o(i.PARAM_ID_CalculateFluxLinkage) refers to d2f.o(.text) for __aeabi_d2f
    motor_param_id.o(i.PARAM_ID_CalculateFluxLinkage) refers to fadd.o(.text) for __aeabi_fsub
    motor_param_id.o(i.PARAM_ID_CalculateInductanceValues) refers to fflti.o(.text) for __aeabi_i2f
    motor_param_id.o(i.PARAM_ID_CalculateInductanceValues) refers to fdiv.o(.text) for __aeabi_fdiv
    motor_param_id.o(i.PARAM_ID_CalculateInductanceValues) refers to fmul.o(.text) for __aeabi_fmul
    motor_param_id.o(i.PARAM_ID_CalculateInductanceValues) refers to f2d.o(.text) for __aeabi_f2d
    motor_param_id.o(i.PARAM_ID_CalculateInductanceValues) refers to dmul.o(.text) for __aeabi_dmul
    motor_param_id.o(i.PARAM_ID_CalculateInductanceValues) refers to dscalb.o(.text) for __ARM_scalbn
    motor_param_id.o(i.PARAM_ID_CalculateInductanceValues) refers to d2f.o(.text) for __aeabi_d2f
    motor_param_id.o(i.PARAM_ID_CalculateInductanceValues) refers to hfi_lib.o(.bss) for tHfiCtrl
    motor_param_id.o(i.PARAM_ID_CalculateResistance) refers to mm_lib.o(.emb_text) for MM_SatDivF16
    motor_param_id.o(i.PARAM_ID_CalculateResistance) refers to fflti.o(.text) for __aeabi_i2f
    motor_param_id.o(i.PARAM_ID_CalculateResistance) refers to fdiv.o(.text) for __aeabi_fdiv
    motor_param_id.o(i.PARAM_ID_CalculateResistance) refers to fmul.o(.text) for __aeabi_fmul
    motor_param_id.o(i.PARAM_ID_CalculateResistance) refers to fscalb.o(.text) for __ARM_scalbnf
    motor_param_id.o(i.PARAM_ID_Process) refers to foclib_init.o(i.HFI_Init) for HFI_Init
    motor_param_id.o(i.PARAM_ID_Process) refers to mm_lib.o(i.MM_ThetaTransferTrigonoLut) for MM_ThetaTransferTrigonoLut
    motor_param_id.o(i.PARAM_ID_Process) refers to gmc_lib.o(.emb_text) for GMC_InvParkF16
    motor_param_id.o(i.PARAM_ID_Process) refers to foclib_init.o(i.HFI_StartIdentify) for HFI_StartIdentify
    motor_param_id.o(i.PARAM_ID_Process) refers to hfi_lib.o(i.HFI_ExtractCurrents) for HFI_ExtractCurrents
    motor_param_id.o(i.PARAM_ID_Process) refers to hfi_lib.o(i.HFI_SwitchInjectionVoltage) for HFI_SwitchInjectionVoltage
    motor_param_id.o(i.PARAM_ID_Process) refers to motor_param_id.o(i.PARAM_ID_CalculateInductanceValues) for PARAM_ID_CalculateInductanceValues
    motor_param_id.o(i.PARAM_ID_Process) refers to mm_lib.o(i.MM_SqrtLut_F16) for MM_SqrtLut_F16
    motor_param_id.o(i.PARAM_ID_Process) refers to gcf_lib.o(.emb_text) for GCF_LpFilterMA_F16
    motor_param_id.o(i.PARAM_ID_Process) refers to motor_param_id.o(i.PARAM_ID_CalculateResistance) for PARAM_ID_CalculateResistance
    motor_param_id.o(i.PARAM_ID_Process) refers to foclib_init.o(i.HFI_ResetPwmConfig) for HFI_ResetPwmConfig
    motor_param_id.o(i.PARAM_ID_Process) refers to nvsns_foc.o(.bss) for tDrvFoc
    motor_param_id.o(i.PARAM_ID_Process) refers to hfi_lib.o(.bss) for tHfiConfig
    motor_param_id.o(i.PARAM_ID_Process) refers to hfi_lib.o(.bss) for tHfiCtrl
    motor_param_id.o(i.PARAM_ID_Process) refers to foc_paras.o(.data) for tFocParas
    motor_param_id.o(i.PARAM_ID_Process) refers to gcf_lib.o(i.GCF_Ramp_F16) for GCF_Ramp_F16
    motor_param_id.o(i.PARAM_ID_Process) refers to motor_param_id.o(i.PARAM_ID_CalculateFluxLinkage) for PARAM_ID_CalculateFluxLinkage
    motor_param_id.o(i.PARAM_ID_Process) refers to motor_param_id.o(i.PARAM_ID_Reset) for PARAM_ID_Reset
    transform.o(i.GetAngleIncrement) refers to transform.o(.data) for .data
    transform.o(i.InitFreqToAngleIncrement) refers to f2d.o(.text) for __aeabi_f2d
    transform.o(i.InitFreqToAngleIncrement) refers to dmul.o(.text) for __aeabi_dmul
    transform.o(i.InitFreqToAngleIncrement) refers to ddiv.o(.text) for __aeabi_ddiv
    transform.o(i.InitFreqToAngleIncrement) refers to d2f.o(.text) for __aeabi_d2f
    transform.o(i.InitFreqToAngleIncrement) refers to ffixi.o(.text) for __aeabi_f2iz
    transform.o(i.InitFreqToAngleIncrement) refers to transform.o(.data) for .data
    transform.o(i.WrapAngleSumQ15) refers to transform.o(i.WrapAngleQ15) for WrapAngleQ15
    qpr_fixed.o(i.QPR_FXP_TestLite_ReinitIfNeeded) refers to uldiv.o(.text) for __aeabi_uldivmod
    qpr_fixed.o(i.QPR_FXP_TestLite_ReinitIfNeeded) refers to qpr_fixed.o(i.MulQ15_By_IntmHz) for MulQ15_By_IntmHz
    qpr_fixed.o(i.QPR_FXP_TestLite_ReinitIfNeeded) refers to qpr_fixed.o(i.qprFxpInit) for qprFxpInit
    qpr_fixed.o(i.QPR_FXP_TestLite_ReinitIfNeeded) refers to qpr_fixed.o(.data) for .data
    qpr_fixed.o(i.QPR_FXP_TestLite_ReinitIfNeeded) refers to qpr_fixed.o(.bss) for .bss
    qpr_fixed.o(i.QPR_FXP_TestLite_Step) refers to qpr_fixed.o(i.QPR_FXP_TestLite_ReinitIfNeeded) for QPR_FXP_TestLite_ReinitIfNeeded
    qpr_fixed.o(i.QPR_FXP_TestLite_Step) refers to qpr_fixed.o(i.qpr_sin_q15_local) for qpr_sin_q15_local
    qpr_fixed.o(i.QPR_FXP_TestLite_Step) refers to qpr_fixed.o(i.qprFxpUpdate) for qprFxpUpdate
    qpr_fixed.o(i.QPR_FXP_TestLite_Step) refers to transform.o(i.WrapAngleSumQ15) for WrapAngleSumQ15
    qpr_fixed.o(i.QPR_FXP_TestLite_Step) refers to qpr_fixed.o(.data) for .data
    qpr_fixed.o(i.QPR_FXP_TestLite_Step) refers to qpr_fixed.o(.bss) for .bss
    qpr_fixed.o(i.qprFxpInit) refers to qpr_fixed.o(i.mHzToAngleIncQ15) for mHzToAngleIncQ15
    qpr_fixed.o(i.qprFxpInit) refers to qpr_fixed.o(i.qpr_update_coefs_q15) for qpr_update_coefs_q15
    qpr_fixed.o(i.qprFxpSetWcByAlphamhz) refers to qpr_fixed.o(i.MulQ15_By_IntmHz) for MulQ15_By_IntmHz
    qpr_fixed.o(i.qprFxpSetWcByAlphamhz) refers to qpr_fixed.o(i.qprFxpSetWcmHz) for qprFxpSetWcmHz
    qpr_fixed.o(i.qprFxpSetWcmHz) refers to qpr_fixed.o(i.mHzToAngleIncQ15) for mHzToAngleIncQ15
    qpr_fixed.o(i.qprFxpSetWcmHz) refers to qpr_fixed.o(i.qpr_update_coefs_q15) for qpr_update_coefs_q15
    qpr_fixed.o(i.qprFxpUpdate) refers to qpr_fixed.o(i.mHzToAngleIncQ15) for mHzToAngleIncQ15
    qpr_fixed.o(i.qprFxpUpdate) refers to qpr_fixed.o(i.qpr_update_coefs_q15) for qpr_update_coefs_q15
    qpr_fixed.o(i.qpr_sin_q15_local) refers to mm_lib.o(i.MM_ThetaTransferTrigonoLut) for MM_ThetaTransferTrigonoLut
    qpr_fixed.o(i.qpr_update_coefs_q15) refers to qpr_fixed.o(i.sincos_q15) for sincos_q15
    qpr_fixed.o(i.qpr_update_coefs_q15) refers to mm_lib.o(.emb_text) for MM_SatDivF16
    qpr_fixed.o(i.sincos_q15) refers to mm_lib.o(i.MM_ThetaTransferTrigonoLut) for MM_ThetaTransferTrigonoLut
    stalldetection.o(i.stallDetection1ms) refers to gcf_lib.o(.emb_text) for GCF_LpFilterMA_F16
    windmilling_pll.o(i.WM_SwitchSmoothpll) refers to ffixi.o(.text) for __aeabi_f2iz
    windmilling_pll.o(i.WM_SwitchSmoothpll) refers to mm_lib.o(.emb_text) for MM_DivF16
    windmilling_pll.o(i.WM_SwitchSmoothpll) refers to mm_lib.o(i.MM_SqrtLut_F16) for MM_SqrtLut_F16
    windmilling_pll.o(i.WM_SwitchSmoothpll) refers to mm_lib.o(i.MM_ThetaTransferTrigonoLut) for MM_ThetaTransferTrigonoLut
    windmilling_pll.o(i.WM_SwitchSmoothpll) refers to windmilling_pll.o(.data) for .data
    windmilling_pll.o(i.WM_WindDetectionPll) refers to mm_lib.o(i.MM_ThetaTransferTrigonoLut) for MM_ThetaTransferTrigonoLut
    windmilling_pll.o(i.WM_WindDetectionPll) refers to gmc_lib.o(.emb_text) for GMC_ClarkeF16
    windmilling_pll.o(i.WM_WindDetectionPll) refers to pll_pi.o(i.run_parallel_pi) for run_parallel_pi
    windmilling_pll.o(i.WM_WindDetectionPll) refers to windmilling_pll.o(.data) for .data
    windmilling_pll.o(i.WM_WindDetectionPll) refers to windmilling_pll.o(.bss) for .bss
    entry.o(.ARM.Collect$$$$00000000) refers (Special) to entry10a.o(.ARM.Collect$$$$0000000D) for __rt_final_cpp
    entry.o(.ARM.Collect$$$$00000000) refers (Special) to entry11a.o(.ARM.Collect$$$$0000000F) for __rt_final_exit
    entry.o(.ARM.Collect$$$$00000000) refers (Special) to entry7b.o(.ARM.Collect$$$$00000008) for _main_clock
    entry.o(.ARM.Collect$$$$00000000) refers (Special) to entry8b.o(.ARM.Collect$$$$0000000A) for _main_cpp_init
    entry.o(.ARM.Collect$$$$00000000) refers (Special) to entry9a.o(.ARM.Collect$$$$0000000B) for _main_init
    entry.o(.ARM.Collect$$$$00000000) refers (Special) to entry5.o(.ARM.Collect$$$$00000004) for _main_scatterload
    entry.o(.ARM.Collect$$$$00000000) refers (Special) to entry2.o(.ARM.Collect$$$$00000001) for _main_stk
    uldiv.o(.text) refers to llushr.o(.text) for __aeabi_llsr
    uldiv.o(.text) refers to llshl.o(.text) for __aeabi_llsl
    fadd.o(.text) refers (Special) to iusefp.o(.text) for __I$use$fp
    fadd.o(.text) refers to fepilogue.o(.text) for _float_epilogue
    fmul.o(.text) refers (Special) to iusefp.o(.text) for __I$use$fp
    fdiv.o(.text) refers (Special) to iusefp.o(.text) for __I$use$fp
    fdiv.o(.text) refers to fepilogue.o(.text) for _float_round
    fscalb.o(.text) refers (Special) to iusefp.o(.text) for __I$use$fp
    dadd.o(.text) refers (Special) to iusefp.o(.text) for __I$use$fp
    dadd.o(.text) refers to llshl.o(.text) for __aeabi_llsl
    dadd.o(.text) refers to llsshr.o(.text) for __aeabi_lasr
    dadd.o(.text) refers to depilogue.o(.text) for _double_epilogue
    dmul.o(.text) refers (Special) to iusefp.o(.text) for __I$use$fp
    dmul.o(.text) refers to depilogue.o(.text) for _double_epilogue
    ddiv.o(.text) refers (Special) to iusefp.o(.text) for __I$use$fp
    ddiv.o(.text) refers to depilogue.o(.text) for _double_round
    dscalb.o(.text) refers (Special) to iusefp.o(.text) for __I$use$fp
    fflti.o(.text) refers (Special) to iusefp.o(.text) for __I$use$fp
    fflti.o(.text) refers to fepilogue.o(.text) for _float_epilogue
    ffltui.o(.text) refers (Special) to iusefp.o(.text) for __I$use$fp
    ffltui.o(.text) refers to fepilogue.o(.text) for _float_epilogue
    dfltui.o(.text) refers (Special) to iusefp.o(.text) for __I$use$fp
    dfltui.o(.text) refers to depilogue.o(.text) for _double_epilogue
    ffixi.o(.text) refers (Special) to iusefp.o(.text) for __I$use$fp
    ffixui.o(.text) refers (Special) to iusefp.o(.text) for __I$use$fp
    dfixi.o(.text) refers (Special) to iusefp.o(.text) for __I$use$fp
    dfixi.o(.text) refers to llushr.o(.text) for __aeabi_llsr
    f2d.o(.text) refers (Special) to iusefp.o(.text) for __I$use$fp
    cdcmple.o(.text) refers (Special) to iusefp.o(.text) for __I$use$fp
    cdrcmple.o(.text) refers (Special) to iusefp.o(.text) for __I$use$fp
    d2f.o(.text) refers (Special) to iusefp.o(.text) for __I$use$fp
    d2f.o(.text) refers to fepilogue.o(.text) for _float_round
    cfcmple.o(.text) refers (Special) to iusefp.o(.text) for __I$use$fp
    entry2.o(.ARM.Collect$$$$00000001) refers to entry2.o(.ARM.Collect$$$$00002712) for __lit__00000000
    entry2.o(.ARM.Collect$$$$00002712) refers to startup_nsuc1602.o(STACK) for __initial_sp
    entry2.o(__vectab_stack_and_reset_area) refers to startup_nsuc1602.o(STACK) for __initial_sp
    entry2.o(__vectab_stack_and_reset_area) refers to entry.o(.ARM.Collect$$$$00000000) for __main
    entry5.o(.ARM.Collect$$$$00000004) refers to init.o(.text) for __scatterload
    entry9a.o(.ARM.Collect$$$$0000000B) refers to main.o(i.main) for main
    entry9b.o(.ARM.Collect$$$$0000000C) refers to main.o(i.main) for main
    depilogue.o(.text) refers to llshl.o(.text) for __aeabi_llsl
    depilogue.o(.text) refers to llushr.o(.text) for __aeabi_llsr
    init.o(.text) refers to entry5.o(.ARM.Collect$$$$00000004) for __main_after_scatterload


==============================================================================

Removing Unused input sections from the image.

    Removing startup_nsuc1602.o(HEAP), (256 bytes).
    Removing main.o(.rev16_text), (4 bytes).
    Removing main.o(.revsh_text), (4 bytes).
    Removing main.o(i.AtanXYF16_RunPresetTests), (92 bytes).
    Removing main.o(.bss), (48 bytes).
    Removing main.o(.constdata), (32 bytes).
    Removing lin_appl.o(.rev16_text), (4 bytes).
    Removing lin_appl.o(.revsh_text), (4 bytes).
    Removing pwm_appl.o(.rev16_text), (4 bytes).
    Removing pwm_appl.o(.revsh_text), (4 bytes).
    Removing pwm_appl.o(i.PWMIO_GetDutyCycle), (12 bytes).
    Removing pwm_appl.o(i.PWMIO_GetDutyCycleFloat), (40 bytes).
    Removing pwm_appl.o(i.PWMIO_GetMotorState), (12 bytes).
    Removing pwm_appl.o(i.PWMIO_GetPeriodTime), (12 bytes).
    Removing pwm_appl.o(i.PWMIO_Init), (200 bytes).
    Removing pwm_appl.o(i.PWMIO_ResetState), (16 bytes).
    Removing pwm_appl.o(i.ParsePWMSpeed), (304 bytes).
    Removing motor_state_ctrl.o(.rev16_text), (4 bytes).
    Removing motor_state_ctrl.o(.revsh_text), (4 bytes).
    Removing motor_state_ctrl.o(i.GetUMaxCurrent), (20 bytes).
    Removing motor_state_ctrl.o(i.GetVMaxCurrent), (20 bytes).
    Removing motor_state_ctrl.o(i.GetWMaxCurrent), (20 bytes).
    Removing motor_state_ctrl.o(i.HandleLinCmd), (108 bytes).
    Removing motor_state_ctrl.o(i.HandlePwmCmd), (2 bytes).
    Removing motor_state_ctrl.o(i.ParseDirectSpeed), (60 bytes).
    Removing motor_state_ctrl.o(i.calPhaseCurrentMaxFilter), (52 bytes).
    Removing motor_state_ctrl.o(i.getMotorCmdSpeed), (52 bytes).
    Removing motor_state_ctrl.o(.data), (2 bytes).
    Removing motor_state_ctrl.o(.data), (48 bytes).
    Removing derating_control.o(i.Derating_ConvertFrac16ToRpm), (44 bytes).
    Removing derating_control.o(.data), (2 bytes).
    Removing ntcdrive.o(.rev16_text), (4 bytes).
    Removing ntcdrive.o(.revsh_text), (4 bytes).
    Removing testfun.o(.rev16_text), (4 bytes).
    Removing testfun.o(.revsh_text), (4 bytes).
    Removing sleep_control.o(.rev16_text), (4 bytes).
    Removing sleep_control.o(.revsh_text), (4 bytes).
    Removing sleep_control.o(i.Init_HVIO), (52 bytes).
    Removing sleep_control.o(i.SLEEP_DisableHVIOWake), (40 bytes).
    Removing sleep_control.o(i.SLEEP_DisableLINWake), (40 bytes).
    Removing sleep_control.o(i.SLEEP_EnableHVIOWake), (40 bytes).
    Removing sleep_control.o(i.SLEEP_EnableLINWake), (40 bytes).
    Removing sleep_control.o(.data), (2 bytes).
    Removing handler.o(.rev16_text), (4 bytes).
    Removing handler.o(.revsh_text), (4 bytes).
    Removing handler.o(i.Default_Handler), (2 bytes).
    Removing retarget.o(.rev16_text), (4 bytes).
    Removing retarget.o(.revsh_text), (4 bytes).
    Removing retarget.o(i._sys_exit), (2 bytes).
    Removing retarget.o(i._ttywrch), (2 bytes).
    Removing retarget.o(i.ferror), (6 bytes).
    Removing retarget.o(i.fgetc), (8 bytes).
    Removing retarget.o(i.fputc), (16 bytes).
    Removing retarget.o(.data), (4 bytes).
    Removing retarget.o(.data), (4 bytes).
    Removing sysport.o(.rev16_text), (4 bytes).
    Removing sysport.o(.revsh_text), (4 bytes).
    Removing system.o(.rev16_text), (4 bytes).
    Removing system.o(.revsh_text), (4 bytes).
    Removing system.o(i.SystemCoreClockUpdate), (16 bytes).
    Removing systick.o(.rev16_text), (4 bytes).
    Removing systick.o(.revsh_text), (4 bytes).
    Removing systick.o(i.Read_SysTick_VALUE), (8 bytes).
    Removing systick.o(i.Set_SysTick_CTRL), (8 bytes).
    Removing systick.o(i.Set_SysTick_LOAD), (8 bytes).
    Removing systick.o(i.Set_SysTick_VALUE), (8 bytes).
    Removing systick.o(i.Timer_Stop), (76 bytes).
    Removing systick.o(i.delay_ms), (24 bytes).
    Removing systick.o(i.delay_us), (72 bytes).
    Removing uart.o(.rev16_text), (4 bytes).
    Removing uart.o(.revsh_text), (4 bytes).
    Removing uart.o(i.InitPrintf), (200 bytes).
    Removing uart.o(i.UART_DataReceive), (24 bytes).
    Removing uart.o(i.UART_DataTransmit), (16 bytes).
    Removing systick_isr.o(.rev16_text), (4 bytes).
    Removing systick_isr.o(.revsh_text), (4 bytes).
    Removing systick_isr.o(.data), (2 bytes).
    Removing mtr_adv_init.o(i.StallInit), (60 bytes).
    Removing foc_init.o(.rev16_text), (4 bytes).
    Removing foc_init.o(.revsh_text), (4 bytes).
    Removing nvsns_foc.o(.rev16_text), (4 bytes).
    Removing nvsns_foc.o(.revsh_text), (4 bytes).
    Removing nvsns_foc.o(i.ApllyDeadTimeompenssationForDuty), (2 bytes).
    Removing nvsns_foc.o(i.DeadTimeCompensation), (96 bytes).
    Removing nvsns_foc.o(i.IQ_LimitCtrl_GetStatus), (32 bytes).
    Removing nvsns_foc.o(i.IQ_LimitCtrl_Init), (44 bytes).
    Removing nvsns_foc.o(i.IQ_LimitCtrl_Process), (226 bytes).
    Removing nvsns_foc.o(i.InitFocStatus), (28 bytes).
    Removing nvsns_foc.o(i.SetAdcTrg), (40 bytes).
    Removing nvsns_foc.o(i.SetDuty), (60 bytes).
    Removing nvsns_foc.o(.bss), (116 bytes).
    Removing nvsns_foc.o(.data), (2 bytes).
    Removing nvsns_foc.o(.data), (2 bytes).
    Removing nvsns_foc.o(.data), (4 bytes).
    Removing nvsns_foc.o(.data), (4 bytes).
    Removing nvsns_foc.o(.data), (2 bytes).
    Removing nvsns_foc.o(.data), (2 bytes).
    Removing nvsns_foc.o(.data), (2 bytes).
    Removing nvsns_foc.o(.data), (1 bytes).
    Removing nvsns_foc.o(.data), (2 bytes).
    Removing nvsns_foc.o(.data), (2 bytes).
    Removing nvsns_foc.o(.data), (2 bytes).
    Removing nvsns_foc.o(.data), (2 bytes).
    Removing nvsns_foc.o(.data), (2 bytes).
    Removing nvsns_foc.o(.data), (2 bytes).
    Removing nvsns_foc.o(.data), (4 bytes).
    Removing nvsns_foc.o(.data), (6 bytes).
    Removing nvsns_foc.o(.data), (6 bytes).
    Removing nvsns_foc.o(.data), (2 bytes).
    Removing nvsns_foc.o(.data), (2 bytes).
    Removing nvsns_foc.o(.data), (2 bytes).
    Removing nvsns_foc.o(.data), (2 bytes).
    Removing freemaster_appcmd.o(.rev16_text), (4 bytes).
    Removing freemaster_appcmd.o(.revsh_text), (4 bytes).
    Removing freemaster_appcmd.o(i.FMSTR_AppCmdAck), (20 bytes).
    Removing freemaster_appcmd.o(i.FMSTR_AppCmdSetResponseData), (48 bytes).
    Removing freemaster_appcmd.o(i.FMSTR_FindAppCmdCallIndex), (32 bytes).
    Removing freemaster_appcmd.o(i.FMSTR_GetAppCmd), (28 bytes).
    Removing freemaster_appcmd.o(i.FMSTR_GetAppCmdData), (56 bytes).
    Removing freemaster_appcmd.o(i.FMSTR_GetAppCmdRespData), (72 bytes).
    Removing freemaster_appcmd.o(i.FMSTR_GetAppCmdStatus), (64 bytes).
    Removing freemaster_appcmd.o(i.FMSTR_InitAppCmds), (44 bytes).
    Removing freemaster_appcmd.o(i.FMSTR_RegisterAppCmdCall), (68 bytes).
    Removing freemaster_appcmd.o(i.FMSTR_StoreAppCmd), (80 bytes).
    Removing freemaster_appcmd.o(.bss), (48 bytes).
    Removing freemaster_appcmd.o(.data), (10 bytes).
    Removing freemaster_bdm.o(.rev16_text), (4 bytes).
    Removing freemaster_bdm.o(.revsh_text), (4 bytes).
    Removing freemaster_can.o(.rev16_text), (4 bytes).
    Removing freemaster_can.o(.revsh_text), (4 bytes).
    Removing freemaster_kxx.o(.rev16_text), (4 bytes).
    Removing freemaster_kxx.o(.revsh_text), (4 bytes).
    Removing freemaster_kxx.o(i.FMSTR_AddressFromBuffer), (24 bytes).
    Removing freemaster_kxx.o(i.FMSTR_AddressToBuffer), (36 bytes).
    Removing freemaster_kxx.o(i.FMSTR_CopyFromBuffer), (22 bytes).
    Removing freemaster_kxx.o(i.FMSTR_CopyFromBufferWithMask), (34 bytes).
    Removing freemaster_kxx.o(i.FMSTR_CopyMemory), (18 bytes).
    Removing freemaster_kxx.o(i.FMSTR_CopyToBuffer), (18 bytes).
    Removing freemaster_kxx.o(i.FMSTR_Isr), (2 bytes).
    Removing freemaster_kxx.o(i.FMSTR_SetExAddr), (12 bytes).
    Removing freemaster_kxx.o(i.FMSTR_ValueFromBuffer16), (6 bytes).
    Removing freemaster_kxx.o(i.FMSTR_ValueFromBuffer32), (6 bytes).
    Removing freemaster_kxx.o(i.FMSTR_ValueToBuffer16), (12 bytes).
    Removing freemaster_kxx.o(i.FMSTR_ValueToBuffer32), (12 bytes).
    Removing freemaster_kxx.o(.data), (1 bytes).
    Removing freemaster_lin.o(.rev16_text), (4 bytes).
    Removing freemaster_lin.o(.revsh_text), (4 bytes).
    Removing freemaster_lin.o(i.FMSTR_IsLinTLFrame), (4 bytes).
    Removing freemaster_lin.o(i.FMSTR_ProcessLinTLFrame), (4 bytes).
    Removing freemaster_pipes.o(.rev16_text), (4 bytes).
    Removing freemaster_pipes.o(.revsh_text), (4 bytes).
    Removing freemaster_pipes.o(i.FMSTR_PipeClose), (2 bytes).
    Removing freemaster_pipes.o(i.FMSTR_PipeOpen), (4 bytes).
    Removing freemaster_pipes.o(i.FMSTR_PipePrintf), (4 bytes).
    Removing freemaster_pipes.o(i.FMSTR_PipePrintfS16), (4 bytes).
    Removing freemaster_pipes.o(i.FMSTR_PipePrintfS32), (4 bytes).
    Removing freemaster_pipes.o(i.FMSTR_PipePrintfS8), (4 bytes).
    Removing freemaster_pipes.o(i.FMSTR_PipePrintfU16), (4 bytes).
    Removing freemaster_pipes.o(i.FMSTR_PipePrintfU32), (4 bytes).
    Removing freemaster_pipes.o(i.FMSTR_PipePrintfU8), (4 bytes).
    Removing freemaster_pipes.o(i.FMSTR_PipeRead), (4 bytes).
    Removing freemaster_pipes.o(i.FMSTR_PipeWrite), (4 bytes).
    Removing freemaster_protocol.o(.rev16_text), (4 bytes).
    Removing freemaster_protocol.o(.revsh_text), (4 bytes).
    Removing freemaster_protocol.o(i.FMSTR_GetBoardInfo), (92 bytes).
    Removing freemaster_protocol.o(i.FMSTR_Init), (28 bytes).
    Removing freemaster_protocol.o(i.FMSTR_ProtocolDecoder), (256 bytes).
    Removing freemaster_protocol.o(i.FMSTR_ReadMem), (44 bytes).
    Removing freemaster_protocol.o(i.FMSTR_ReadVar), (32 bytes).
    Removing freemaster_protocol.o(i.FMSTR_SendTestFrame), (16 bytes).
    Removing freemaster_protocol.o(i.FMSTR_StrLen), (20 bytes).
    Removing freemaster_protocol.o(i.FMSTR_WriteMem), (34 bytes).
    Removing freemaster_protocol.o(i.FMSTR_WriteMemMask), (34 bytes).
    Removing freemaster_protocol.o(i.FMSTR_WriteVar), (32 bytes).
    Removing freemaster_protocol.o(i.FMSTR_WriteVarMask), (32 bytes).
    Removing freemaster_rec.o(.rev16_text), (4 bytes).
    Removing freemaster_rec.o(.revsh_text), (4 bytes).
    Removing freemaster_rec.o(i.FMSTR_AbortRec), (12 bytes).
    Removing freemaster_rec.o(i.FMSTR_Compare16S), (32 bytes).
    Removing freemaster_rec.o(i.FMSTR_Compare16U), (28 bytes).
    Removing freemaster_rec.o(i.FMSTR_Compare32S), (28 bytes).
    Removing freemaster_rec.o(i.FMSTR_Compare32U), (28 bytes).
    Removing freemaster_rec.o(i.FMSTR_Compare8S), (32 bytes).
    Removing freemaster_rec.o(i.FMSTR_Compare8U), (28 bytes).
    Removing freemaster_rec.o(i.FMSTR_GetRecBuff), (72 bytes).
    Removing freemaster_rec.o(i.FMSTR_GetRecBuffSize), (6 bytes).
    Removing freemaster_rec.o(i.FMSTR_GetRecStatus), (32 bytes).
    Removing freemaster_rec.o(i.FMSTR_InitRec), (24 bytes).
    Removing freemaster_rec.o(i.FMSTR_IsInRecBuffer), (40 bytes).
    Removing freemaster_rec.o(i.FMSTR_Recorder), (20 bytes).
    Removing freemaster_rec.o(i.FMSTR_Recorder2), (188 bytes).
    Removing freemaster_rec.o(i.FMSTR_SetUpRec), (348 bytes).
    Removing freemaster_rec.o(i.FMSTR_SetUpRecBuff), (2 bytes).
    Removing freemaster_rec.o(i.FMSTR_StartRec), (80 bytes).
    Removing freemaster_rec.o(i.FMSTR_StopRec), (44 bytes).
    Removing freemaster_rec.o(i.FMSTR_TriggerRec), (28 bytes).
    Removing freemaster_rec.o(.bss), (544 bytes).
    Removing freemaster_rec.o(.data), (52 bytes).
    Removing freemaster_scope.o(.rev16_text), (4 bytes).
    Removing freemaster_scope.o(.revsh_text), (4 bytes).
    Removing freemaster_scope.o(i.FMSTR_InitScope), (2 bytes).
    Removing freemaster_scope.o(i.FMSTR_ReadScope), (68 bytes).
    Removing freemaster_scope.o(i.FMSTR_SetUpScope), (116 bytes).
    Removing freemaster_scope.o(.bss), (32 bytes).
    Removing freemaster_scope.o(.data), (9 bytes).
    Removing freemaster_serial.o(.rev16_text), (4 bytes).
    Removing freemaster_serial.o(.revsh_text), (4 bytes).
    Removing freemaster_serial.o(i.FMSTR_InitSerial), (24 bytes).
    Removing freemaster_serial.o(i.FMSTR_Listen), (40 bytes).
    Removing freemaster_serial.o(i.FMSTR_Poll), (4 bytes).
    Removing freemaster_serial.o(i.FMSTR_ProcessSCI), (76 bytes).
    Removing freemaster_serial.o(i.FMSTR_Rx), (212 bytes).
    Removing freemaster_serial.o(i.FMSTR_SendError), (16 bytes).
    Removing freemaster_serial.o(i.FMSTR_SendResponse), (88 bytes).
    Removing freemaster_serial.o(i.FMSTR_Tx), (72 bytes).
    Removing freemaster_serial.o(.bss), (63 bytes).
    Removing freemaster_serial.o(.data), (20 bytes).
    Removing freemaster_sfio.o(.rev16_text), (4 bytes).
    Removing freemaster_sfio.o(.revsh_text), (4 bytes).
    Removing freemaster_tsa.o(.rev16_text), (4 bytes).
    Removing freemaster_tsa.o(.revsh_text), (4 bytes).
    Removing freemaster_tsa.o(i.FMSTR_SetUpTsaBuff), (4 bytes).
    Removing freemaster_tsa.o(i.FMSTR_TsaAddVar), (4 bytes).
    Removing lin_api_appl.o(.rev16_text), (4 bytes).
    Removing lin_api_appl.o(.revsh_text), (4 bytes).
    Removing lin_api_appl.o(i.l_clr_confirm_com_type_cmd), (12 bytes).
    Removing lin_api_appl.o(i.l_clr_ctrl_update_cmd), (12 bytes).
    Removing lin_api_appl.o(i.l_data_buffer_trans_atcp_ctrl_struct), (22 bytes).
    Removing lin_api_appl.o(i.l_data_buffer_trans_g_tATCPDebug_struct), (34 bytes).
    Removing lin_api_appl.o(i.l_get_confirm_com_type_cmd), (12 bytes).
    Removing lin_api_appl.o(i.l_get_ctrl_update_cmd), (12 bytes).
    Removing lin_api_appl.o(i.l_u8_wr_Counter), (56 bytes).
    Removing lin_api_appl.o(.data), (8 bytes).
    Removing lin_api_appl.o(.data), (8 bytes).
    Removing lin_identification_and_configuration.o(.rev16_text), (4 bytes).
    Removing lin_identification_and_configuration.o(.revsh_text), (4 bytes).
    Removing lin_identification_and_configuration.o(i.LIN_ClearSaveNADRequest), (12 bytes).
    Removing lin_identification_and_configuration.o(i.LIN_ClearSavePIDRequest), (12 bytes).
    Removing lin_identification_and_configuration.o(i.LIN_GetSaveNADRequest), (12 bytes).
    Removing lin_identification_and_configuration.o(i.LIN_GetSavePIDRequest), (12 bytes).
    Removing lin_identification_and_configuration.o(i.LIN_TpLayerNCrTimeoutScheduler), (36 bytes).
    Removing lin_nvr.o(.rev16_text), (4 bytes).
    Removing lin_nvr.o(.revsh_text), (4 bytes).
    Removing lin_nvr.o(i.WriteNADToNVR), (116 bytes).
    Removing lin_nvr.o(i.WritePIDToNVR), (124 bytes).
    Removing lin_nvr.o(.constdata), (16 bytes).
    Removing lin_init.o(.rev16_text), (4 bytes).
    Removing lin_init.o(.revsh_text), (4 bytes).
    Removing lin_init.o(i.LINUART_Disable), (28 bytes).
    Removing lin_init.o(i.l_scheduler), (108 bytes).
    Removing lin_init.o(.data), (4 bytes).
    Removing fault_diagnose.o(.rev16_text), (4 bytes).
    Removing fault_diagnose.o(.revsh_text), (4 bytes).
    Removing fault_diagnose.o(i.BubbleSort), (56 bytes).
    Removing fault_diagnose.o(i.ChangePeak2Rms), (34 bytes).
    Removing fault_diagnose.o(i.CheckBusOvp), (104 bytes).
    Removing fault_diagnose.o(i.CheckBusUvp), (104 bytes).
    Removing fault_diagnose.o(i.CheckChipOTp), (100 bytes).
    Removing fault_diagnose.o(i.CheckLackPhase), (304 bytes).
    Removing fault_diagnose.o(i.CheckMOSOTpSensor), (116 bytes).
    Removing fault_diagnose.o(i.CheckStall), (56 bytes).
    Removing fault_diagnose.o(i.CheckStallLockState), (148 bytes).
    Removing fault_diagnose.o(i.GetCurrentAbsSum025), (88 bytes).
    Removing fault_handler.o(.rev16_text), (4 bytes).
    Removing fault_handler.o(.revsh_text), (4 bytes).
    Removing fault_handler.o(i.FLT_ClearFlag), (2 bytes).
    Removing fault_handler.o(i.FLT_Handler), (2 bytes).
    Removing fault_init.o(.rev16_text), (4 bytes).
    Removing fault_init.o(.revsh_text), (4 bytes).
    Removing foclib_init.o(.rev16_text), (4 bytes).
    Removing foclib_init.o(.revsh_text), (4 bytes).
    Removing foclib_init.o(i.HFI_ChangePwmFreq), (48 bytes).
    Removing foclib_init.o(i.HFI_Enable), (106 bytes).
    Removing foclib_init.o(i.HFI_Init), (400 bytes).
    Removing foclib_init.o(i.HFI_ResetPwmConfig), (40 bytes).
    Removing foclib_init.o(i.HFI_StartIdentify), (100 bytes).
    Removing foclib_init.o(i.PARAM_ID_Start), (184 bytes).
    Removing foclib_init.o(i.head_wind_pll_init), (360 bytes).
    Removing gcf_lib.o(i.GCF_InitCtrlPIp_F16), (8 bytes).
    Removing gcf_lib.o(i.GCF_InitCtrlPIr_F16), (8 bytes).
    Removing gcf_lib.o(i.GCF_InitIntegrator_F16), (8 bytes).
    Removing gcf_lib.o(i.GCF_InitMAFilter_F16), (6 bytes).
    Removing gcf_lib.o(i.GCF_InitRamp_F16), (6 bytes).
    Removing mm_lib.o(i.MM_GetRevision), (8 bytes).
    Removing mm_lib.o(.data), (2 bytes).
    Removing amc_lib.o(i.AMC_InitTrackObsrv_F16), (12 bytes).
    Removing amc_lib.o(.data), (2 bytes).
    Removing curr_sample_1rps.o(.rev16_text), (4 bytes).
    Removing curr_sample_1rps.o(.revsh_text), (4 bytes).
    Removing curr_sample_1rps.o(.emb_text), (524 bytes).
    Removing curr_sample_1rps.o(i.ADC_Cali16Ibration), (64 bytes).
    Removing curr_sample_1rps.o(i.GetPhaseCurr_1rps), (300 bytes).
    Removing curr_sample_1rps.o(i.InitMotorParameter), (76 bytes).
    Removing curr_sample_1rps.o(i.MotorPWM_OneShuntSetTriggerPoint), (24 bytes).
    Removing curr_sample_1rps.o(i.SetPwmDuty), (212 bytes).
    Removing curr_sample_1rps.o(i.SortCurrent), (50 bytes).
    Removing curr_sample_1rps.o(.data), (6 bytes).
    Removing curr_sample_1rps.o(.data), (2 bytes).
    Removing curr_sample_1rps.o(.data), (2 bytes).
    Removing curr_sample_1rps.o(.data), (2 bytes).
    Removing windmilling.o(i.WM_SwitchSmooth), (72 bytes).
    Removing deadtime_comp.o(i.DeadTimeComUpdate), (272 bytes).
    Removing deadtime_comp.o(.data), (2 bytes).
    Removing smart_align.o(i.SmartAlign), (96 bytes).
    Removing smart_align.o(.data), (2 bytes).
    Removing smart_align.o(.data), (4 bytes).
    Removing smart_align.o(.data), (4 bytes).
    Removing lin_api.o(.rev16_text), (4 bytes).
    Removing lin_api.o(.revsh_text), (4 bytes).
    Removing lin_api.o(.rrx_text), (6 bytes).
    Removing lin_api.o(i.WriteResponseError), (2 bytes).
    Removing lin_api.o(i.l_ifc_aux_MyLinIfc), (2 bytes).
    Removing lin_api.o(i.l_ifc_disconnect_MyLinIfc), (24 bytes).
    Removing lin_api.o(i.l_ifc_ioctl_MyLinIfc), (6 bytes).
    Removing lin_api.o(i.l_ifc_read_status_MyLinIfc), (32 bytes).
    Removing lin_api.o(i.l_ifc_tx_MyLinIfc), (2 bytes).
    Removing lin_api.o(i.l_ifc_wake_up_MyLinIfc), (108 bytes).
    Removing lin_api.o(i.l_sys_irq_disable), (24 bytes).
    Removing lin_api.o(i.l_sys_irq_restore), (12 bytes).
    Removing curr_sample_1rps_aiwin.o(.rev16_text), (4 bytes).
    Removing curr_sample_1rps_aiwin.o(.revsh_text), (4 bytes).
    Removing curr_sample_1rps_aiwin.o(i.GetPhaseCurr_1rps_AIWIN), (804 bytes).
    Removing curr_sample_1rps_aiwin.o(i.InitMotorParameterAIWIN), (80 bytes).
    Removing curr_sample_1rps_aiwin.o(i.MeasureVectorPeriod), (228 bytes).
    Removing curr_sample_1rps_aiwin.o(i.PredictNextAngle), (24 bytes).
    Removing curr_sample_1rps_aiwin.o(i.PredictPhaseCurrents), (80 bytes).
    Removing curr_sample_1rps_aiwin.o(i.RestoreFromMeasureVectorConfig), (92 bytes).
    Removing curr_sample_1rps_aiwin.o(i.Svm1rpsTrig_AIWIN), (536 bytes).
    Removing curr_sample_1rps_aiwin.o(i.saturate_16), (32 bytes).
    Removing curr_sample_1rps_aiwin.o(.data), (1 bytes).
    Removing dq_dual_space_switch.o(i.DQ_DualSpaceDecayBlendAlpha), (32 bytes).
    Removing dq_dual_space_switch.o(i.DQ_DualSpaceGetBlendAlpha), (12 bytes).
    Removing dq_dual_space_switch.o(i.DQ_DualSpaceGetIdStart), (12 bytes).
    Removing dq_dual_space_switch.o(i.DQ_DualSpaceGetIqStart), (12 bytes).
    Removing dq_dual_space_switch.o(i.DQ_DualSpaceSwitchInit), (172 bytes).
    Removing dq_dual_space_switch.o(i.DQ_DualSpaceSwitchInitUseAlphaBeta), (204 bytes).
    Removing dq_dual_space_switch.o(i.DQ_DualSpaceSwitchMaintainTorque), (88 bytes).
    Removing dq_dual_space_switch.o(i.DQ_DualSpaceSwitchTransformRealDQ), (96 bytes).
    Removing dq_dual_space_switch.o(i.DQ_DualSpaceSwitchTransformVirDQ), (96 bytes).
    Removing dq_dual_space_switch.o(i.calcIDendIQend), (64 bytes).
    Removing dq_dual_space_switch.o(.data), (2 bytes).
    Removing dq_dual_space_switch.o(.data), (2 bytes).
    Removing hfi_lib.o(.rev16_text), (4 bytes).
    Removing hfi_lib.o(.revsh_text), (4 bytes).
    Removing hfi_lib.o(i.HFI_CurrLoopOnlyVolt), (60 bytes).
    Removing hfi_lib.o(i.HFI_Currloop), (176 bytes).
    Removing hfi_lib.o(i.HFI_ExtractCurrents), (196 bytes).
    Removing hfi_lib.o(i.HFI_GenerateRandom), (44 bytes).
    Removing hfi_lib.o(i.HFI_GetEstimatedAngle), (18 bytes).
    Removing hfi_lib.o(i.HFI_GetLimitedRandom), (60 bytes).
    Removing hfi_lib.o(i.HFI_IsIdentifyComplete), (6 bytes).
    Removing hfi_lib.o(i.HFI_IsTransitionComplete), (20 bytes).
    Removing hfi_lib.o(i.HFI_PllUpdate), (124 bytes).
    Removing hfi_lib.o(i.HFI_Process), (52 bytes).
    Removing hfi_lib.o(i.HFI_ProcessIPD), (252 bytes).
    Removing hfi_lib.o(i.HFI_ProcessIdentify), (2 bytes).
    Removing hfi_lib.o(i.HFI_ProcessPolarity), (520 bytes).
    Removing hfi_lib.o(i.HFI_ProcessTracking), (316 bytes).
    Removing hfi_lib.o(i.HFI_ResetState), (28 bytes).
    Removing hfi_lib.o(i.HFI_SetInjectionMode), (56 bytes).
    Removing hfi_lib.o(i.HFI_SwitchFromBemf), (116 bytes).
    Removing hfi_lib.o(i.HFI_SwitchInjectionVoltage), (284 bytes).
    Removing hfi_lib.o(i.HFI_SwitchToBemf), (220 bytes).
    Removing hfi_lib.o(i.HFI_UpdateRandomParameters), (2 bytes).
    Removing hfi_lib.o(i.WIND_SwitchToHFI), (108 bytes).
    Removing hfi_lib.o(.bss), (44 bytes).
    Removing hfi_lib.o(.data), (16 bytes).
    Removing hfi_lib.o(.data), (2 bytes).
    Removing iq_filter.o(i.IQ_HPFilterCalc), (34 bytes).
    Removing iq_filter.o(i.IQ_HPFilterParaCalc), (10 bytes).
    Removing iq_filter.o(i.IQ_HPFilterSetCutoffHz), (18 bytes).
    Removing motor_data_calc.o(i.motorCalculateAllData), (36 bytes).
    Removing motor_data_calc.o(i.motor_calculate_current_magnitude), (140 bytes).
    Removing motor_data_calc.o(i.motor_calculate_dc_current), (384 bytes).
    Removing motor_data_calc.o(i.motor_calculate_dc_current_by_sample), (20 bytes).
    Removing motor_data_calc.o(i.motor_calculate_power), (2 bytes).
    Removing motor_data_calc.o(.data), (1 bytes).
    Removing motor_param_id.o(i.PARAM_ID_CalculateFluxLinkage), (228 bytes).
    Removing motor_param_id.o(i.PARAM_ID_CalculateInductanceValues), (224 bytes).
    Removing motor_param_id.o(i.PARAM_ID_CalculateResistance), (80 bytes).
    Removing motor_param_id.o(i.PARAM_ID_Process), (1964 bytes).
    Removing motor_param_id.o(i.PARAM_ID_Reset), (10 bytes).
    Removing pll_pi.o(i.init_pll_pi), (24 bytes).
    Removing pll_pi.o(i.run_parallel_pi), (76 bytes).
    Removing transform.o(i.FreqToInt32), (6 bytes).
    Removing transform.o(i.GMC_InvClarkeF16), (88 bytes).
    Removing transform.o(i.GMC_InvClarkeModF16), (88 bytes).
    Removing transform.o(i.GetAngleIncrement), (24 bytes).
    Removing transform.o(i.SatToPosQ15), (22 bytes).
    Removing transform.o(i.SatToPosQ15div2), (28 bytes).
    Removing transform.o(i.ThetaTo0_2pi), (10 bytes).
    Removing qpr_fixed.o(i.MulQ15_By_IntHz), (28 bytes).
    Removing qpr_fixed.o(.data), (2 bytes).
    Removing pi.o(i.SetPIControllerBumpless), (72 bytes).
    Removing stalldetection.o(i.stallDetection1ms), (286 bytes).
    Removing windmilling_pll.o(i.WM_SwitchSmoothpll), (224 bytes).
    Removing windmilling_pll.o(i.WM_WindDetectionPll), (244 bytes).
    Removing windmilling_pll.o(.bss), (20 bytes).
    Removing windmilling_pll.o(.bss), (20 bytes).
    Removing windmilling_pll.o(.bss), (20 bytes).
    Removing windmilling_pll.o(.constdata), (2 bytes).
    Removing windmilling_pll.o(.data), (1 bytes).
    Removing windmilling_pll.o(.data), (4 bytes).
    Removing windmilling_pll.o(.data), (4 bytes).
    Removing windmilling_pll.o(.data), (2 bytes).
    Removing windmilling_pll.o(.data), (1 bytes).
    Removing windmilling_pll.o(.data), (2 bytes).
    Removing windmilling_pll.o(.data), (24 bytes).
    Removing windmilling_pll.o(.data), (4 bytes).
    Removing windmilling_pll.o(.data), (4 bytes).
    Removing windmilling_pll.o(.data), (4 bytes).
    Removing windmilling_pll.o(.data), (4 bytes).
    Removing windmilling_pll.o(.data), (4 bytes).
    Removing windmilling_pll.o(.data), (2 bytes).
    Removing fadd.o(.text), (176 bytes).
    Removing ffltui.o(.text), (10 bytes).
    Removing dfltui.o(.text), (26 bytes).

417 unused section(s) (total 22312 bytes) removed from the image.

==============================================================================

Image Symbol Table

    Local Symbols

    Symbol Name                              Value     Ov Type        Size  Object(Section)

    ../clib/../cmprslib/zerorunl.c           0x00000000   Number         0  __dczerorl.o ABSOLUTE
    ../clib/microlib/division.c              0x00000000   Number         0  uldiv.o ABSOLUTE
    ../clib/microlib/init/entry.s            0x00000000   Number         0  entry7a.o ABSOLUTE
    ../clib/microlib/init/entry.s            0x00000000   Number         0  entry7b.o ABSOLUTE
    ../clib/microlib/init/entry.s            0x00000000   Number         0  entry11b.o ABSOLUTE
    ../clib/microlib/init/entry.s            0x00000000   Number         0  entry9a.o ABSOLUTE
    ../clib/microlib/init/entry.s            0x00000000   Number         0  entry10a.o ABSOLUTE
    ../clib/microlib/init/entry.s            0x00000000   Number         0  entry11a.o ABSOLUTE
    ../clib/microlib/init/entry.s            0x00000000   Number         0  entry10b.o ABSOLUTE
    ../clib/microlib/init/entry.s            0x00000000   Number         0  entry9b.o ABSOLUTE
    ../clib/microlib/init/entry.s            0x00000000   Number         0  entry8b.o ABSOLUTE
    ../clib/microlib/init/entry.s            0x00000000   Number         0  entry8a.o ABSOLUTE
    ../clib/microlib/init/entry.s            0x00000000   Number         0  entry2.o ABSOLUTE
    ../clib/microlib/init/entry.s            0x00000000   Number         0  entry.o ABSOLUTE
    ../clib/microlib/init/entry.s            0x00000000   Number         0  entry5.o ABSOLUTE
    ../clib/microlib/longlong.c              0x00000000   Number         0  llushr.o ABSOLUTE
    ../clib/microlib/longlong.c              0x00000000   Number         0  llshl.o ABSOLUTE
    ../clib/microlib/longlong.c              0x00000000   Number         0  llsshr.o ABSOLUTE
    ../clib/microlib/string/memcpy.c         0x00000000   Number         0  memcpya.o ABSOLUTE
    ../clib/microlib/string/memcpy.c         0x00000000   Number         0  memcpyb.o ABSOLUTE
    ../clib/microlib/string/memset.c         0x00000000   Number         0  memseta.o ABSOLUTE
    ../clib/microlib/stubs.s                 0x00000000   Number         0  iusefp.o ABSOLUTE
    ../fplib/microlib/d2f.c                  0x00000000   Number         0  d2f.o ABSOLUTE
    ../fplib/microlib/f2d.c                  0x00000000   Number         0  f2d.o ABSOLUTE
    ../fplib/microlib/fpadd.c                0x00000000   Number         0  dadd.o ABSOLUTE
    ../fplib/microlib/fpadd.c                0x00000000   Number         0  fadd.o ABSOLUTE
    ../fplib/microlib/fpdiv.c                0x00000000   Number         0  fdiv.o ABSOLUTE
    ../fplib/microlib/fpdiv.c                0x00000000   Number         0  ddiv.o ABSOLUTE
    ../fplib/microlib/fpepilogue.c           0x00000000   Number         0  depilogue.o ABSOLUTE
    ../fplib/microlib/fpepilogue.c           0x00000000   Number         0  fepilogue.o ABSOLUTE
    ../fplib/microlib/fpfix.c                0x00000000   Number         0  dfixi.o ABSOLUTE
    ../fplib/microlib/fpfix.c                0x00000000   Number         0  ffixui.o ABSOLUTE
    ../fplib/microlib/fpfix.c                0x00000000   Number         0  ffixi.o ABSOLUTE
    ../fplib/microlib/fpflt.c                0x00000000   Number         0  ffltui.o ABSOLUTE
    ../fplib/microlib/fpflt.c                0x00000000   Number         0  dfltui.o ABSOLUTE
    ../fplib/microlib/fpflt.c                0x00000000   Number         0  fflti.o ABSOLUTE
    ../fplib/microlib/fpmul.c                0x00000000   Number         0  dmul.o ABSOLUTE
    ../fplib/microlib/fpmul.c                0x00000000   Number         0  fmul.o ABSOLUTE
    ../fplib/microlib/fpscalb.c              0x00000000   Number         0  fscalb.o ABSOLUTE
    ../fplib/microlib/fpscalb.c              0x00000000   Number         0  dscalb.o ABSOLUTE
    ..\..\common\Driver\src\SysTick.c        0x00000000   Number         0  systick.o ABSOLUTE
    ..\..\common\Driver\src\SysTick_isr.c    0x00000000   Number         0  systick_isr.o ABSOLUTE
    ..\..\common\Driver\src\uart.c           0x00000000   Number         0  uart.o ABSOLUTE
    ..\..\common\System\Retarget.c           0x00000000   Number         0  retarget.o ABSOLUTE
    ..\..\common\System\handler.c            0x00000000   Number         0  handler.o ABSOLUTE
    ..\..\common\System\startup_NSUC1602.s   0x00000000   Number         0  startup_nsuc1602.o ABSOLUTE
    ..\..\common\System\sysport.c            0x00000000   Number         0  sysport.o ABSOLUTE
    ..\..\common\System\system.c             0x00000000   Number         0  system.o ABSOLUTE
    ..\LIN\lin_api.c                         0x00000000   Number         0  lin_api.o ABSOLUTE
    ..\User\DebugTools\src\freemaster_Kxx.c  0x00000000   Number         0  freemaster_kxx.o ABSOLUTE
    ..\User\DebugTools\src\freemaster_appcmd.c 0x00000000   Number         0  freemaster_appcmd.o ABSOLUTE
    ..\User\DebugTools\src\freemaster_bdm.c  0x00000000   Number         0  freemaster_bdm.o ABSOLUTE
    ..\User\DebugTools\src\freemaster_can.c  0x00000000   Number         0  freemaster_can.o ABSOLUTE
    ..\User\DebugTools\src\freemaster_lin.c  0x00000000   Number         0  freemaster_lin.o ABSOLUTE
    ..\User\DebugTools\src\freemaster_pipes.c 0x00000000   Number         0  freemaster_pipes.o ABSOLUTE
    ..\User\DebugTools\src\freemaster_protocol.c 0x00000000   Number         0  freemaster_protocol.o ABSOLUTE
    ..\User\DebugTools\src\freemaster_rec.c  0x00000000   Number         0  freemaster_rec.o ABSOLUTE
    ..\User\DebugTools\src\freemaster_scope.c 0x00000000   Number         0  freemaster_scope.o ABSOLUTE
    ..\User\DebugTools\src\freemaster_serial.c 0x00000000   Number         0  freemaster_serial.o ABSOLUTE
    ..\User\DebugTools\src\freemaster_sfio.c 0x00000000   Number         0  freemaster_sfio.o ABSOLUTE
    ..\User\DebugTools\src\freemaster_tsa.c  0x00000000   Number         0  freemaster_tsa.o ABSOLUTE
    ..\User\FOCLIB\src\curr_sample_1rps_aiwin.c 0x00000000   Number         0  curr_sample_1rps_aiwin.o ABSOLUTE
    ..\User\FOCLIB\src\dq_dual_space_switch.c 0x00000000   Number         0  dq_dual_space_switch.o ABSOLUTE
    ..\User\FOCLIB\src\foclib_init.c         0x00000000   Number         0  foclib_init.o ABSOLUTE
    ..\User\FOCLIB\src\hfi_lib.c             0x00000000   Number         0  hfi_lib.o ABSOLUTE
    ..\User\FOCLIB\src\iq_filter.c           0x00000000   Number         0  iq_filter.o ABSOLUTE
    ..\User\FOCLIB\src\motor_data_calc.c     0x00000000   Number         0  motor_data_calc.o ABSOLUTE
    ..\User\FOCLIB\src\motor_param_id.c      0x00000000   Number         0  motor_param_id.o ABSOLUTE
    ..\User\FOCLIB\src\pi.c                  0x00000000   Number         0  pi.o ABSOLUTE
    ..\User\FOCLIB\src\pll_pi.c              0x00000000   Number         0  pll_pi.o ABSOLUTE
    ..\User\FOCLIB\src\qpr_fixed.c           0x00000000   Number         0  qpr_fixed.o ABSOLUTE
    ..\User\FOCLIB\src\stallDetection.c      0x00000000   Number         0  stalldetection.o ABSOLUTE
    ..\User\FOCLIB\src\transform.c           0x00000000   Number         0  transform.o ABSOLUTE
    ..\User\FOCLIB\src\windmilling_pll.c     0x00000000   Number         0  windmilling_pll.o ABSOLUTE
    ..\User\FaultDiagnosis\src\fault_diagnose.c 0x00000000   Number         0  fault_diagnose.o ABSOLUTE
    ..\User\FaultDiagnosis\src\fault_handler.c 0x00000000   Number         0  fault_handler.o ABSOLUTE
    ..\User\FaultDiagnosis\src\fault_init.c  0x00000000   Number         0  fault_init.o ABSOLUTE
    ..\User\LIN\lin_api_appl.c               0x00000000   Number         0  lin_api_appl.o ABSOLUTE
    ..\User\LIN\lin_config.c                 0x00000000   Number         0  lin_config.o ABSOLUTE
    ..\User\LIN\lin_identification_and_configuration.c 0x00000000   Number         0  lin_identification_and_configuration.o ABSOLUTE
    ..\User\LIN\lin_init.c                   0x00000000   Number         0  lin_init.o ABSOLUTE
    ..\User\LIN\lin_nvr.c                    0x00000000   Number         0  lin_nvr.o ABSOLUTE
    ..\User\NTCdrive.c                       0x00000000   Number         0  ntcdrive.o ABSOLUTE
    ..\User\NovosnsFoc\src\foc_init.c        0x00000000   Number         0  foc_init.o ABSOLUTE
    ..\User\NovosnsFoc\src\foc_paras.c       0x00000000   Number         0  foc_paras.o ABSOLUTE
    ..\User\NovosnsFoc\src\nvsns_foc.c       0x00000000   Number         0  nvsns_foc.o ABSOLUTE
    ..\User\NovosnsFoc\src\state_machine.c   0x00000000   Number         0  state_machine.o ABSOLUTE
    ..\User\NovosnsMotorMath\src\amc_lib.c   0x00000000   Number         0  amc_lib.o ABSOLUTE
    ..\User\NovosnsMotorMath\src\gcf_lib.c   0x00000000   Number         0  gcf_lib.o ABSOLUTE
    ..\User\NovosnsMotorMath\src\gmc_lib.c   0x00000000   Number         0  gmc_lib.o ABSOLUTE
    ..\User\NovosnsMotorMath\src\mm_lib.c    0x00000000   Number         0  mm_lib.o ABSOLUTE
    ..\User\NovosnsMtrAdvance\src\curr_sample_1rps.c 0x00000000   Number         0  curr_sample_1rps.o ABSOLUTE
    ..\User\NovosnsMtrAdvance\src\deadtime_comp.c 0x00000000   Number         0  deadtime_comp.o ABSOLUTE
    ..\User\NovosnsMtrAdvance\src\mtr_adv_init.c 0x00000000   Number         0  mtr_adv_init.o ABSOLUTE
    ..\User\NovosnsMtrAdvance\src\smart_align.c 0x00000000   Number         0  smart_align.o ABSOLUTE
    ..\User\NovosnsMtrAdvance\src\windmilling.c 0x00000000   Number         0  windmilling.o ABSOLUTE
    ..\User\Source\derating_control.c        0x00000000   Number         0  derating_control.o ABSOLUTE
    ..\User\Source\motor_state_ctrl.c        0x00000000   Number         0  motor_state_ctrl.o ABSOLUTE
    ..\User\Source\sleep_control.c           0x00000000   Number         0  sleep_control.o ABSOLUTE
    ..\User\Source\testFun.c                 0x00000000   Number         0  testfun.o ABSOLUTE
    ..\User\lin_appl.c                       0x00000000   Number         0  lin_appl.o ABSOLUTE
    ..\User\pwm_appl.c                       0x00000000   Number         0  pwm_appl.o ABSOLUTE
    ..\\..\\common\\Driver\\src\\SysTick.c   0x00000000   Number         0  systick.o ABSOLUTE
    ..\\..\\common\\Driver\\src\\SysTick_isr.c 0x00000000   Number         0  systick_isr.o ABSOLUTE
    ..\\..\\common\\Driver\\src\\uart.c      0x00000000   Number         0  uart.o ABSOLUTE
    ..\\..\\common\\System\\Retarget.c       0x00000000   Number         0  retarget.o ABSOLUTE
    ..\\..\\common\\System\\handler.c        0x00000000   Number         0  handler.o ABSOLUTE
    ..\\..\\common\\System\\sysport.c        0x00000000   Number         0  sysport.o ABSOLUTE
    ..\\..\\common\\System\\system.c         0x00000000   Number         0  system.o ABSOLUTE
    ..\\LIN\\lin_api.c                       0x00000000   Number         0  lin_api.o ABSOLUTE
    ..\\User\\DebugTools\\src\\freemaster_Kxx.c 0x00000000   Number         0  freemaster_kxx.o ABSOLUTE
    ..\\User\\DebugTools\\src\\freemaster_appcmd.c 0x00000000   Number         0  freemaster_appcmd.o ABSOLUTE
    ..\\User\\DebugTools\\src\\freemaster_bdm.c 0x00000000   Number         0  freemaster_bdm.o ABSOLUTE
    ..\\User\\DebugTools\\src\\freemaster_can.c 0x00000000   Number         0  freemaster_can.o ABSOLUTE
    ..\\User\\DebugTools\\src\\freemaster_lin.c 0x00000000   Number         0  freemaster_lin.o ABSOLUTE
    ..\\User\\DebugTools\\src\\freemaster_pipes.c 0x00000000   Number         0  freemaster_pipes.o ABSOLUTE
    ..\\User\\DebugTools\\src\\freemaster_protocol.c 0x00000000   Number         0  freemaster_protocol.o ABSOLUTE
    ..\\User\\DebugTools\\src\\freemaster_rec.c 0x00000000   Number         0  freemaster_rec.o ABSOLUTE
    ..\\User\\DebugTools\\src\\freemaster_scope.c 0x00000000   Number         0  freemaster_scope.o ABSOLUTE
    ..\\User\\DebugTools\\src\\freemaster_serial.c 0x00000000   Number         0  freemaster_serial.o ABSOLUTE
    ..\\User\\DebugTools\\src\\freemaster_sfio.c 0x00000000   Number         0  freemaster_sfio.o ABSOLUTE
    ..\\User\\DebugTools\\src\\freemaster_tsa.c 0x00000000   Number         0  freemaster_tsa.o ABSOLUTE
    ..\\User\\FOCLIB\\src\\curr_sample_1rps_aiwin.c 0x00000000   Number         0  curr_sample_1rps_aiwin.o ABSOLUTE
    ..\\User\\FOCLIB\\src\\foclib_init.c     0x00000000   Number         0  foclib_init.o ABSOLUTE
    ..\\User\\FOCLIB\\src\\hfi_lib.c         0x00000000   Number         0  hfi_lib.o ABSOLUTE
    ..\\User\\FaultDiagnosis\\src\\fault_diagnose.c 0x00000000   Number         0  fault_diagnose.o ABSOLUTE
    ..\\User\\FaultDiagnosis\\src\\fault_handler.c 0x00000000   Number         0  fault_handler.o ABSOLUTE
    ..\\User\\FaultDiagnosis\\src\\fault_init.c 0x00000000   Number         0  fault_init.o ABSOLUTE
    ..\\User\\LIN\\lin_api_appl.c            0x00000000   Number         0  lin_api_appl.o ABSOLUTE
    ..\\User\\LIN\\lin_identification_and_configuration.c 0x00000000   Number         0  lin_identification_and_configuration.o ABSOLUTE
    ..\\User\\LIN\\lin_init.c                0x00000000   Number         0  lin_init.o ABSOLUTE
    ..\\User\\LIN\\lin_nvr.c                 0x00000000   Number         0  lin_nvr.o ABSOLUTE
    ..\\User\\NTCdrive.c                     0x00000000   Number         0  ntcdrive.o ABSOLUTE
    ..\\User\\NovosnsFoc\\src\\foc_init.c    0x00000000   Number         0  foc_init.o ABSOLUTE
    ..\\User\\NovosnsFoc\\src\\nvsns_foc.c   0x00000000   Number         0  nvsns_foc.o ABSOLUTE
    ..\\User\\NovosnsMotorMath\\src\\amc_lib.c 0x00000000   Number         0  amc_lib.o ABSOLUTE
    ..\\User\\NovosnsMotorMath\\src\\gcf_lib.c 0x00000000   Number         0  gcf_lib.o ABSOLUTE
    ..\\User\\NovosnsMotorMath\\src\\gmc_lib.c 0x00000000   Number         0  gmc_lib.o ABSOLUTE
    ..\\User\\NovosnsMotorMath\\src\\mm_lib.c 0x00000000   Number         0  mm_lib.o ABSOLUTE
    ..\\User\\NovosnsMtrAdvance\\src\\curr_sample_1rps.c 0x00000000   Number         0  curr_sample_1rps.o ABSOLUTE
    ..\\User\\Source\\motor_state_ctrl.c     0x00000000   Number         0  motor_state_ctrl.o ABSOLUTE
    ..\\User\\Source\\sleep_control.c        0x00000000   Number         0  sleep_control.o ABSOLUTE
    ..\\User\\Source\\testFun.c              0x00000000   Number         0  testfun.o ABSOLUTE
    ..\\User\\lin_appl.c                     0x00000000   Number         0  lin_appl.o ABSOLUTE
    ..\\User\\pwm_appl.c                     0x00000000   Number         0  pwm_appl.o ABSOLUTE
    ..\\user\\main.c                         0x00000000   Number         0  main.o ABSOLUTE
    ..\user\main.c                           0x00000000   Number         0  main.o ABSOLUTE
    cdcmple.s                                0x00000000   Number         0  cdcmple.o ABSOLUTE
    cdrcmple.s                               0x00000000   Number         0  cdrcmple.o ABSOLUTE
    cfcmple.s                                0x00000000   Number         0  cfcmple.o ABSOLUTE
    dc.s                                     0x00000000   Number         0  dc.o ABSOLUTE
    handlers.s                               0x00000000   Number         0  handlers.o ABSOLUTE
    init.s                                   0x00000000   Number         0  init.o ABSOLUTE
    RESET                                    0x08000000   Section      132  startup_nsuc1602.o(RESET)
    .ARM.Collect$$$$00000000                 0x08000084   Section        0  entry.o(.ARM.Collect$$$$00000000)
    .ARM.Collect$$$$00000001                 0x08000084   Section        4  entry2.o(.ARM.Collect$$$$00000001)
    .ARM.Collect$$$$00000004                 0x08000088   Section        4  entry5.o(.ARM.Collect$$$$00000004)
    .ARM.Collect$$$$00000008                 0x0800008c   Section        0  entry7b.o(.ARM.Collect$$$$00000008)
    .ARM.Collect$$$$0000000A                 0x0800008c   Section        0  entry8b.o(.ARM.Collect$$$$0000000A)
    .ARM.Collect$$$$0000000B                 0x0800008c   Section        8  entry9a.o(.ARM.Collect$$$$0000000B)
    .ARM.Collect$$$$0000000D                 0x08000094   Section        0  entry10a.o(.ARM.Collect$$$$0000000D)
    .ARM.Collect$$$$0000000F                 0x08000094   Section        0  entry11a.o(.ARM.Collect$$$$0000000F)
    .ARM.Collect$$$$00002712                 0x08000094   Section        4  entry2.o(.ARM.Collect$$$$00002712)
    __lit__00000000                          0x08000094   Data           4  entry2.o(.ARM.Collect$$$$00002712)
    .emb_text                                0x08000098   Section      482  gcf_lib.o(.emb_text)
    .emb_text                                0x0800027c   Section      546  gmc_lib.o(.emb_text)
    .emb_text                                0x080004a0   Section      110  mm_lib.o(.emb_text)
    .emb_text                                0x08000510   Section      442  amc_lib.o(.emb_text)
    .text                                    0x080006cc   Section       92  startup_nsuc1602.o(.text)
    .text                                    0x08000728   Section        0  uldiv.o(.text)
    .text                                    0x0800078a   Section        0  llshl.o(.text)
    .text                                    0x080007a8   Section        0  llsshr.o(.text)
    .text                                    0x080007cc   Section        0  memcpya.o(.text)
    .text                                    0x080007f0   Section        0  memseta.o(.text)
    .text                                    0x08000814   Section        0  fmul.o(.text)
    .text                                    0x08000878   Section        0  fdiv.o(.text)
    .text                                    0x080008f4   Section        0  fscalb.o(.text)
    .text                                    0x0800090c   Section        0  dadd.o(.text)
    .text                                    0x08000a5a   Section        0  dmul.o(.text)
    .text                                    0x08000b3e   Section        0  ddiv.o(.text)
    .text                                    0x08000c1c   Section        0  dscalb.o(.text)
    .text                                    0x08000c4a   Section        0  fflti.o(.text)
    .text                                    0x08000c5c   Section        0  ffixi.o(.text)
    .text                                    0x08000c8e   Section        0  ffixui.o(.text)
    .text                                    0x08000cb6   Section        0  dfixi.o(.text)
    .text                                    0x08000cf4   Section        0  f2d.o(.text)
    .text                                    0x08000d1c   Section       48  cdcmple.o(.text)
    .text                                    0x08000d4c   Section       48  cdrcmple.o(.text)
    .text                                    0x08000d7c   Section        0  d2f.o(.text)
    .text                                    0x08000db4   Section       20  cfcmple.o(.text)
    .text                                    0x08000dc8   Section        0  llushr.o(.text)
    .text                                    0x08000de8   Section        0  fepilogue.o(.text)
    .text                                    0x08000de8   Section        0  iusefp.o(.text)
    .text                                    0x08000e56   Section        0  depilogue.o(.text)
    .text                                    0x08000f10   Section       36  init.o(.text)
    .text                                    0x08000f34   Section        0  __dczerorl.o(.text)
    i.ADC_IRQHandler                         0x08000f70   Section        0  nvsns_foc.o(i.ADC_IRQHandler)
    i.AMC_FWInit_F16                         0x08000f84   Section        0  mtr_adv_init.o(i.AMC_FWInit_F16)
    i.AMC_InitObsrv_F16                      0x08000fb4   Section        0  amc_lib.o(i.AMC_InitObsrv_F16)
    i.AMC_TrackObsrv_F16                     0x08000fd0   Section        0  amc_lib.o(i.AMC_TrackObsrv_F16)
    i.AlarmCheck10msTask                     0x08001008   Section        0  fault_diagnose.o(i.AlarmCheck10msTask)
    i.AlarmCheck1msTask                      0x08001016   Section        0  fault_diagnose.o(i.AlarmCheck1msTask)
    i.AutomaticMode                          0x08001018   Section        0  nvsns_foc.o(i.AutomaticMode)
    i.BSM_BitEndCallback                     0x080010ac   Section        0  lin_identification_and_configuration.o(i.BSM_BitEndCallback)
    BSM_BitEndCallback                       0x080010ad   Thumb Code   246  lin_identification_and_configuration.o(i.BSM_BitEndCallback)
    i.BSM_FeCallback                         0x080011ac   Section        0  lin_identification_and_configuration.o(i.BSM_FeCallback)
    BSM_FeCallback                           0x080011ad   Thumb Code    52  lin_identification_and_configuration.o(i.BSM_FeCallback)
    i.BSM_GetBSMNodeStatus                   0x080011e8   Section        0  lin_identification_and_configuration.o(i.BSM_GetBSMNodeStatus)
    i.BSM_InitShuntMeasurement               0x080011f4   Section        0  lin_identification_and_configuration.o(i.BSM_InitShuntMeasurement)
    BSM_InitShuntMeasurement                 0x080011f5   Thumb Code   148  lin_identification_and_configuration.o(i.BSM_InitShuntMeasurement)
    i.BSM_Reset                              0x08001294   Section        0  lin_identification_and_configuration.o(i.BSM_Reset)
    BSM_Reset                                0x08001295   Thumb Code    68  lin_identification_and_configuration.o(i.BSM_Reset)
    i.BSM_ResetInFrameEnd                    0x080012ec   Section        0  lin_identification_and_configuration.o(i.BSM_ResetInFrameEnd)
    i.BSM_ShuntMeasurement                   0x08001318   Section        0  lin_identification_and_configuration.o(i.BSM_ShuntMeasurement)
    BSM_ShuntMeasurement                     0x08001319   Thumb Code    56  lin_identification_and_configuration.o(i.BSM_ShuntMeasurement)
    i.BrakeOutput                            0x08001354   Section        0  nvsns_foc.o(i.BrakeOutput)
    i.BusFaultHandler                        0x08001384   Section        0  handler.o(i.BusFaultHandler)
    i.BusIdleStartMeasurement                0x08001388   Section        0  lin_api.o(i.BusIdleStartMeasurement)
    BusIdleStartMeasurement                  0x08001389   Thumb Code     8  lin_api.o(i.BusIdleStartMeasurement)
    i.CHP_IRQHandler                         0x08001394   Section        0  fault_handler.o(i.CHP_IRQHandler)
    i.CalcIgbtTemp                           0x080013d0   Section        0  ntcdrive.o(i.CalcIgbtTemp)
    i.CalcOpenLoop                           0x080013fc   Section        0  nvsns_foc.o(i.CalcOpenLoop)
    i.CalcSensorTemp                         0x08001410   Section        0  ntcdrive.o(i.CalcSensorTemp)
    i.CalculateCheckSum                      0x08001488   Section        0  lin_init.o(i.CalculateCheckSum)
    i.ChangeAdcQ5ToBEMF                      0x080014cc   Section        0  nvsns_foc.o(i.ChangeAdcQ5ToBEMF)
    i.ChangeAdcQ5ToIbus                      0x080014ec   Section        0  nvsns_foc.o(i.ChangeAdcQ5ToIbus)
    i.CheckHardwareOcp                       0x0800150c   Section        0  fault_diagnose.o(i.CheckHardwareOcp)
    i.CheckHardwareShortCircuit              0x08001574   Section        0  fault_diagnose.o(i.CheckHardwareShortCircuit)
    i.CheckSleepStatus                       0x08001608   Section        0  sleep_control.o(i.CheckSleepStatus)
    i.DQ_DualSpaceBlendReset                 0x0800160c   Section        0  dq_dual_space_switch.o(i.DQ_DualSpaceBlendReset)
    i.DQ_DualSpaceSetBlendStep               0x0800161c   Section        0  dq_dual_space_switch.o(i.DQ_DualSpaceSetBlendStep)
    i.DeadTimeCompensationInit               0x08001628   Section        0  deadtime_comp.o(i.DeadTimeCompensationInit)
    i.DebugGPIO_Init                         0x08001644   Section        0  lin_appl.o(i.DebugGPIO_Init)
    DebugGPIO_Init                           0x08001645   Thumb Code    46  lin_appl.o(i.DebugGPIO_Init)
    i.DebugMonHandler                        0x0800167c   Section        0  handler.o(i.DebugMonHandler)
    i.Derating_Apply                         0x0800167e   Section        0  derating_control.o(i.Derating_Apply)
    i.Derating_ConvertRpmToFrac16            0x080016a8   Section        0  derating_control.o(i.Derating_ConvertRpmToFrac16)
    i.Derating_GetMaxAllowedRpm              0x080016e2   Section        0  derating_control.o(i.Derating_GetMaxAllowedRpm)
    i.Derating_Init                          0x080016f8   Section        0  derating_control.o(i.Derating_Init)
    i.DisableOutput                          0x0800172c   Section        0  nvsns_foc.o(i.DisableOutput)
    i.EPWM_IRQHandler                        0x08001758   Section        0  nvsns_foc.o(i.EPWM_IRQHandler)
    i.EnableOutput                           0x08001954   Section        0  nvsns_foc.o(i.EnableOutput)
    i.ErrorHandler                           0x08001984   Section        0  lin_appl.o(i.ErrorHandler)
    ErrorHandler                             0x08001985   Thumb Code     2  lin_appl.o(i.ErrorHandler)
    i.FAULT_Init                             0x08001988   Section        0  fault_init.o(i.FAULT_Init)
    i.FLASH_IRQHandler                       0x08001a48   Section        0  handler.o(i.FLASH_IRQHandler)
    i.FOC_1MSTASK                            0x08001a4c   Section        0  nvsns_foc.o(i.FOC_1MSTASK)
    i.FOC_AdcInit                            0x08001a7c   Section        0  foc_init.o(i.FOC_AdcInit)
    i.FOC_EpwmInit                           0x08001bfc   Section        0  foc_init.o(i.FOC_EpwmInit)
    i.FOC_GduInit                            0x08001cf8   Section        0  foc_init.o(i.FOC_GduInit)
    i.FeedDWDG                               0x08001f10   Section        0  lin_appl.o(i.FeedDWDG)
    i.FocFastLoop                            0x08001f28   Section        0  nvsns_foc.o(i.FocFastLoop)
    FocFastLoop                              0x08001f29   Thumb Code   324  nvsns_foc.o(i.FocFastLoop)
    i.FocSlowLoop                            0x0800207c   Section        0  nvsns_foc.o(i.FocSlowLoop)
    FocSlowLoop                              0x0800207d   Thumb Code   380  nvsns_foc.o(i.FocSlowLoop)
    i.GCF_IntegratorTR_F16_AIWIN             0x08002208   Section        0  transform.o(i.GCF_IntegratorTR_F16_AIWIN)
    i.GCF_PositionalPI_F16                   0x0800222c   Section        0  pi.o(i.GCF_PositionalPI_F16)
    i.GCF_Ramp_F16                           0x08002324   Section        0  gcf_lib.o(i.GCF_Ramp_F16)
    i.GDU_IRQHandler                         0x0800234c   Section        0  fault_handler.o(i.GDU_IRQHandler)
    i.GotoSleep                              0x0800237c   Section        0  lin_init.o(i.GotoSleep)
    i.HFI_CalculateInductanceValues          0x08002398   Section        0  hfi_lib.o(i.HFI_CalculateInductanceValues)
    i.HardFaultHandler                       0x0800243c   Section        0  handler.o(i.HardFaultHandler)
    i.IQ_HPFilterInit                        0x0800243e   Section        0  iq_filter.o(i.IQ_HPFilterInit)
    i.IQ_LPFilterCalc                        0x08002450   Section        0  iq_filter.o(i.IQ_LPFilterCalc)
    i.IQ_LPFilterInit                        0x0800251c   Section        0  iq_filter.o(i.IQ_LPFilterInit)
    i.IQ_LPFilterParaCalc                    0x08002528   Section        0  iq_filter.o(i.IQ_LPFilterParaCalc)
    i.IQ_LPFilterSetCutoffHz                 0x080025e4   Section        0  iq_filter.o(i.IQ_LPFilterSetCutoffHz)
    i.InitFocParas                           0x0800262c   Section        0  nvsns_foc.o(i.InitFocParas)
    i.InitFreqToAngleIncrement               0x08002aac   Section        0  transform.o(i.InitFreqToAngleIncrement)
    i.InitMotorConfig                        0x08002ae8   Section        0  nvsns_foc.o(i.InitMotorConfig)
    i.InitWatchDog                           0x08002b74   Section        0  lin_appl.o(i.InitWatchDog)
    InitWatchDog                             0x08002b75   Thumb Code    52  lin_appl.o(i.InitWatchDog)
    i.LINPORT_IRQHandler                     0x08002bb0   Section        0  lin_identification_and_configuration.o(i.LINPORT_IRQHandler)
    i.LINUART_Enable                         0x08002c04   Section        0  lin_init.o(i.LINUART_Enable)
    i.LINUART_IRQHandler                     0x08002c14   Section        0  lin_init.o(i.LINUART_IRQHandler)
    i.LINUART_Init                           0x08002cc4   Section        0  lin_init.o(i.LINUART_Init)
    i.LINUART_ReceiveDataByFIFO              0x08002d80   Section        0  lin_init.o(i.LINUART_ReceiveDataByFIFO)
    i.LINUART_TransmitDataByFIFO             0x08002dc4   Section        0  lin_init.o(i.LINUART_TransmitDataByFIFO)
    i.LIN_AssignFrameIDRange                 0x08002e34   Section        0  lin_identification_and_configuration.o(i.LIN_AssignFrameIDRange)
    LIN_AssignFrameIDRange                   0x08002e35   Thumb Code    92  lin_identification_and_configuration.o(i.LIN_AssignFrameIDRange)
    i.LIN_AssignNAD                          0x08002e9c   Section        0  lin_identification_and_configuration.o(i.LIN_AssignNAD)
    LIN_AssignNAD                            0x08002e9d   Thumb Code    82  lin_identification_and_configuration.o(i.LIN_AssignNAD)
    i.LIN_CheckPID                           0x08002ef8   Section        0  lin_api.o(i.LIN_CheckPID)
    i.LIN_ClearResponseFlagForDiagnosisFrame 0x08002f38   Section        0  lin_identification_and_configuration.o(i.LIN_ClearResponseFlagForDiagnosisFrame)
    i.LIN_ConditionalChangeNAD               0x08002f44   Section        0  lin_identification_and_configuration.o(i.LIN_ConditionalChangeNAD)
    LIN_ConditionalChangeNAD                 0x08002f45   Thumb Code   142  lin_identification_and_configuration.o(i.LIN_ConditionalChangeNAD)
    i.LIN_EnterProgramSession                0x08002fe0   Section        0  lin_identification_and_configuration.o(i.LIN_EnterProgramSession)
    LIN_EnterProgramSession                  0x08002fe1   Thumb Code    62  lin_identification_and_configuration.o(i.LIN_EnterProgramSession)
    i.LIN_GetResponseFlagForDiagnosisFrame   0x0800302c   Section        0  lin_identification_and_configuration.o(i.LIN_GetResponseFlagForDiagnosisFrame)
    i.LIN_NodeConfigAndIndentifByDiagnosticFrame 0x08003038   Section        0  lin_identification_and_configuration.o(i.LIN_NodeConfigAndIndentifByDiagnosticFrame)
    i.LIN_ReadByIdentifier                   0x08003084   Section        0  lin_identification_and_configuration.o(i.LIN_ReadByIdentifier)
    LIN_ReadByIdentifier                     0x08003085   Thumb Code   196  lin_identification_and_configuration.o(i.LIN_ReadByIdentifier)
    i.LIN_SNPD                               0x08003154   Section        0  lin_identification_and_configuration.o(i.LIN_SNPD)
    LIN_SNPD                                 0x08003155   Thumb Code   136  lin_identification_and_configuration.o(i.LIN_SNPD)
    i.LIN_SaveConfiguration                  0x080031ec   Section        0  lin_identification_and_configuration.o(i.LIN_SaveConfiguration)
    LIN_SaveConfiguration                    0x080031ed   Thumb Code    54  lin_identification_and_configuration.o(i.LIN_SaveConfiguration)
    i.LIN_SetSendingResponseForConfig        0x0800322c   Section        0  lin_identification_and_configuration.o(i.LIN_SetSendingResponseForConfig)
    LIN_SetSendingResponseForConfig          0x0800322d   Thumb Code    12  lin_identification_and_configuration.o(i.LIN_SetSendingResponseForConfig)
    i.LinApplMain                            0x0800323c   Section        0  lin_appl.o(i.LinApplMain)
    i.MM_AtanXYF16                           0x08003388   Section        0  mm_lib.o(i.MM_AtanXYF16)
    i.MM_QuartAtanF16                        0x080033fc   Section        0  mm_lib.o(i.MM_QuartAtanF16)
    i.MM_SqrtLut_F16                         0x08003470   Section        0  mm_lib.o(i.MM_SqrtLut_F16)
    i.MM_ThetaTransferTrigonoLut             0x080034ac   Section        0  mm_lib.o(i.MM_ThetaTransferTrigonoLut)
    i.MainTask                               0x0800353c   Section        0  main.o(i.MainTask)
    i.MatchFunctionID                        0x08003584   Section        0  lin_identification_and_configuration.o(i.MatchFunctionID)
    MatchFunctionID                          0x08003585   Thumb Code    38  lin_identification_and_configuration.o(i.MatchFunctionID)
    i.MatchNAD                               0x080035b0   Section        0  lin_identification_and_configuration.o(i.MatchNAD)
    MatchNAD                                 0x080035b1   Thumb Code    20  lin_identification_and_configuration.o(i.MatchNAD)
    i.MatchSupplierID                        0x080035c8   Section        0  lin_identification_and_configuration.o(i.MatchSupplierID)
    MatchSupplierID                          0x080035c9   Thumb Code    38  lin_identification_and_configuration.o(i.MatchSupplierID)
    i.MatchWildcardID                        0x080035f4   Section        0  lin_identification_and_configuration.o(i.MatchWildcardID)
    MatchWildcardID                          0x080035f5   Thumb Code    20  lin_identification_and_configuration.o(i.MatchWildcardID)
    i.MemManageHandler                       0x08003608   Section        0  handler.o(i.MemManageHandler)
    i.MotorStateCtrl                         0x0800360c   Section        0  motor_state_ctrl.o(i.MotorStateCtrl)
    i.MulQ15_By_IntmHz                       0x080036f4   Section        0  qpr_fixed.o(i.MulQ15_By_IntmHz)
    i.NMIHandler                             0x080036fe   Section        0  handler.o(i.NMIHandler)
    i.NVIC_DisableIRQ                        0x08003700   Section        0  foc_init.o(i.NVIC_DisableIRQ)
    NVIC_DisableIRQ                          0x08003701   Thumb Code    22  foc_init.o(i.NVIC_DisableIRQ)
    i.NVIC_SetPriority                       0x08003716   Section        0  foc_init.o(i.NVIC_SetPriority)
    NVIC_SetPriority                         0x08003717   Thumb Code    32  foc_init.o(i.NVIC_SetPriority)
    i.NotifyRxTxStatus                       0x08003738   Section        0  lin_api.o(i.NotifyRxTxStatus)
    i.PARAM_ID_Init                          0x08003854   Section        0  foclib_init.o(i.PARAM_ID_Init)
    i.PMU_IRQHandler                         0x080038b8   Section        0  fault_handler.o(i.PMU_IRQHandler)
    i.PWMIO_CheckTimeout                     0x08003908   Section        0  pwm_appl.o(i.PWMIO_CheckTimeout)
    i.PWMIO_ConfirmDutyCycle                 0x08003944   Section        0  pwm_appl.o(i.PWMIO_ConfirmDutyCycle)
    i.PWMIO_IRQHandler                       0x08003978   Section        0  pwm_appl.o(i.PWMIO_IRQHandler)
    i.PWMIO_Task10ms                         0x08003a24   Section        0  pwm_appl.o(i.PWMIO_Task10ms)
    i.PWMOUT_Set                             0x08003a34   Section        0  pwm_appl.o(i.PWMOUT_Set)
    i.PWMOUT_SetEnable                       0x08003a6c   Section        0  pwm_appl.o(i.PWMOUT_SetEnable)
    i.PendSVHandler                          0x08003a98   Section        0  handler.o(i.PendSVHandler)
    i.PowerEnableForward                     0x08003a9c   Section        0  lin_appl.o(i.PowerEnableForward)
    i.PowerEnableGPIO_Init                   0x08003ab4   Section        0  lin_appl.o(i.PowerEnableGPIO_Init)
    i.PowerEnableReverse                     0x08003b30   Section        0  lin_appl.o(i.PowerEnableReverse)
    i.PrepareToWakeup                        0x08003b48   Section        0  lin_init.o(i.PrepareToWakeup)
    i.QPR_FXP_TestLite_ReinitIfNeeded        0x08003b4c   Section        0  qpr_fixed.o(i.QPR_FXP_TestLite_ReinitIfNeeded)
    QPR_FXP_TestLite_ReinitIfNeeded          0x08003b4d   Thumb Code   168  qpr_fixed.o(i.QPR_FXP_TestLite_ReinitIfNeeded)
    i.QPR_FXP_TestLite_Step                  0x08003c00   Section        0  qpr_fixed.o(i.QPR_FXP_TestLite_Step)
    i.ReadNADFromNVR                         0x08003c7c   Section        0  lin_nvr.o(i.ReadNADFromNVR)
    i.ReadPIDFromNVR                         0x08003ca0   Section        0  lin_nvr.o(i.ReadPIDFromNVR)
    i.ResetLINResponseErrorForUser           0x08003cdc   Section        0  lin_init.o(i.ResetLINResponseErrorForUser)
    i.ResetProtocolState                     0x08003d10   Section        0  lin_init.o(i.ResetProtocolState)
    i.SVCHandler                             0x08003d44   Section        0  handler.o(i.SVCHandler)
    i.SetLINResponseError                    0x08003d48   Section        0  lin_api.o(i.SetLINResponseError)
    i.SetLINResponseErrorForUser             0x08003d90   Section        0  lin_init.o(i.SetLINResponseErrorForUser)
    i.SetPwmDutyAIWIN                        0x08003dd0   Section        0  nvsns_foc.o(i.SetPwmDutyAIWIN)
    i.SetRequestEnterBootloader              0x08003fc4   Section        0  lin_nvr.o(i.SetRequestEnterBootloader)
    i.SmartAlgnInit                          0x08004028   Section        0  smart_align.o(i.SmartAlgnInit)
    i.StateAlign                             0x0800403c   Section        0  nvsns_foc.o(i.StateAlign)
    i.StateCalib                             0x08004190   Section        0  nvsns_foc.o(i.StateCalib)
    i.StateFault                             0x0800421c   Section        0  nvsns_foc.o(i.StateFault)
    i.StateInit                              0x0800425c   Section        0  nvsns_foc.o(i.StateInit)
    i.StateReady                             0x080042b4   Section        0  nvsns_foc.o(i.StateReady)
    i.StateReset                             0x080042c4   Section        0  nvsns_foc.o(i.StateReset)
    i.StateRun                               0x080042e0   Section        0  nvsns_foc.o(i.StateRun)
    i.SysTickHandler                         0x0800441c   Section        0  systick_isr.o(i.SysTickHandler)
    i.SysTick_Init                           0x08004438   Section        0  systick.o(i.SysTick_Init)
    i.SystemInit                             0x0800447c   Section        0  system.o(i.SystemInit)
    i.Task1000msProcess                      0x0800448c   Section        0  main.o(i.Task1000msProcess)
    i.Task100msProcess                       0x080044c4   Section        0  main.o(i.Task100msProcess)
    i.Task10msCanE2promProcess               0x080044c6   Section        0  main.o(i.Task10msCanE2promProcess)
    i.Task10msProcess                        0x080044c8   Section        0  main.o(i.Task10msProcess)
    i.Task1msProcess                         0x080044dc   Section        0  main.o(i.Task1msProcess)
    i.Timer_GetFASTTime                      0x0800450c   Section        0  systick.o(i.Timer_GetFASTTime)
    i.Timer_Start                            0x08004530   Section        0  systick.o(i.Timer_Start)
    i.UpdateLinATCPFault                     0x08004544   Section        0  lin_appl.o(i.UpdateLinATCPFault)
    i.UpdateLinATCPStatus                    0x08004564   Section        0  lin_appl.o(i.UpdateLinATCPStatus)
    i.UsageFaultHandler                      0x08004608   Section        0  handler.o(i.UsageFaultHandler)
    i.WM_Init                                0x0800460a   Section        0  mtr_adv_init.o(i.WM_Init)
    i.WM_WindDetection                       0x0800462c   Section        0  windmilling.o(i.WM_WindDetection)
    i.WrapAngleQ15                           0x08004768   Section        0  transform.o(i.WrapAngleQ15)
    i.WrapAngleSumQ15                        0x0800478c   Section        0  transform.o(i.WrapAngleSumQ15)
    i.WriteResponseError                     0x08004794   Section        0  lin_init.o(i.WriteResponseError)
    WriteResponseError                       0x08004795   Thumb Code    30  lin_init.o(i.WriteResponseError)
    i._IQadd                                 0x080047b8   Section        0  iq_filter.o(i._IQadd)
    _IQadd                                   0x080047b9   Thumb Code    42  iq_filter.o(i._IQadd)
    i.__scatterload_copy                     0x080047e2   Section       14  handlers.o(i.__scatterload_copy)
    i.__scatterload_null                     0x080047f0   Section        2  handlers.o(i.__scatterload_null)
    i.__scatterload_zeroinit                 0x080047f2   Section       14  handlers.o(i.__scatterload_zeroinit)
    i.confirmComType                         0x08004800   Section        0  main.o(i.confirmComType)
    i.getCurrentMaxMin                       0x0800480c   Section        0  fault_diagnose.o(i.getCurrentMaxMin)
    i.l_atcp_struct_trans_data_buffer        0x08004918   Section        0  lin_api_appl.o(i.l_atcp_struct_trans_data_buffer)
    i.l_fault_trans_data_buffer              0x0800493e   Section        0  lin_api_appl.o(i.l_fault_trans_data_buffer)
    i.l_flg_set_update_flags                 0x08004964   Section        0  lin_api_appl.o(i.l_flg_set_update_flags)
    i.l_ifc_connect_MyLinIfc                 0x0800498c   Section        0  lin_api.o(i.l_ifc_connect_MyLinIfc)
    i.l_ifc_init_MyLinIfc                    0x080049b0   Section        0  lin_api.o(i.l_ifc_init_MyLinIfc)
    i.l_ifc_rx_MyLinIfc                      0x080049c4   Section        0  lin_api.o(i.l_ifc_rx_MyLinIfc)
    i.l_sys_init                             0x08004b84   Section        0  lin_init.o(i.l_sys_init)
    i.l_ver_trans_data_buffer                0x08004bb4   Section        0  lin_api_appl.o(i.l_ver_trans_data_buffer)
    i.mHzToAngleIncQ15                       0x08004bda   Section        0  qpr_fixed.o(i.mHzToAngleIncQ15)
    mHzToAngleIncQ15                         0x08004bdb   Thumb Code    32  qpr_fixed.o(i.mHzToAngleIncQ15)
    i.main                                   0x08004bfc   Section        0  main.o(i.main)
    i.motorInitCalculations                  0x08004c24   Section        0  motor_data_calc.o(i.motorInitCalculations)
    i.qprFxpInit                             0x08004c76   Section        0  qpr_fixed.o(i.qprFxpInit)
    i.qprFxpSetWcByAlphamhz                  0x08004cbe   Section        0  qpr_fixed.o(i.qprFxpSetWcByAlphamhz)
    i.qprFxpSetWcmHz                         0x08004cd8   Section        0  qpr_fixed.o(i.qprFxpSetWcmHz)
    i.qprFxpUpdate                           0x08004cfa   Section        0  qpr_fixed.o(i.qprFxpUpdate)
    i.qpr_sin_q15_local                      0x08004db4   Section        0  qpr_fixed.o(i.qpr_sin_q15_local)
    qpr_sin_q15_local                        0x08004db5   Thumb Code    14  qpr_fixed.o(i.qpr_sin_q15_local)
    i.qpr_update_coefs_q15                   0x08004dc2   Section        0  qpr_fixed.o(i.qpr_update_coefs_q15)
    qpr_update_coefs_q15                     0x08004dc3   Thumb Code   260  qpr_fixed.o(i.qpr_update_coefs_q15)
    i.saturate_16                            0x08004ec8   Section        0  nvsns_foc.o(i.saturate_16)
    saturate_16                              0x08004ec9   Thumb Code    26  nvsns_foc.o(i.saturate_16)
    i.sincos_q15                             0x08004ee8   Section        0  qpr_fixed.o(i.sincos_q15)
    sincos_q15                               0x08004ee9   Thumb Code    26  qpr_fixed.o(i.sincos_q15)
    i.stallDetectionInit                     0x08004f02   Section        0  foclib_init.o(i.stallDetectionInit)
    .constdata                               0x08004f50   Section       18  derating_control.o(.constdata)
    .constdata                               0x08004f62   Section        6  derating_control.o(.constdata)
    .constdata                               0x08004f68   Section       16  derating_control.o(.constdata)
    .constdata                               0x08004f78   Section      482  ntcdrive.o(.constdata)
    .constdata                               0x0800515c   Section      392  state_machine.o(.constdata)
    .constdata                               0x080052e4   Section        4  lin_config.o(.constdata)
    .constdata                               0x080052e8   Section        6  lin_config.o(.constdata)
    .constdata                               0x080052f0   Section       72  lin_config.o(.constdata)
    .constdata                               0x08005338   Section       56  lin_identification_and_configuration.o(.constdata)
    g_SID2Callbacks                          0x08005338   Data          56  lin_identification_and_configuration.o(.constdata)
    .data                                    0x20000000   Section       60  main.o(.data)
    .data                                    0x2000003c   Section        1  lin_appl.o(.data)
    g_u16DwdgTrigVal                         0x2000003c   Data           1  lin_appl.o(.data)
    .data                                    0x20000040   Section       60  pwm_appl.o(.data)
    g_u8PwmMotorState                        0x20000041   Data           1  pwm_appl.o(.data)
    u16LasRpm                                0x20000042   Data           2  pwm_appl.o(.data)
    abnormalCounter                          0x20000044   Data           2  pwm_appl.o(.data)
    g_u32LowDutyOffCounter                   0x20000074   Data           4  pwm_appl.o(.data)
    g_u32HighDutyOffCounter                  0x20000078   Data           4  pwm_appl.o(.data)
    .data                                    0x2000007c   Section       22  motor_state_ctrl.o(.data)
    .data                                    0x20000094   Section        4  system.o(.data)
    .data                                    0x20000098   Section        4  systick.o(.data)
    g_fac_us                                 0x20000098   Data           4  systick.o(.data)
    .data                                    0x2000009c   Section        4  systick_isr.o(.data)
    .data                                    0x200000a0   Section        8  systick_isr.o(.data)
    .data                                    0x200000a8   Section      148  foc_paras.o(.data)
    .data                                    0x2000013c   Section       46  nvsns_foc.o(.data)
    ePrevPosModeSlowLoop                     0x2000013c   Data           1  nvsns_foc.o(.data)
    stateRunStatus                           0x2000013e   Data           1  nvsns_foc.o(.data)
    f16Current                               0x2000014c   Data           2  nvsns_foc.o(.data)
    f16Weight                                0x2000014e   Data           2  nvsns_foc.o(.data)
    u16SpeedRampCnt                          0x20000150   Data           2  nvsns_foc.o(.data)
    .data                                    0x2000016a   Section        2  lin_api_appl.o(.data)
    .data                                    0x20000170   Section        8  lin_api_appl.o(.data)
    .data                                    0x20000178   Section        8  lin_api_appl.o(.data)
    .data                                    0x20000180   Section        8  lin_api_appl.o(.data)
    .data                                    0x20000188   Section        8  lin_config.o(.data)
    g_linFrameDataBufferOf_ID02              0x20000188   Data           8  lin_config.o(.data)
    .data                                    0x20000190   Section        8  lin_config.o(.data)
    g_linFrameDataBufferOf_ID03              0x20000190   Data           8  lin_config.o(.data)
    .data                                    0x20000198   Section        8  lin_config.o(.data)
    g_linFrameDataBufferOf_ID48              0x20000198   Data           8  lin_config.o(.data)
    .data                                    0x200001a0   Section        8  lin_config.o(.data)
    g_linFrameDataBufferOf_ID58              0x200001a0   Data           8  lin_config.o(.data)
    .data                                    0x200001a8   Section        8  lin_config.o(.data)
    g_linFrameDataBufferOf_ID59              0x200001a8   Data           8  lin_config.o(.data)
    .data                                    0x200001b0   Section        9  lin_config.o(.data)
    .data                                    0x200001b9   Section        2  lin_config.o(.data)
    g_linFrameDataBufferOf_ID15              0x200001b9   Data           2  lin_config.o(.data)
    .data                                    0x200001bb   Section        2  lin_config.o(.data)
    g_linFrameDataBufferOf_ID16              0x200001bb   Data           2  lin_config.o(.data)
    .data                                    0x200001bd   Section        8  lin_config.o(.data)
    g_linFrameDataBufferOf_ID60              0x200001bd   Data           8  lin_config.o(.data)
    .data                                    0x200001c5   Section        8  lin_config.o(.data)
    g_linFrameDataBufferOf_ID61              0x200001c5   Data           8  lin_config.o(.data)
    .data                                    0x200001d0   Section       24  lin_identification_and_configuration.o(.data)
    g_sendingResponseForConfig               0x200001d0   Data           1  lin_identification_and_configuration.o(.data)
    g_saveNADRequest                         0x200001d2   Data           1  lin_identification_and_configuration.o(.data)
    g_savePIDRequest                         0x200001d3   Data           1  lin_identification_and_configuration.o(.data)
    g_bsmNodeState                           0x200001d4   Data           1  lin_identification_and_configuration.o(.data)
    g_bsmBit                                 0x200001d5   Data           1  lin_identification_and_configuration.o(.data)
    g_adcCfgStoreFlg                         0x200001d6   Data           1  lin_identification_and_configuration.o(.data)
    g_tpLayerNCrTimeout                      0x200001d8   Data           2  lin_identification_and_configuration.o(.data)
    shuntCurrent1                            0x200001da   Data           2  lin_identification_and_configuration.o(.data)
    shuntCurrent2                            0x200001dc   Data           2  lin_identification_and_configuration.o(.data)
    shuntCurrent3                            0x200001de   Data           2  lin_identification_and_configuration.o(.data)
    g_adcBaseAddr                            0x200001e0   Data           4  lin_identification_and_configuration.o(.data)
    g_adcIENBuf                              0x200001e4   Data           4  lin_identification_and_configuration.o(.data)
    .data                                    0x200001e8   Section        8  lin_init.o(.data)
    .data                                    0x200001f0   Section      108  fault_diagnose.o(.data)
    u8ShortCnt                               0x200001f0   Data           1  fault_diagnose.o(.data)
    u8OpenCnt                                0x200001f1   Data           1  fault_diagnose.o(.data)
    firstRun                                 0x200001f2   Data           1  fault_diagnose.o(.data)
    i16VdcAft                                0x200001fe   Data           2  fault_diagnose.o(.data)
    setCnt                                   0x20000200   Data           2  fault_diagnose.o(.data)
    clearCnt                                 0x20000202   Data           2  fault_diagnose.o(.data)
    i16VdcAft                                0x20000204   Data           2  fault_diagnose.o(.data)
    setCnt                                   0x20000206   Data           2  fault_diagnose.o(.data)
    clearCnt                                 0x20000208   Data           2  fault_diagnose.o(.data)
    i16OtCnt                                 0x2000020a   Data           2  fault_diagnose.o(.data)
    i16OtRecCnt                              0x2000020c   Data           2  fault_diagnose.o(.data)
    delayCnt                                 0x2000020e   Data           2  fault_diagnose.o(.data)
    hwOcpTimes                               0x20000210   Data           2  fault_diagnose.o(.data)
    ocpLimitCnt                              0x20000212   Data           2  fault_diagnose.o(.data)
    hwOcp                                    0x20000214   Data           2  fault_diagnose.o(.data)
    checkCnt                                 0x20000216   Data           2  fault_diagnose.o(.data)
    delayCnt                                 0x20000218   Data           2  fault_diagnose.o(.data)
    shortCircuitTimes                        0x2000021a   Data           2  fault_diagnose.o(.data)
    resetTimeCnt                             0x2000021c   Data           2  fault_diagnose.o(.data)
    hwShortCircuit                           0x2000021e   Data           2  fault_diagnose.o(.data)
    checkCnt                                 0x20000220   Data           2  fault_diagnose.o(.data)
    stallRecoverTimer                        0x20000222   Data           2  fault_diagnose.o(.data)
    stallPre                                 0x20000224   Data           2  fault_diagnose.o(.data)
    prevTheta                                0x20000226   Data           2  fault_diagnose.o(.data)
    thetaDiff                                0x20000228   Data           2  fault_diagnose.o(.data)
    unbalanceCnt                             0x20000250   Data           4  fault_diagnose.o(.data)
    clrCnt                                   0x20000254   Data           4  fault_diagnose.o(.data)
    .data                                    0x2000025c   Section       12  mm_lib.o(.data)
    .data                                    0x20000268   Section        2  amc_lib.o(.data)
    .data                                    0x2000026a   Section        2  windmilling.o(.data)
    .data                                    0x2000026c   Section       10  smart_align.o(.data)
    .data                                    0x20000278   Section       13  lin_api.o(.data)
    .data                                    0x20000288   Section       16  curr_sample_1rps_aiwin.o(.data)
    cnt                                      0x2000028c   Data           2  curr_sample_1rps_aiwin.o(.data)
    .data                                    0x20000298   Section       10  dq_dual_space_switch.o(.data)
    s_f16IdIFend                             0x20000298   Data           2  dq_dual_space_switch.o(.data)
    s_f16IdBlendAlpha                        0x2000029a   Data           2  dq_dual_space_switch.o(.data)
    s_f16IdBlendStep                         0x2000029c   Data           2  dq_dual_space_switch.o(.data)
    .data                                    0x200002a4   Section        4  transform.o(.data)
    .data                                    0x200002a8   Section       44  qpr_fixed.o(.data)
    s_qpr_inited                             0x200002a9   Data           1  qpr_fixed.o(.data)
    s_Kr_shadow                              0x200002b4   Data           2  qpr_fixed.o(.data)
    s_alpha_shadow                           0x200002b6   Data           2  qpr_fixed.o(.data)
    s_ylim_shadow                            0x200002b8   Data           2  qpr_fixed.o(.data)
    s_inc_w0                                 0x200002ba   Data           2  qpr_fixed.o(.data)
    s_inc_3w0                                0x200002bc   Data           2  qpr_fixed.o(.data)
    s_ang1                                   0x200002be   Data           2  qpr_fixed.o(.data)
    s_ang3                                   0x200002c0   Data           2  qpr_fixed.o(.data)
    s_f0_mhz_shadow                          0x200002c8   Data           4  qpr_fixed.o(.data)
    s_wc_mhz                                 0x200002cc   Data           4  qpr_fixed.o(.data)
    s_call_count                             0x200002d0   Data           4  qpr_fixed.o(.data)
    .bss                                     0x200002d4   Section       48  derating_control.o(.bss)
    .bss                                     0x20000304   Section     1076  nvsns_foc.o(.bss)
    g_qpr_speed                              0x200006c8   Data          28  nvsns_foc.o(.bss)
    g_qpr3_speed                             0x200006e4   Data          28  nvsns_foc.o(.bss)
    g_qpr_iq                                 0x20000700   Data          28  nvsns_foc.o(.bss)
    g_qpr_id                                 0x2000071c   Data          28  nvsns_foc.o(.bss)
    .bss                                     0x20000738   Section        9  lin_config.o(.bss)
    .bss                                     0x20000744   Section       52  lin_identification_and_configuration.o(.bss)
    g_adcRegBuf                              0x20000744   Data          52  lin_identification_and_configuration.o(.bss)
    .bss                                     0x20000778   Section      128  lin_nvr.o(.bss)
    .bss                                     0x200007f8   Section       24  fault_init.o(.bss)
    .bss                                     0x20000810   Section      112  curr_sample_1rps.o(.bss)
    .bss                                     0x20000880   Section       28  deadtime_comp.o(.bss)
    .bss                                     0x2000089c   Section       10  lin_api.o(.bss)
    .bss                                     0x200008a6   Section       22  curr_sample_1rps_aiwin.o(.bss)
    .bss                                     0x200008bc   Section      344  hfi_lib.o(.bss)
    .bss                                     0x20000a14   Section      192  motor_param_id.o(.bss)
    .bss                                     0x20000ad4   Section       28  qpr_fixed.o(.bss)
    s_qpr_test                               0x20000ad4   Data          28  qpr_fixed.o(.bss)
    .bss                                     0x20000af0   Section       84  stalldetection.o(.bss)
    STACK                                    0x20000b48   Section     1024  startup_nsuc1602.o(STACK)

    Global Symbols

    Symbol Name                              Value     Ov Type        Size  Object(Section)

    BuildAttributes$$THM_ISAv4$P$D$K$B$S$PE$A:L22UL41UL21$X:L11$S22US41US21$IEEE1$IW$USESV6$~STKCKD$USESV7$~SHL$OTIME$ROPI$EBA8$MICROLIB$REQ8$EABIv2 0x00000000   Number         0  anon$$obj.o ABSOLUTE
    __ARM_use_no_argv                        0x00000000   Number         0  main.o ABSOLUTE
    __cpp_initialize__aeabi_                  - Undefined Weak Reference
    __cxa_finalize                            - Undefined Weak Reference
    _clock_init                               - Undefined Weak Reference
    _microlib_exit                            - Undefined Weak Reference
    __Vectors_Size                           0x00000084   Number         0  startup_nsuc1602.o ABSOLUTE
    __Vectors                                0x08000000   Data           4  startup_nsuc1602.o(RESET)
    __Vectors_End                            0x08000084   Data           0  startup_nsuc1602.o(RESET)
    __main                                   0x08000085   Thumb Code     0  entry.o(.ARM.Collect$$$$00000000)
    _main_stk                                0x08000085   Thumb Code     0  entry2.o(.ARM.Collect$$$$00000001)
    _main_scatterload                        0x08000089   Thumb Code     0  entry5.o(.ARM.Collect$$$$00000004)
    __main_after_scatterload                 0x0800008d   Thumb Code     0  entry5.o(.ARM.Collect$$$$00000004)
    _main_clock                              0x0800008d   Thumb Code     0  entry7b.o(.ARM.Collect$$$$00000008)
    _main_cpp_init                           0x0800008d   Thumb Code     0  entry8b.o(.ARM.Collect$$$$0000000A)
    _main_init                               0x0800008d   Thumb Code     0  entry9a.o(.ARM.Collect$$$$0000000B)
    __rt_final_cpp                           0x08000095   Thumb Code     0  entry10a.o(.ARM.Collect$$$$0000000D)
    __rt_final_exit                          0x08000095   Thumb Code     0  entry11a.o(.ARM.Collect$$$$0000000F)
    GCF_CtrlPIrAW_F16                        0x08000099   Thumb Code   142  gcf_lib.o(.emb_text)
    GCF_CtrlPIpAW_F16                        0x08000127   Thumb Code   246  gcf_lib.o(.emb_text)
    GCF_IntegratorTR_F16                     0x0800021d   Thumb Code    36  gcf_lib.o(.emb_text)
    GCF_LpFilterMA_F16                       0x08000241   Thumb Code    58  gcf_lib.o(.emb_text)
    GMC_Svm                                  0x0800027d   Thumb Code   198  gmc_lib.o(.emb_text)
    GMC_ClarkeF16                            0x08000343   Thumb Code    38  gmc_lib.o(.emb_text)
    GMC_ParkeF16                             0x08000369   Thumb Code   128  gmc_lib.o(.emb_text)
    GMC_InvParkF16                           0x080003e9   Thumb Code    76  gmc_lib.o(.emb_text)
    GMC_DcBusCompF16                         0x08000435   Thumb Code   106  gmc_lib.o(.emb_text)
    MM_SatDivF16                             0x080004a1   Thumb Code    72  mm_lib.o(.emb_text)
    MM_DivF16                                0x080004e9   Thumb Code    38  mm_lib.o(.emb_text)
    AMC_PMSMBemfObsvrDQ_F16                  0x08000511   Thumb Code   442  amc_lib.o(.emb_text)
    Reset_Handler                            0x080006cd   Thumb Code     8  startup_nsuc1602.o(.text)
    NMI_Handler                              0x080006d5   Thumb Code     8  startup_nsuc1602.o(.text)
    HardFault_Handler                        0x080006dd   Thumb Code     8  startup_nsuc1602.o(.text)
    MemManage_Handler                        0x080006e5   Thumb Code     8  startup_nsuc1602.o(.text)
    BusFault_Handler                         0x080006ed   Thumb Code     8  startup_nsuc1602.o(.text)
    UsageFault_Handler                       0x080006f5   Thumb Code     8  startup_nsuc1602.o(.text)
    SVC_Handler                              0x080006fd   Thumb Code     8  startup_nsuc1602.o(.text)
    DebugMon_Handler                         0x08000705   Thumb Code     8  startup_nsuc1602.o(.text)
    PendSV_Handler                           0x0800070d   Thumb Code     8  startup_nsuc1602.o(.text)
    SysTick_Handler                          0x08000715   Thumb Code     8  startup_nsuc1602.o(.text)
    DWDG_IRQHandler                          0x0800071d   Thumb Code     0  startup_nsuc1602.o(.text)
    GPIO_IRQHandler                          0x0800071d   Thumb Code     0  startup_nsuc1602.o(.text)
    RFI_IRQHandler                           0x0800071d   Thumb Code     0  startup_nsuc1602.o(.text)
    SPI_IRQHandler                           0x0800071d   Thumb Code     0  startup_nsuc1602.o(.text)
    TIM0_IRQHandler                          0x0800071d   Thumb Code     0  startup_nsuc1602.o(.text)
    TIM1_IRQHandler                          0x0800071d   Thumb Code     0  startup_nsuc1602.o(.text)
    UART1_IRQHandler                         0x0800071d   Thumb Code     0  startup_nsuc1602.o(.text)
    WWDG_IRQHandler                          0x0800071d   Thumb Code     0  startup_nsuc1602.o(.text)
    __aeabi_uldivmod                         0x08000729   Thumb Code    98  uldiv.o(.text)
    __aeabi_llsl                             0x0800078b   Thumb Code    30  llshl.o(.text)
    _ll_shift_l                              0x0800078b   Thumb Code     0  llshl.o(.text)
    __aeabi_lasr                             0x080007a9   Thumb Code    36  llsshr.o(.text)
    _ll_sshift_r                             0x080007a9   Thumb Code     0  llsshr.o(.text)
    __aeabi_memcpy                           0x080007cd   Thumb Code    36  memcpya.o(.text)
    __aeabi_memcpy4                          0x080007cd   Thumb Code     0  memcpya.o(.text)
    __aeabi_memcpy8                          0x080007cd   Thumb Code     0  memcpya.o(.text)
    __aeabi_memset                           0x080007f1   Thumb Code    14  memseta.o(.text)
    __aeabi_memset4                          0x080007f1   Thumb Code     0  memseta.o(.text)
    __aeabi_memset8                          0x080007f1   Thumb Code     0  memseta.o(.text)
    __aeabi_memclr                           0x080007ff   Thumb Code     4  memseta.o(.text)
    __aeabi_memclr4                          0x080007ff   Thumb Code     0  memseta.o(.text)
    __aeabi_memclr8                          0x080007ff   Thumb Code     0  memseta.o(.text)
    _memset$wrapper                          0x08000803   Thumb Code    18  memseta.o(.text)
    __aeabi_fmul                             0x08000815   Thumb Code   100  fmul.o(.text)
    __aeabi_fdiv                             0x08000879   Thumb Code   124  fdiv.o(.text)
    __ARM_scalbnf                            0x080008f5   Thumb Code    24  fscalb.o(.text)
    scalbnf                                  0x080008f5   Thumb Code     0  fscalb.o(.text)
    __aeabi_dadd                             0x0800090d   Thumb Code   322  dadd.o(.text)
    __aeabi_dsub                             0x08000a4f   Thumb Code     6  dadd.o(.text)
    __aeabi_drsub                            0x08000a55   Thumb Code     6  dadd.o(.text)
    __aeabi_dmul                             0x08000a5b   Thumb Code   228  dmul.o(.text)
    __aeabi_ddiv                             0x08000b3f   Thumb Code   222  ddiv.o(.text)
    __ARM_scalbn                             0x08000c1d   Thumb Code    46  dscalb.o(.text)
    scalbn                                   0x08000c1d   Thumb Code     0  dscalb.o(.text)
    __aeabi_i2f                              0x08000c4b   Thumb Code    18  fflti.o(.text)
    __aeabi_f2iz                             0x08000c5d   Thumb Code    50  ffixi.o(.text)
    __aeabi_f2uiz                            0x08000c8f   Thumb Code    40  ffixui.o(.text)
    __aeabi_d2iz                             0x08000cb7   Thumb Code    62  dfixi.o(.text)
    __aeabi_f2d                              0x08000cf5   Thumb Code    38  f2d.o(.text)
    __aeabi_cdcmpeq                          0x08000d1d   Thumb Code     0  cdcmple.o(.text)
    __aeabi_cdcmple                          0x08000d1d   Thumb Code    48  cdcmple.o(.text)
    __aeabi_cdrcmple                         0x08000d4d   Thumb Code    48  cdrcmple.o(.text)
    __aeabi_d2f                              0x08000d7d   Thumb Code    56  d2f.o(.text)
    __aeabi_cfcmpeq                          0x08000db5   Thumb Code     0  cfcmple.o(.text)
    __aeabi_cfcmple                          0x08000db5   Thumb Code    20  cfcmple.o(.text)
    __aeabi_llsr                             0x08000dc9   Thumb Code    32  llushr.o(.text)
    _ll_ushift_r                             0x08000dc9   Thumb Code     0  llushr.o(.text)
    __I$use$fp                               0x08000de9   Thumb Code     0  iusefp.o(.text)
    _float_round                             0x08000de9   Thumb Code    18  fepilogue.o(.text)
    _float_epilogue                          0x08000dfb   Thumb Code    92  fepilogue.o(.text)
    _double_round                            0x08000e57   Thumb Code    30  depilogue.o(.text)
    _double_epilogue                         0x08000e75   Thumb Code   156  depilogue.o(.text)
    __scatterload                            0x08000f11   Thumb Code    28  init.o(.text)
    __scatterload_rt2                        0x08000f11   Thumb Code     0  init.o(.text)
    __decompress                             0x08000f35   Thumb Code     0  __dczerorl.o(.text)
    __decompress0                            0x08000f35   Thumb Code    58  __dczerorl.o(.text)
    ADC_IRQHandler                           0x08000f71   Thumb Code    14  nvsns_foc.o(i.ADC_IRQHandler)
    AMC_FWInit_F16                           0x08000f85   Thumb Code    48  mtr_adv_init.o(i.AMC_FWInit_F16)
    AMC_InitObsrv_F16                        0x08000fb5   Thumb Code    28  amc_lib.o(i.AMC_InitObsrv_F16)
    AMC_TrackObsrv_F16                       0x08000fd1   Thumb Code    50  amc_lib.o(i.AMC_TrackObsrv_F16)
    AlarmCheck10msTask                       0x08001009   Thumb Code    14  fault_diagnose.o(i.AlarmCheck10msTask)
    AlarmCheck1msTask                        0x08001017   Thumb Code     2  fault_diagnose.o(i.AlarmCheck1msTask)
    AutomaticMode                            0x08001019   Thumb Code   138  nvsns_foc.o(i.AutomaticMode)
    BSM_GetBSMNodeStatus                     0x080011e9   Thumb Code     6  lin_identification_and_configuration.o(i.BSM_GetBSMNodeStatus)
    BSM_ResetInFrameEnd                      0x080012ed   Thumb Code    32  lin_identification_and_configuration.o(i.BSM_ResetInFrameEnd)
    BrakeOutput                              0x08001355   Thumb Code    38  nvsns_foc.o(i.BrakeOutput)
    BusFaultHandler                          0x08001385   Thumb Code     2  handler.o(i.BusFaultHandler)
    CHP_IRQHandler                           0x08001395   Thumb Code    50  fault_handler.o(i.CHP_IRQHandler)
    CalcIgbtTemp                             0x080013d1   Thumb Code    36  ntcdrive.o(i.CalcIgbtTemp)
    CalcOpenLoop                             0x080013fd   Thumb Code    20  nvsns_foc.o(i.CalcOpenLoop)
    CalcSensorTemp                           0x08001411   Thumb Code   120  ntcdrive.o(i.CalcSensorTemp)
    CalculateCheckSum                        0x08001489   Thumb Code    64  lin_init.o(i.CalculateCheckSum)
    ChangeAdcQ5ToBEMF                        0x080014cd   Thumb Code    24  nvsns_foc.o(i.ChangeAdcQ5ToBEMF)
    ChangeAdcQ5ToIbus                        0x080014ed   Thumb Code    24  nvsns_foc.o(i.ChangeAdcQ5ToIbus)
    CheckHardwareOcp                         0x0800150d   Thumb Code    98  fault_diagnose.o(i.CheckHardwareOcp)
    CheckHardwareShortCircuit                0x08001575   Thumb Code   144  fault_diagnose.o(i.CheckHardwareShortCircuit)
    CheckSleepStatus                         0x08001609   Thumb Code     2  sleep_control.o(i.CheckSleepStatus)
    DQ_DualSpaceBlendReset                   0x0800160d   Thumb Code    12  dq_dual_space_switch.o(i.DQ_DualSpaceBlendReset)
    DQ_DualSpaceSetBlendStep                 0x0800161d   Thumb Code     6  dq_dual_space_switch.o(i.DQ_DualSpaceSetBlendStep)
    DeadTimeCompensationInit                 0x08001629   Thumb Code    28  deadtime_comp.o(i.DeadTimeCompensationInit)
    DebugMonHandler                          0x0800167d   Thumb Code     2  handler.o(i.DebugMonHandler)
    Derating_Apply                           0x0800167f   Thumb Code    42  derating_control.o(i.Derating_Apply)
    Derating_ConvertRpmToFrac16              0x080016a9   Thumb Code    58  derating_control.o(i.Derating_ConvertRpmToFrac16)
    Derating_GetMaxAllowedRpm                0x080016e3   Thumb Code    22  derating_control.o(i.Derating_GetMaxAllowedRpm)
    Derating_Init                            0x080016f9   Thumb Code    50  derating_control.o(i.Derating_Init)
    DisableOutput                            0x0800172d   Thumb Code    36  nvsns_foc.o(i.DisableOutput)
    EPWM_IRQHandler                          0x08001759   Thumb Code   466  nvsns_foc.o(i.EPWM_IRQHandler)
    EnableOutput                             0x08001955   Thumb Code    38  nvsns_foc.o(i.EnableOutput)
    FAULT_Init                               0x08001989   Thumb Code   178  fault_init.o(i.FAULT_Init)
    FLASH_IRQHandler                         0x08001a49   Thumb Code     2  handler.o(i.FLASH_IRQHandler)
    FOC_1MSTASK                              0x08001a4d   Thumb Code    44  nvsns_foc.o(i.FOC_1MSTASK)
    FOC_AdcInit                              0x08001a7d   Thumb Code   372  foc_init.o(i.FOC_AdcInit)
    FOC_EpwmInit                             0x08001bfd   Thumb Code   244  foc_init.o(i.FOC_EpwmInit)
    FOC_GduInit                              0x08001cf9   Thumb Code   528  foc_init.o(i.FOC_GduInit)
    FeedDWDG                                 0x08001f11   Thumb Code    14  lin_appl.o(i.FeedDWDG)
    GCF_IntegratorTR_F16_AIWIN               0x08002209   Thumb Code    36  transform.o(i.GCF_IntegratorTR_F16_AIWIN)
    GCF_PositionalPI_F16                     0x0800222d   Thumb Code   248  pi.o(i.GCF_PositionalPI_F16)
    GCF_Ramp_F16                             0x08002325   Thumb Code    40  gcf_lib.o(i.GCF_Ramp_F16)
    GDU_IRQHandler                           0x0800234d   Thumb Code    44  fault_handler.o(i.GDU_IRQHandler)
    GotoSleep                                0x0800237d   Thumb Code    22  lin_init.o(i.GotoSleep)
    HFI_CalculateInductanceValues            0x08002399   Thumb Code   138  hfi_lib.o(i.HFI_CalculateInductanceValues)
    HardFaultHandler                         0x0800243d   Thumb Code     2  handler.o(i.HardFaultHandler)
    IQ_HPFilterInit                          0x0800243f   Thumb Code    18  iq_filter.o(i.IQ_HPFilterInit)
    IQ_LPFilterCalc                          0x08002451   Thumb Code   200  iq_filter.o(i.IQ_LPFilterCalc)
    IQ_LPFilterInit                          0x0800251d   Thumb Code    12  iq_filter.o(i.IQ_LPFilterInit)
    IQ_LPFilterParaCalc                      0x08002529   Thumb Code   172  iq_filter.o(i.IQ_LPFilterParaCalc)
    IQ_LPFilterSetCutoffHz                   0x080025e5   Thumb Code    66  iq_filter.o(i.IQ_LPFilterSetCutoffHz)
    InitFocParas                             0x0800262d   Thumb Code  1152  nvsns_foc.o(i.InitFocParas)
    InitFreqToAngleIncrement                 0x08002aad   Thumb Code    50  transform.o(i.InitFreqToAngleIncrement)
    InitMotorConfig                          0x08002ae9   Thumb Code   118  nvsns_foc.o(i.InitMotorConfig)
    LINPORT_IRQHandler                       0x08002bb1   Thumb Code    74  lin_identification_and_configuration.o(i.LINPORT_IRQHandler)
    LINUART_Enable                           0x08002c05   Thumb Code    12  lin_init.o(i.LINUART_Enable)
    LINUART_IRQHandler                       0x08002c15   Thumb Code   148  lin_init.o(i.LINUART_IRQHandler)
    LINUART_Init                             0x08002cc5   Thumb Code   172  lin_init.o(i.LINUART_Init)
    LINUART_ReceiveDataByFIFO                0x08002d81   Thumb Code    54  lin_init.o(i.LINUART_ReceiveDataByFIFO)
    LINUART_TransmitDataByFIFO               0x08002dc5   Thumb Code    88  lin_init.o(i.LINUART_TransmitDataByFIFO)
    LIN_CheckPID                             0x08002ef9   Thumb Code    64  lin_api.o(i.LIN_CheckPID)
    LIN_ClearResponseFlagForDiagnosisFrame   0x08002f39   Thumb Code     8  lin_identification_and_configuration.o(i.LIN_ClearResponseFlagForDiagnosisFrame)
    LIN_GetResponseFlagForDiagnosisFrame     0x0800302d   Thumb Code     6  lin_identification_and_configuration.o(i.LIN_GetResponseFlagForDiagnosisFrame)
    LIN_NodeConfigAndIndentifByDiagnosticFrame 0x08003039   Thumb Code    64  lin_identification_and_configuration.o(i.LIN_NodeConfigAndIndentifByDiagnosticFrame)
    LinApplMain                              0x0800323d   Thumb Code   304  lin_appl.o(i.LinApplMain)
    MM_AtanXYF16                             0x08003389   Thumb Code   112  mm_lib.o(i.MM_AtanXYF16)
    MM_QuartAtanF16                          0x080033fd   Thumb Code   106  mm_lib.o(i.MM_QuartAtanF16)
    MM_SqrtLut_F16                           0x08003471   Thumb Code    54  mm_lib.o(i.MM_SqrtLut_F16)
    MM_ThetaTransferTrigonoLut               0x080034ad   Thumb Code   138  mm_lib.o(i.MM_ThetaTransferTrigonoLut)
    MainTask                                 0x0800353d   Thumb Code    64  main.o(i.MainTask)
    MemManageHandler                         0x08003609   Thumb Code     2  handler.o(i.MemManageHandler)
    MotorStateCtrl                           0x0800360d   Thumb Code   212  motor_state_ctrl.o(i.MotorStateCtrl)
    MulQ15_By_IntmHz                         0x080036f5   Thumb Code    10  qpr_fixed.o(i.MulQ15_By_IntmHz)
    NMIHandler                               0x080036ff   Thumb Code     2  handler.o(i.NMIHandler)
    NotifyRxTxStatus                         0x08003739   Thumb Code   254  lin_api.o(i.NotifyRxTxStatus)
    PARAM_ID_Init                            0x08003855   Thumb Code    96  foclib_init.o(i.PARAM_ID_Init)
    PMU_IRQHandler                           0x080038b9   Thumb Code    72  fault_handler.o(i.PMU_IRQHandler)
    PWMIO_CheckTimeout                       0x08003909   Thumb Code    52  pwm_appl.o(i.PWMIO_CheckTimeout)
    PWMIO_ConfirmDutyCycle                   0x08003945   Thumb Code    46  pwm_appl.o(i.PWMIO_ConfirmDutyCycle)
    PWMIO_IRQHandler                         0x08003979   Thumb Code   158  pwm_appl.o(i.PWMIO_IRQHandler)
    PWMIO_Task10ms                           0x08003a25   Thumb Code    14  pwm_appl.o(i.PWMIO_Task10ms)
    PWMOUT_Set                               0x08003a35   Thumb Code    50  pwm_appl.o(i.PWMOUT_Set)
    PWMOUT_SetEnable                         0x08003a6d   Thumb Code    44  pwm_appl.o(i.PWMOUT_SetEnable)
    PendSVHandler                            0x08003a99   Thumb Code     2  handler.o(i.PendSVHandler)
    PowerEnableForward                       0x08003a9d   Thumb Code    20  lin_appl.o(i.PowerEnableForward)
    PowerEnableGPIO_Init                     0x08003ab5   Thumb Code   116  lin_appl.o(i.PowerEnableGPIO_Init)
    PowerEnableReverse                       0x08003b31   Thumb Code    20  lin_appl.o(i.PowerEnableReverse)
    PrepareToWakeup                          0x08003b49   Thumb Code     2  lin_init.o(i.PrepareToWakeup)
    QPR_FXP_TestLite_Step                    0x08003c01   Thumb Code   116  qpr_fixed.o(i.QPR_FXP_TestLite_Step)
    ReadNADFromNVR                           0x08003c7d   Thumb Code    26  lin_nvr.o(i.ReadNADFromNVR)
    ReadPIDFromNVR                           0x08003ca1   Thumb Code    56  lin_nvr.o(i.ReadPIDFromNVR)
    ResetLINResponseErrorForUser             0x08003cdd   Thumb Code    36  lin_init.o(i.ResetLINResponseErrorForUser)
    ResetProtocolState                       0x08003d11   Thumb Code    38  lin_init.o(i.ResetProtocolState)
    SVCHandler                               0x08003d45   Thumb Code     2  handler.o(i.SVCHandler)
    SetLINResponseError                      0x08003d49   Thumb Code    54  lin_api.o(i.SetLINResponseError)
    SetLINResponseErrorForUser               0x08003d91   Thumb Code    58  lin_init.o(i.SetLINResponseErrorForUser)
    SetPwmDutyAIWIN                          0x08003dd1   Thumb Code   490  nvsns_foc.o(i.SetPwmDutyAIWIN)
    SetRequestEnterBootloader                0x08003fc5   Thumb Code    78  lin_nvr.o(i.SetRequestEnterBootloader)
    SmartAlgnInit                            0x08004029   Thumb Code    14  smart_align.o(i.SmartAlgnInit)
    StateAlign                               0x0800403d   Thumb Code   328  nvsns_foc.o(i.StateAlign)
    StateCalib                               0x08004191   Thumb Code   130  nvsns_foc.o(i.StateCalib)
    StateFault                               0x0800421d   Thumb Code    60  nvsns_foc.o(i.StateFault)
    StateInit                                0x0800425d   Thumb Code    82  nvsns_foc.o(i.StateInit)
    StateReady                               0x080042b5   Thumb Code    12  nvsns_foc.o(i.StateReady)
    StateReset                               0x080042c5   Thumb Code    22  nvsns_foc.o(i.StateReset)
    StateRun                                 0x080042e1   Thumb Code   304  nvsns_foc.o(i.StateRun)
    SysTickHandler                           0x0800441d   Thumb Code    24  systick_isr.o(i.SysTickHandler)
    SysTick_Init                             0x08004439   Thumb Code    58  systick.o(i.SysTick_Init)
    SystemInit                               0x0800447d   Thumb Code     8  system.o(i.SystemInit)
    Task1000msProcess                        0x0800448d   Thumb Code    44  main.o(i.Task1000msProcess)
    Task100msProcess                         0x080044c5   Thumb Code     2  main.o(i.Task100msProcess)
    Task10msCanE2promProcess                 0x080044c7   Thumb Code     2  main.o(i.Task10msCanE2promProcess)
    Task10msProcess                          0x080044c9   Thumb Code    18  main.o(i.Task10msProcess)
    Task1msProcess                           0x080044dd   Thumb Code    44  main.o(i.Task1msProcess)
    Timer_GetFASTTime                        0x0800450d   Thumb Code    30  systick.o(i.Timer_GetFASTTime)
    Timer_Start                              0x08004531   Thumb Code    16  systick.o(i.Timer_Start)
    UpdateLinATCPFault                       0x08004545   Thumb Code    18  lin_appl.o(i.UpdateLinATCPFault)
    UpdateLinATCPStatus                      0x08004565   Thumb Code   142  lin_appl.o(i.UpdateLinATCPStatus)
    UsageFaultHandler                        0x08004609   Thumb Code     2  handler.o(i.UsageFaultHandler)
    WM_Init                                  0x0800460b   Thumb Code    34  mtr_adv_init.o(i.WM_Init)
    WM_WindDetection                         0x0800462d   Thumb Code   306  windmilling.o(i.WM_WindDetection)
    WrapAngleQ15                             0x08004769   Thumb Code    30  transform.o(i.WrapAngleQ15)
    WrapAngleSumQ15                          0x0800478d   Thumb Code     8  transform.o(i.WrapAngleSumQ15)
    __scatterload_copy                       0x080047e3   Thumb Code    14  handlers.o(i.__scatterload_copy)
    __scatterload_null                       0x080047f1   Thumb Code     2  handlers.o(i.__scatterload_null)
    __scatterload_zeroinit                   0x080047f3   Thumb Code    14  handlers.o(i.__scatterload_zeroinit)
    confirmComType                           0x08004801   Thumb Code     8  main.o(i.confirmComType)
    getCurrentMaxMin                         0x0800480d   Thumb Code   254  fault_diagnose.o(i.getCurrentMaxMin)
    l_atcp_struct_trans_data_buffer          0x08004919   Thumb Code    38  lin_api_appl.o(i.l_atcp_struct_trans_data_buffer)
    l_fault_trans_data_buffer                0x0800493f   Thumb Code    38  lin_api_appl.o(i.l_fault_trans_data_buffer)
    l_flg_set_update_flags                   0x08004965   Thumb Code    30  lin_api_appl.o(i.l_flg_set_update_flags)
    l_ifc_connect_MyLinIfc                   0x0800498d   Thumb Code    30  lin_api.o(i.l_ifc_connect_MyLinIfc)
    l_ifc_init_MyLinIfc                      0x080049b1   Thumb Code    14  lin_api.o(i.l_ifc_init_MyLinIfc)
    l_ifc_rx_MyLinIfc                        0x080049c5   Thumb Code   406  lin_api.o(i.l_ifc_rx_MyLinIfc)
    l_sys_init                               0x08004b85   Thumb Code    34  lin_init.o(i.l_sys_init)
    l_ver_trans_data_buffer                  0x08004bb5   Thumb Code    38  lin_api_appl.o(i.l_ver_trans_data_buffer)
    main                                     0x08004bfd   Thumb Code    28  main.o(i.main)
    motorInitCalculations                    0x08004c25   Thumb Code    82  motor_data_calc.o(i.motorInitCalculations)
    qprFxpInit                               0x08004c77   Thumb Code    72  qpr_fixed.o(i.qprFxpInit)
    qprFxpSetWcByAlphamhz                    0x08004cbf   Thumb Code    26  qpr_fixed.o(i.qprFxpSetWcByAlphamhz)
    qprFxpSetWcmHz                           0x08004cd9   Thumb Code    34  qpr_fixed.o(i.qprFxpSetWcmHz)
    qprFxpUpdate                             0x08004cfb   Thumb Code   186  qpr_fixed.o(i.qprFxpUpdate)
    stallDetectionInit                       0x08004f03   Thumb Code    78  foclib_init.o(i.stallDetectionInit)
    g_temp_derating_profile                  0x08004f50   Data          18  derating_control.o(.constdata)
    g_volt_derating_profile                  0x08004f62   Data           6  derating_control.o(.constdata)
    g_motor_derating_config                  0x08004f68   Data          16  derating_control.o(.constdata)
    Sensor1Table                             0x08004f78   Data         482  ntcdrive.o(.constdata)
    pStateFuncTable                          0x0800515c   Data         392  state_machine.o(.constdata)
    g_serialNumber                           0x080052e4   Data           4  lin_config.o(.constdata)
    g_productIdentifier                      0x080052e8   Data           6  lin_config.o(.constdata)
    g_nodeConfigFrameTable                   0x080052f0   Data          72  lin_config.o(.constdata)
    Region$$Table$$Base                      0x08005370   Number         0  anon$$obj.o(Region$$Table)
    Region$$Table$$Limit                     0x08005390   Number         0  anon$$obj.o(Region$$Table)
    g_sysTask                                0x20000000   Data          60  main.o(.data)
    g_u8pwmOffineFlag                        0x20000040   Data           1  pwm_appl.o(.data)
    g_PWM_CFM_State_t                        0x20000046   Data           2  pwm_appl.o(.data)
    g_u32OverflowCnt                         0x20000048   Data           4  pwm_appl.o(.data)
    g_u32HighLevelCnt                        0x2000004c   Data           4  pwm_appl.o(.data)
    g_u32HighLevelTime                       0x20000050   Data           4  pwm_appl.o(.data)
    g_u32LowLevelCnt                         0x20000054   Data           4  pwm_appl.o(.data)
    g_u32LowLevelTime                        0x20000058   Data           4  pwm_appl.o(.data)
    g_u32DutyCycle                           0x2000005c   Data           4  pwm_appl.o(.data)
    g_u32PeriodTime                          0x20000060   Data           4  pwm_appl.o(.data)
    g_u32DutyCycleConfirmCnt                 0x20000064   Data           4  pwm_appl.o(.data)
    g_u32LastDutyCycle                       0x20000068   Data           4  pwm_appl.o(.data)
    g_u32DutyCycleConfirm                    0x2000006c   Data           4  pwm_appl.o(.data)
    g_u32LastEdgeTime                        0x20000070   Data           4  pwm_appl.o(.data)
    g_u8ComType                              0x2000007c   Data           1  motor_state_ctrl.o(.data)
    f16CmdTagSpeed                           0x2000007e   Data           2  motor_state_ctrl.o(.data)
    f16PhaseCurrentRms                       0x20000080   Data           6  motor_state_ctrl.o(.data)
    f16PhaseCurrentMaxFilter                 0x20000086   Data           6  motor_state_ctrl.o(.data)
    f16PhaseCurrentMax                       0x2000008c   Data           6  motor_state_ctrl.o(.data)
    SystemCoreClock                          0x20000094   Data           4  system.o(.data)
    g_epochSecond                            0x2000009c   Data           4  systick_isr.o(.data)
    g_tickCnt                                0x200000a0   Data           2  systick_isr.o(.data)
    g_systick_overflows                      0x200000a4   Data           4  systick_isr.o(.data)
    tFocParas                                0x200000a8   Data         148  foc_paras.o(.data)
    u8EnableOut                              0x2000013d   Data           1  nvsns_foc.o(.data)
    PWMPeriod                                0x20000140   Data           2  nvsns_foc.o(.data)
    f16IQFiltered                            0x20000142   Data           2  nvsns_foc.o(.data)
    f16ThetaErr                              0x20000144   Data           2  nvsns_foc.o(.data)
    f16IqReq                                 0x20000146   Data           2  nvsns_foc.o(.data)
    f16IqReq_                                0x20000148   Data           2  nvsns_foc.o(.data)
    f16AccelFeedforward                      0x2000014a   Data           2  nvsns_foc.o(.data)
    f_mech                                   0x20000152   Data           2  nvsns_foc.o(.data)
    OL_SpeedRampInc                          0x20000154   Data           4  nvsns_foc.o(.data)
    CL_SpeedRampInc                          0x20000158   Data           4  nvsns_foc.o(.data)
    CL_SpeedRampDec                          0x2000015c   Data           4  nvsns_foc.o(.data)
    fasttime                                 0x20000160   Data           4  nvsns_foc.o(.data)
    tIabcFbckMVM                             0x20000164   Data           6  nvsns_foc.o(.data)
    g_updateCtrlCmd                          0x2000016a   Data           1  lin_api_appl.o(.data)
    g_confirmComTypeCmdUpdate                0x2000016b   Data           1  lin_api_appl.o(.data)
    g_tATCPVersion                           0x20000170   Data           8  lin_api_appl.o(.data)
    g_tATCPState                             0x20000178   Data           8  lin_api_appl.o(.data)
    g_tATCPFault                             0x20000180   Data           8  lin_api_appl.o(.data)
    g_nodeFramePIDTable                      0x200001b0   Data           9  lin_config.o(.data)
    g_nad                                    0x200001d1   Data           1  lin_identification_and_configuration.o(.data)
    g_busIdleTimeoutCounter                  0x200001e8   Data           2  lin_init.o(.data)
    g_allLinError                            0x200001ec   Data           4  lin_init.o(.data)
    g_stallTimes                             0x200001f4   Data           2  fault_diagnose.o(.data)
    g_stallLockTimes                         0x200001f6   Data           2  fault_diagnose.o(.data)
    unbalanceU                               0x200001f8   Data           2  fault_diagnose.o(.data)
    unbalanceV                               0x200001fa   Data           2  fault_diagnose.o(.data)
    unbalanceW                               0x200001fc   Data           2  fault_diagnose.o(.data)
    currentU                                 0x2000022a   Data           2  fault_diagnose.o(.data)
    currentV                                 0x2000022c   Data           2  fault_diagnose.o(.data)
    currentW                                 0x2000022e   Data           2  fault_diagnose.o(.data)
    currentU_Max                             0x20000230   Data           2  fault_diagnose.o(.data)
    currentV_Max                             0x20000232   Data           2  fault_diagnose.o(.data)
    currentW_Max                             0x20000234   Data           2  fault_diagnose.o(.data)
    currentU_Min                             0x20000236   Data           2  fault_diagnose.o(.data)
    currentV_Min                             0x20000238   Data           2  fault_diagnose.o(.data)
    currentW_Min                             0x2000023a   Data           2  fault_diagnose.o(.data)
    stallTimeOut                             0x2000023c   Data           4  fault_diagnose.o(.data)
    stallLockTimeOut                         0x20000240   Data           4  fault_diagnose.o(.data)
    multiStallClrCnt                         0x20000244   Data           4  fault_diagnose.o(.data)
    currAbsSum                               0x20000248   Data           4  fault_diagnose.o(.data)
    lackCnt                                  0x2000024c   Data           4  fault_diagnose.o(.data)
    tFaultMode                               0x20000258   Data           4  fault_diagnose.o(.data)
    pu16SqrtTbl                              0x2000025c   Data           4  mm_lib.o(.data)
    ValSinTab_1                              0x20000260   Data           4  mm_lib.o(.data)
    ValAtanTab                               0x20000264   Data           4  mm_lib.o(.data)
    f16TestSpeed                             0x20000268   Data           2  amc_lib.o(.data)
    f16Speed                                 0x2000026a   Data           2  windmilling.o(.data)
    u16AlignCnt                              0x2000026c   Data           2  smart_align.o(.data)
    tLastUAlBe                               0x2000026e   Data           4  smart_align.o(.data)
    tUAlBeErr                                0x20000272   Data           4  smart_align.o(.data)
    g_myLinStatus                            0x20000278   Data           3  lin_api.o(.data)
    g_MyLinIfcStatus                         0x2000027c   Data           2  lin_api.o(.data)
    g_nowFrameExpectedByte                   0x2000027e   Data           1  lin_api.o(.data)
    g_currentFramePointer                    0x20000280   Data           4  lin_api.o(.data)
    g_frameErr                               0x20000284   Data           1  lin_api.o(.data)
    g_u8MeasureVectorFlag                    0x20000288   Data           1  curr_sample_1rps_aiwin.o(.data)
    TR2cnt                                   0x2000028a   Data           2  curr_sample_1rps_aiwin.o(.data)
    IuCalc                                   0x2000028e   Data           2  curr_sample_1rps_aiwin.o(.data)
    IvCalc                                   0x20000290   Data           2  curr_sample_1rps_aiwin.o(.data)
    IwCalc                                   0x20000292   Data           2  curr_sample_1rps_aiwin.o(.data)
    MVMPWMPeriod                             0x20000294   Data           4  curr_sample_1rps_aiwin.o(.data)
    s_f16IdIQend                             0x2000029e   Data           2  dq_dual_space_switch.o(.data)
    Te_old                                   0x200002a0   Data           2  dq_dual_space_switch.o(.data)
    g_i32AngleIncrement                      0x200002a4   Data           4  transform.o(.data)
    g_qpr_test_enable                        0x200002a8   Data           1  qpr_fixed.o(.data)
    g_qpr_test_Kr_q15                        0x200002aa   Data           2  qpr_fixed.o(.data)
    g_qpr_test_alpha_q15                     0x200002ac   Data           2  qpr_fixed.o(.data)
    g_qpr_test_y_limit_q15                   0x200002ae   Data           2  qpr_fixed.o(.data)
    g_qpr_test_e_q15                         0x200002b0   Data           2  qpr_fixed.o(.data)
    g_qpr_test_y_q15                         0x200002b2   Data           2  qpr_fixed.o(.data)
    g_qpr_test_f0_mhz                        0x200002c4   Data           4  qpr_fixed.o(.data)
    g_derating_controller                    0x200002d4   Data          48  derating_control.o(.bss)
    spwmVM                                   0x20000304   Data          48  nvsns_foc.o(.bss)
    tDrvFoc                                  0x20000334   Data         656  nvsns_foc.o(.bss)
    tMotorCalculations                       0x200005c4   Data         164  nvsns_foc.o(.bss)
    g_tIqFbackLpFilter                       0x20000668   Data          28  nvsns_foc.o(.bss)
    g_tIdFbackLpFilter                       0x20000684   Data          28  nvsns_foc.o(.bss)
    g_tEdampHpFilter                         0x200006a0   Data          40  nvsns_foc.o(.bss)
    g_eventTable                             0x20000738   Data           9  lin_config.o(.bss)
    g_NVRProgramDatabuffer                   0x20000778   Data         128  lin_nvr.o(.bss)
    tFaultCfg                                0x200007f8   Data          24  fault_init.o(.bss)
    tCurrSample1rps                          0x20000810   Data         112  curr_sample_1rps.o(.bss)
    tDeadTimeComp                            0x20000880   Data          28  deadtime_comp.o(.bss)
    g_dataBuffTmp                            0x2000089c   Data          10  lin_api.o(.bss)
    tCurrAuxInfo                             0x200008a6   Data          22  curr_sample_1rps_aiwin.o(.bss)
    tHfiCtrl                                 0x200008bc   Data         344  hfi_lib.o(.bss)
    tMotorParamId                            0x20000a14   Data         192  motor_param_id.o(.bss)
    tStallDetection                          0x20000af0   Data          84  stalldetection.o(.bss)
    __initial_sp                             0x20000f48   Data           0  startup_nsuc1602.o(STACK)



==============================================================================

Memory Map of the image

  Image Entry point : 0x080006cd

  Load Region LR_IROM1 (Base: 0x08000000, Size: 0x00005664, Max: 0x00010000, ABSOLUTE, COMPRESSED[0x0000549c])

    Execution Region ER_IROM1 (Exec base: 0x08000000, Load base: 0x08000000, Size: 0x00005390, Max: 0x00010000, ABSOLUTE)

    Exec Addr    Load Addr    Size         Type   Attr      Idx    E Section Name        Object

    0x08000000   0x08000000   0x00000084   Data   RO            3    RESET               startup_nsuc1602.o
    0x08000084   0x08000084   0x00000000   Code   RO         4304  * .ARM.Collect$$$$00000000  mc_w.l(entry.o)
    0x08000084   0x08000084   0x00000004   Code   RO         4357    .ARM.Collect$$$$00000001  mc_w.l(entry2.o)
    0x08000088   0x08000088   0x00000004   Code   RO         4360    .ARM.Collect$$$$00000004  mc_w.l(entry5.o)
    0x0800008c   0x0800008c   0x00000000   Code   RO         4362    .ARM.Collect$$$$00000008  mc_w.l(entry7b.o)
    0x0800008c   0x0800008c   0x00000000   Code   RO         4364    .ARM.Collect$$$$0000000A  mc_w.l(entry8b.o)
    0x0800008c   0x0800008c   0x00000008   Code   RO         4365    .ARM.Collect$$$$0000000B  mc_w.l(entry9a.o)
    0x08000094   0x08000094   0x00000000   Code   RO         4367    .ARM.Collect$$$$0000000D  mc_w.l(entry10a.o)
    0x08000094   0x08000094   0x00000000   Code   RO         4369    .ARM.Collect$$$$0000000F  mc_w.l(entry11a.o)
    0x08000094   0x08000094   0x00000004   Code   RO         4358    .ARM.Collect$$$$00002712  mc_w.l(entry2.o)
    0x08000098   0x08000098   0x000001e2   Code   RO         2861    .emb_text           NSUC1602_Motor_Math.lib(gcf_lib.o)
    0x0800027a   0x0800027a   0x00000002   PAD
    0x0800027c   0x0800027c   0x00000222   Code   RO         2917    .emb_text           NSUC1602_Motor_Math.lib(gmc_lib.o)
    0x0800049e   0x0800049e   0x00000002   PAD
    0x080004a0   0x080004a0   0x0000006e   Code   RO         2933    .emb_text           NSUC1602_Motor_Math.lib(mm_lib.o)
    0x0800050e   0x0800050e   0x00000002   PAD
    0x08000510   0x08000510   0x000001ba   Code   RO         2977    .emb_text           NSUC1602_Motor_Math.lib(amc_lib.o)
    0x080006ca   0x080006ca   0x00000002   PAD
    0x080006cc   0x080006cc   0x0000005c   Code   RO            4  * .text               startup_nsuc1602.o
    0x08000728   0x08000728   0x00000062   Code   RO         4307    .text               mc_w.l(uldiv.o)
    0x0800078a   0x0800078a   0x0000001e   Code   RO         4309    .text               mc_w.l(llshl.o)
    0x080007a8   0x080007a8   0x00000024   Code   RO         4311    .text               mc_w.l(llsshr.o)
    0x080007cc   0x080007cc   0x00000024   Code   RO         4313    .text               mc_w.l(memcpya.o)
    0x080007f0   0x080007f0   0x00000024   Code   RO         4315    .text               mc_w.l(memseta.o)
    0x08000814   0x08000814   0x00000064   Code   RO         4321    .text               mf_w.l(fmul.o)
    0x08000878   0x08000878   0x0000007c   Code   RO         4323    .text               mf_w.l(fdiv.o)
    0x080008f4   0x080008f4   0x00000018   Code   RO         4325    .text               mf_w.l(fscalb.o)
    0x0800090c   0x0800090c   0x0000014e   Code   RO         4327    .text               mf_w.l(dadd.o)
    0x08000a5a   0x08000a5a   0x000000e4   Code   RO         4329    .text               mf_w.l(dmul.o)
    0x08000b3e   0x08000b3e   0x000000de   Code   RO         4331    .text               mf_w.l(ddiv.o)
    0x08000c1c   0x08000c1c   0x0000002e   Code   RO         4333    .text               mf_w.l(dscalb.o)
    0x08000c4a   0x08000c4a   0x00000012   Code   RO         4335    .text               mf_w.l(fflti.o)
    0x08000c5c   0x08000c5c   0x00000032   Code   RO         4341    .text               mf_w.l(ffixi.o)
    0x08000c8e   0x08000c8e   0x00000028   Code   RO         4343    .text               mf_w.l(ffixui.o)
    0x08000cb6   0x08000cb6   0x0000003e   Code   RO         4345    .text               mf_w.l(dfixi.o)
    0x08000cf4   0x08000cf4   0x00000026   Code   RO         4347    .text               mf_w.l(f2d.o)
    0x08000d1a   0x08000d1a   0x00000002   PAD
    0x08000d1c   0x08000d1c   0x00000030   Code   RO         4349    .text               mf_w.l(cdcmple.o)
    0x08000d4c   0x08000d4c   0x00000030   Code   RO         4351    .text               mf_w.l(cdrcmple.o)
    0x08000d7c   0x08000d7c   0x00000038   Code   RO         4353    .text               mf_w.l(d2f.o)
    0x08000db4   0x08000db4   0x00000014   Code   RO         4355    .text               mf_w.l(cfcmple.o)
    0x08000dc8   0x08000dc8   0x00000020   Code   RO         4371    .text               mc_w.l(llushr.o)
    0x08000de8   0x08000de8   0x00000000   Code   RO         4373    .text               mc_w.l(iusefp.o)
    0x08000de8   0x08000de8   0x0000006e   Code   RO         4374    .text               mf_w.l(fepilogue.o)
    0x08000e56   0x08000e56   0x000000ba   Code   RO         4376    .text               mf_w.l(depilogue.o)
    0x08000f10   0x08000f10   0x00000024   Code   RO         4378    .text               mc_w.l(init.o)
    0x08000f34   0x08000f34   0x0000003a   Code   RO         4388    .text               mc_w.l(__dczerorl.o)
    0x08000f6e   0x08000f6e   0x00000002   PAD
    0x08000f70   0x08000f70   0x00000014   Code   RO         1071    i.ADC_IRQHandler    nvsns_foc.o
    0x08000f84   0x08000f84   0x00000030   Code   RO          978    i.AMC_FWInit_F16    mtr_adv_init.o
    0x08000fb4   0x08000fb4   0x0000001c   Code   RO         2978    i.AMC_InitObsrv_F16  NSUC1602_Motor_Math.lib(amc_lib.o)
    0x08000fd0   0x08000fd0   0x00000038   Code   RO         2980    i.AMC_TrackObsrv_F16  NSUC1602_Motor_Math.lib(amc_lib.o)
    0x08001008   0x08001008   0x0000000e   Code   RO         2522    i.AlarmCheck10msTask  fault_diagnose.o
    0x08001016   0x08001016   0x00000002   Code   RO         2523    i.AlarmCheck1msTask  fault_diagnose.o
    0x08001018   0x08001018   0x00000094   Code   RO         1073    i.AutomaticMode     nvsns_foc.o
    0x080010ac   0x080010ac   0x00000100   Code   RO         2188    i.BSM_BitEndCallback  lin_identification_and_configuration.o
    0x080011ac   0x080011ac   0x0000003c   Code   RO         2189    i.BSM_FeCallback    lin_identification_and_configuration.o
    0x080011e8   0x080011e8   0x0000000c   Code   RO         2190    i.BSM_GetBSMNodeStatus  lin_identification_and_configuration.o
    0x080011f4   0x080011f4   0x000000a0   Code   RO         2191    i.BSM_InitShuntMeasurement  lin_identification_and_configuration.o
    0x08001294   0x08001294   0x00000058   Code   RO         2192    i.BSM_Reset         lin_identification_and_configuration.o
    0x080012ec   0x080012ec   0x0000002c   Code   RO         2193    i.BSM_ResetInFrameEnd  lin_identification_and_configuration.o
    0x08001318   0x08001318   0x0000003c   Code   RO         2194    i.BSM_ShuntMeasurement  lin_identification_and_configuration.o
    0x08001354   0x08001354   0x00000030   Code   RO         1074    i.BrakeOutput       nvsns_foc.o
    0x08001384   0x08001384   0x00000002   Code   RO          660    i.BusFaultHandler   handler.o
    0x08001386   0x08001386   0x00000002   PAD
    0x08001388   0x08001388   0x0000000c   Code   RO         3227    i.BusIdleStartMeasurement  lin_api.lib(lin_api.o)
    0x08001394   0x08001394   0x0000003c   Code   RO         2663    i.CHP_IRQHandler    fault_handler.o
    0x080013d0   0x080013d0   0x0000002c   Code   RO          564    i.CalcIgbtTemp      ntcdrive.o
    0x080013fc   0x080013fc   0x00000014   Code   RO         1075    i.CalcOpenLoop      nvsns_foc.o
    0x08001410   0x08001410   0x00000078   Code   RO          565    i.CalcSensorTemp    ntcdrive.o
    0x08001488   0x08001488   0x00000044   Code   RO         2411    i.CalculateCheckSum  lin_init.o
    0x080014cc   0x080014cc   0x00000020   Code   RO         1076    i.ChangeAdcQ5ToBEMF  nvsns_foc.o
    0x080014ec   0x080014ec   0x00000020   Code   RO         1077    i.ChangeAdcQ5ToIbus  nvsns_foc.o
    0x0800150c   0x0800150c   0x00000068   Code   RO         2529    i.CheckHardwareOcp  fault_diagnose.o
    0x08001574   0x08001574   0x00000094   Code   RO         2530    i.CheckHardwareShortCircuit  fault_diagnose.o
    0x08001608   0x08001608   0x00000002   Code   RO          607    i.CheckSleepStatus  sleep_control.o
    0x0800160a   0x0800160a   0x00000002   PAD
    0x0800160c   0x0800160c   0x00000010   Code   RO         3503    i.DQ_DualSpaceBlendReset  FOCLIB_VOLV_251209.lib(dq_dual_space_switch.o)
    0x0800161c   0x0800161c   0x0000000c   Code   RO         3508    i.DQ_DualSpaceSetBlendStep  FOCLIB_VOLV_251209.lib(dq_dual_space_switch.o)
    0x08001628   0x08001628   0x0000001c   Code   RO         3132    i.DeadTimeCompensationInit  NSUC1602_Motor_Math.lib(deadtime_comp.o)
    0x08001644   0x08001644   0x00000038   Code   RO          255    i.DebugGPIO_Init    lin_appl.o
    0x0800167c   0x0800167c   0x00000002   Code   RO          661    i.DebugMonHandler   handler.o
    0x0800167e   0x0800167e   0x0000002a   Code   RO          506    i.Derating_Apply    derating_control.o
    0x080016a8   0x080016a8   0x0000003a   Code   RO          508    i.Derating_ConvertRpmToFrac16  derating_control.o
    0x080016e2   0x080016e2   0x00000016   Code   RO          509    i.Derating_GetMaxAllowedRpm  derating_control.o
    0x080016f8   0x080016f8   0x00000032   Code   RO          510    i.Derating_Init     derating_control.o
    0x0800172a   0x0800172a   0x00000002   PAD
    0x0800172c   0x0800172c   0x0000002c   Code   RO         1079    i.DisableOutput     nvsns_foc.o
    0x08001758   0x08001758   0x000001fc   Code   RO         1080    i.EPWM_IRQHandler   nvsns_foc.o
    0x08001954   0x08001954   0x00000030   Code   RO         1081    i.EnableOutput      nvsns_foc.o
    0x08001984   0x08001984   0x00000002   Code   RO          256    i.ErrorHandler      lin_appl.o
    0x08001986   0x08001986   0x00000002   PAD
    0x08001988   0x08001988   0x000000c0   Code   RO         2707    i.FAULT_Init        fault_init.o
    0x08001a48   0x08001a48   0x00000002   Code   RO          663    i.FLASH_IRQHandler  handler.o
    0x08001a4a   0x08001a4a   0x00000002   PAD
    0x08001a4c   0x08001a4c   0x00000030   Code   RO         1082    i.FOC_1MSTASK       nvsns_foc.o
    0x08001a7c   0x08001a7c   0x00000180   Code   RO         1010    i.FOC_AdcInit       foc_init.o
    0x08001bfc   0x08001bfc   0x000000fc   Code   RO         1011    i.FOC_EpwmInit      foc_init.o
    0x08001cf8   0x08001cf8   0x00000218   Code   RO         1012    i.FOC_GduInit       foc_init.o
    0x08001f10   0x08001f10   0x00000018   Code   RO          257    i.FeedDWDG          lin_appl.o
    0x08001f28   0x08001f28   0x00000154   Code   RO         1083    i.FocFastLoop       nvsns_foc.o
    0x0800207c   0x0800207c   0x0000018c   Code   RO         1084    i.FocSlowLoop       nvsns_foc.o
    0x08002208   0x08002208   0x00000024   Code   RO         4044    i.GCF_IntegratorTR_F16_AIWIN  FOCLIB_VOLV_251209.lib(transform.o)
    0x0800222c   0x0800222c   0x000000f8   Code   RO         4202    i.GCF_PositionalPI_F16  FOCLIB_VOLV_251209.lib(pi.o)
    0x08002324   0x08002324   0x00000028   Code   RO         2867    i.GCF_Ramp_F16      NSUC1602_Motor_Math.lib(gcf_lib.o)
    0x0800234c   0x0800234c   0x00000030   Code   RO         2666    i.GDU_IRQHandler    fault_handler.o
    0x0800237c   0x0800237c   0x0000001c   Code   RO         2412    i.GotoSleep         lin_init.o
    0x08002398   0x08002398   0x000000a4   Code   RO         3625    i.HFI_CalculateInductanceValues  FOCLIB_VOLV_251209.lib(hfi_lib.o)
    0x0800243c   0x0800243c   0x00000002   Code   RO          664    i.HardFaultHandler  handler.o
    0x0800243e   0x0800243e   0x00000012   Code   RO         3817    i.IQ_HPFilterInit   FOCLIB_VOLV_251209.lib(iq_filter.o)
    0x08002450   0x08002450   0x000000cc   Code   RO         3820    i.IQ_LPFilterCalc   FOCLIB_VOLV_251209.lib(iq_filter.o)
    0x0800251c   0x0800251c   0x0000000c   Code   RO         3821    i.IQ_LPFilterInit   FOCLIB_VOLV_251209.lib(iq_filter.o)
    0x08002528   0x08002528   0x000000bc   Code   RO         3822    i.IQ_LPFilterParaCalc  FOCLIB_VOLV_251209.lib(iq_filter.o)
    0x080025e4   0x080025e4   0x00000048   Code   RO         3823    i.IQ_LPFilterSetCutoffHz  FOCLIB_VOLV_251209.lib(iq_filter.o)
    0x0800262c   0x0800262c   0x00000480   Code   RO         1088    i.InitFocParas      nvsns_foc.o
    0x08002aac   0x08002aac   0x0000003c   Code   RO         4048    i.InitFreqToAngleIncrement  FOCLIB_VOLV_251209.lib(transform.o)
    0x08002ae8   0x08002ae8   0x0000008c   Code   RO         1090    i.InitMotorConfig   nvsns_foc.o
    0x08002b74   0x08002b74   0x0000003c   Code   RO          258    i.InitWatchDog      lin_appl.o
    0x08002bb0   0x08002bb0   0x00000054   Code   RO         2195    i.LINPORT_IRQHandler  lin_identification_and_configuration.o
    0x08002c04   0x08002c04   0x00000010   Code   RO         2414    i.LINUART_Enable    lin_init.o
    0x08002c14   0x08002c14   0x000000b0   Code   RO         2415    i.LINUART_IRQHandler  lin_init.o
    0x08002cc4   0x08002cc4   0x000000bc   Code   RO         2416    i.LINUART_Init      lin_init.o
    0x08002d80   0x08002d80   0x00000044   Code   RO         2417    i.LINUART_ReceiveDataByFIFO  lin_init.o
    0x08002dc4   0x08002dc4   0x00000070   Code   RO         2418    i.LINUART_TransmitDataByFIFO  lin_init.o
    0x08002e34   0x08002e34   0x00000068   Code   RO         2196    i.LIN_AssignFrameIDRange  lin_identification_and_configuration.o
    0x08002e9c   0x08002e9c   0x0000005c   Code   RO         2197    i.LIN_AssignNAD     lin_identification_and_configuration.o
    0x08002ef8   0x08002ef8   0x00000040   Code   RO         3228    i.LIN_CheckPID      lin_api.lib(lin_api.o)
    0x08002f38   0x08002f38   0x0000000c   Code   RO         2198    i.LIN_ClearResponseFlagForDiagnosisFrame  lin_identification_and_configuration.o
    0x08002f44   0x08002f44   0x0000009c   Code   RO         2201    i.LIN_ConditionalChangeNAD  lin_identification_and_configuration.o
    0x08002fe0   0x08002fe0   0x0000004c   Code   RO         2202    i.LIN_EnterProgramSession  lin_identification_and_configuration.o
    0x0800302c   0x0800302c   0x0000000c   Code   RO         2203    i.LIN_GetResponseFlagForDiagnosisFrame  lin_identification_and_configuration.o
    0x08003038   0x08003038   0x0000004c   Code   RO         2206    i.LIN_NodeConfigAndIndentifByDiagnosticFrame  lin_identification_and_configuration.o
    0x08003084   0x08003084   0x000000d0   Code   RO         2207    i.LIN_ReadByIdentifier  lin_identification_and_configuration.o
    0x08003154   0x08003154   0x00000098   Code   RO         2208    i.LIN_SNPD          lin_identification_and_configuration.o
    0x080031ec   0x080031ec   0x00000040   Code   RO         2209    i.LIN_SaveConfiguration  lin_identification_and_configuration.o
    0x0800322c   0x0800322c   0x00000010   Code   RO         2210    i.LIN_SetSendingResponseForConfig  lin_identification_and_configuration.o
    0x0800323c   0x0800323c   0x0000014c   Code   RO          259    i.LinApplMain       lin_appl.o
    0x08003388   0x08003388   0x00000074   Code   RO         2934    i.MM_AtanXYF16      NSUC1602_Motor_Math.lib(mm_lib.o)
    0x080033fc   0x080033fc   0x00000074   Code   RO         2936    i.MM_QuartAtanF16   NSUC1602_Motor_Math.lib(mm_lib.o)
    0x08003470   0x08003470   0x0000003c   Code   RO         2937    i.MM_SqrtLut_F16    NSUC1602_Motor_Math.lib(mm_lib.o)
    0x080034ac   0x080034ac   0x00000090   Code   RO         2938    i.MM_ThetaTransferTrigonoLut  NSUC1602_Motor_Math.lib(mm_lib.o)
    0x0800353c   0x0800353c   0x00000048   Code   RO           13    i.MainTask          main.o
    0x08003584   0x08003584   0x0000002c   Code   RO         2212    i.MatchFunctionID   lin_identification_and_configuration.o
    0x080035b0   0x080035b0   0x00000018   Code   RO         2213    i.MatchNAD          lin_identification_and_configuration.o
    0x080035c8   0x080035c8   0x0000002c   Code   RO         2214    i.MatchSupplierID   lin_identification_and_configuration.o
    0x080035f4   0x080035f4   0x00000014   Code   RO         2215    i.MatchWildcardID   lin_identification_and_configuration.o
    0x08003608   0x08003608   0x00000002   Code   RO          665    i.MemManageHandler  handler.o
    0x0800360a   0x0800360a   0x00000002   PAD
    0x0800360c   0x0800360c   0x000000e8   Code   RO          437    i.MotorStateCtrl    motor_state_ctrl.o
    0x080036f4   0x080036f4   0x0000000a   Code   RO         4122    i.MulQ15_By_IntmHz  FOCLIB_VOLV_251209.lib(qpr_fixed.o)
    0x080036fe   0x080036fe   0x00000002   Code   RO          666    i.NMIHandler        handler.o
    0x08003700   0x08003700   0x00000016   Code   RO         1013    i.NVIC_DisableIRQ   foc_init.o
    0x08003716   0x08003716   0x00000020   Code   RO         1014    i.NVIC_SetPriority  foc_init.o
    0x08003736   0x08003736   0x00000002   PAD
    0x08003738   0x08003738   0x0000011c   Code   RO         3229    i.NotifyRxTxStatus  lin_api.lib(lin_api.o)
    0x08003854   0x08003854   0x00000064   Code   RO         2739    i.PARAM_ID_Init     foclib_init.o
    0x080038b8   0x080038b8   0x00000050   Code   RO         2667    i.PMU_IRQHandler    fault_handler.o
    0x08003908   0x08003908   0x0000003c   Code   RO          333    i.PWMIO_CheckTimeout  pwm_appl.o
    0x08003944   0x08003944   0x00000034   Code   RO          334    i.PWMIO_ConfirmDutyCycle  pwm_appl.o
    0x08003978   0x08003978   0x000000ac   Code   RO          339    i.PWMIO_IRQHandler  pwm_appl.o
    0x08003a24   0x08003a24   0x0000000e   Code   RO          342    i.PWMIO_Task10ms    pwm_appl.o
    0x08003a32   0x08003a32   0x00000002   PAD
    0x08003a34   0x08003a34   0x00000038   Code   RO          343    i.PWMOUT_Set        pwm_appl.o
    0x08003a6c   0x08003a6c   0x0000002c   Code   RO          344    i.PWMOUT_SetEnable  pwm_appl.o
    0x08003a98   0x08003a98   0x00000002   Code   RO          667    i.PendSVHandler     handler.o
    0x08003a9a   0x08003a9a   0x00000002   PAD
    0x08003a9c   0x08003a9c   0x00000018   Code   RO          260    i.PowerEnableForward  lin_appl.o
    0x08003ab4   0x08003ab4   0x0000007c   Code   RO          261    i.PowerEnableGPIO_Init  lin_appl.o
    0x08003b30   0x08003b30   0x00000018   Code   RO          262    i.PowerEnableReverse  lin_appl.o
    0x08003b48   0x08003b48   0x00000002   Code   RO         2419    i.PrepareToWakeup   lin_init.o
    0x08003b4a   0x08003b4a   0x00000002   PAD
    0x08003b4c   0x08003b4c   0x000000b4   Code   RO         4123    i.QPR_FXP_TestLite_ReinitIfNeeded  FOCLIB_VOLV_251209.lib(qpr_fixed.o)
    0x08003c00   0x08003c00   0x0000007c   Code   RO         4124    i.QPR_FXP_TestLite_Step  FOCLIB_VOLV_251209.lib(qpr_fixed.o)
    0x08003c7c   0x08003c7c   0x00000024   Code   RO         2362    i.ReadNADFromNVR    lin_nvr.o
    0x08003ca0   0x08003ca0   0x0000003c   Code   RO         2363    i.ReadPIDFromNVR    lin_nvr.o
    0x08003cdc   0x08003cdc   0x00000034   Code   RO         2420    i.ResetLINResponseErrorForUser  lin_init.o
    0x08003d10   0x08003d10   0x00000034   Code   RO         2421    i.ResetProtocolState  lin_init.o
    0x08003d44   0x08003d44   0x00000002   Code   RO          668    i.SVCHandler        handler.o
    0x08003d46   0x08003d46   0x00000002   PAD
    0x08003d48   0x08003d48   0x00000048   Code   RO         3230    i.SetLINResponseError  lin_api.lib(lin_api.o)
    0x08003d90   0x08003d90   0x00000040   Code   RO         2422    i.SetLINResponseErrorForUser  lin_init.o
    0x08003dd0   0x08003dd0   0x000001f4   Code   RO         1093    i.SetPwmDutyAIWIN   nvsns_foc.o
    0x08003fc4   0x08003fc4   0x00000064   Code   RO         2364    i.SetRequestEnterBootloader  lin_nvr.o
    0x08004028   0x08004028   0x00000014   Code   RO         3187    i.SmartAlgnInit     NSUC1602_Motor_Math.lib(smart_align.o)
    0x0800403c   0x0800403c   0x00000154   Code   RO         1094    i.StateAlign        nvsns_foc.o
    0x08004190   0x08004190   0x0000008c   Code   RO         1095    i.StateCalib        nvsns_foc.o
    0x0800421c   0x0800421c   0x00000040   Code   RO         1096    i.StateFault        nvsns_foc.o
    0x0800425c   0x0800425c   0x00000058   Code   RO         1097    i.StateInit         nvsns_foc.o
    0x080042b4   0x080042b4   0x00000010   Code   RO         1098    i.StateReady        nvsns_foc.o
    0x080042c4   0x080042c4   0x0000001c   Code   RO         1099    i.StateReset        nvsns_foc.o
    0x080042e0   0x080042e0   0x0000013c   Code   RO         1100    i.StateRun          nvsns_foc.o
    0x0800441c   0x0800441c   0x0000001c   Code   RO          955    i.SysTickHandler    systick_isr.o
    0x08004438   0x08004438   0x00000044   Code   RO          844    i.SysTick_Init      systick.o
    0x0800447c   0x0800447c   0x00000010   Code   RO          812    i.SystemInit        system.o
    0x0800448c   0x0800448c   0x00000038   Code   RO           14    i.Task1000msProcess  main.o
    0x080044c4   0x080044c4   0x00000002   Code   RO           15    i.Task100msProcess  main.o
    0x080044c6   0x080044c6   0x00000002   Code   RO           16    i.Task10msCanE2promProcess  main.o
    0x080044c8   0x080044c8   0x00000012   Code   RO           17    i.Task10msProcess   main.o
    0x080044da   0x080044da   0x00000002   PAD
    0x080044dc   0x080044dc   0x00000030   Code   RO           18    i.Task1msProcess    main.o
    0x0800450c   0x0800450c   0x00000024   Code   RO          845    i.Timer_GetFASTTime  systick.o
    0x08004530   0x08004530   0x00000014   Code   RO          846    i.Timer_Start       systick.o
    0x08004544   0x08004544   0x00000020   Code   RO          263    i.UpdateLinATCPFault  lin_appl.o
    0x08004564   0x08004564   0x000000a4   Code   RO          264    i.UpdateLinATCPStatus  lin_appl.o
    0x08004608   0x08004608   0x00000002   Code   RO          669    i.UsageFaultHandler  handler.o
    0x0800460a   0x0800460a   0x00000022   Code   RO          980    i.WM_Init           mtr_adv_init.o
    0x0800462c   0x0800462c   0x0000013c   Code   RO         3092    i.WM_WindDetection  NSUC1602_Motor_Math.lib(windmilling.o)
    0x08004768   0x08004768   0x00000024   Code   RO         4052    i.WrapAngleQ15      FOCLIB_VOLV_251209.lib(transform.o)
    0x0800478c   0x0800478c   0x00000008   Code   RO         4053    i.WrapAngleSumQ15   FOCLIB_VOLV_251209.lib(transform.o)
    0x08004794   0x08004794   0x00000024   Code   RO         2423    i.WriteResponseError  lin_init.o
    0x080047b8   0x080047b8   0x0000002a   Code   RO         3824    i._IQadd            FOCLIB_VOLV_251209.lib(iq_filter.o)
    0x080047e2   0x080047e2   0x0000000e   Code   RO         4382    i.__scatterload_copy  mc_w.l(handlers.o)
    0x080047f0   0x080047f0   0x00000002   Code   RO         4383    i.__scatterload_null  mc_w.l(handlers.o)
    0x080047f2   0x080047f2   0x0000000e   Code   RO         4384    i.__scatterload_zeroinit  mc_w.l(handlers.o)
    0x08004800   0x08004800   0x0000000c   Code   RO           19    i.confirmComType    main.o
    0x0800480c   0x0800480c   0x0000010c   Code   RO         2536    i.getCurrentMaxMin  fault_diagnose.o
    0x08004918   0x08004918   0x00000026   Code   RO         2069    i.l_atcp_struct_trans_data_buffer  lin_api_appl.o
    0x0800493e   0x0800493e   0x00000026   Code   RO         2074    i.l_fault_trans_data_buffer  lin_api_appl.o
    0x08004964   0x08004964   0x00000028   Code   RO         2075    i.l_flg_set_update_flags  lin_api_appl.o
    0x0800498c   0x0800498c   0x00000024   Code   RO         3233    i.l_ifc_connect_MyLinIfc  lin_api.lib(lin_api.o)
    0x080049b0   0x080049b0   0x00000014   Code   RO         3235    i.l_ifc_init_MyLinIfc  lin_api.lib(lin_api.o)
    0x080049c4   0x080049c4   0x000001c0   Code   RO         3238    i.l_ifc_rx_MyLinIfc  lin_api.lib(lin_api.o)
    0x08004b84   0x08004b84   0x00000030   Code   RO         2425    i.l_sys_init        lin_init.o
    0x08004bb4   0x08004bb4   0x00000026   Code   RO         2079    i.l_ver_trans_data_buffer  lin_api_appl.o
    0x08004bda   0x08004bda   0x00000020   Code   RO         4125    i.mHzToAngleIncQ15  FOCLIB_VOLV_251209.lib(qpr_fixed.o)
    0x08004bfa   0x08004bfa   0x00000002   PAD
    0x08004bfc   0x08004bfc   0x00000028   Code   RO           20    i.main              main.o
    0x08004c24   0x08004c24   0x00000052   Code   RO         3883    i.motorInitCalculations  FOCLIB_VOLV_251209.lib(motor_data_calc.o)
    0x08004c76   0x08004c76   0x00000048   Code   RO         4126    i.qprFxpInit        FOCLIB_VOLV_251209.lib(qpr_fixed.o)
    0x08004cbe   0x08004cbe   0x0000001a   Code   RO         4127    i.qprFxpSetWcByAlphamhz  FOCLIB_VOLV_251209.lib(qpr_fixed.o)
    0x08004cd8   0x08004cd8   0x00000022   Code   RO         4128    i.qprFxpSetWcmHz    FOCLIB_VOLV_251209.lib(qpr_fixed.o)
    0x08004cfa   0x08004cfa   0x000000ba   Code   RO         4129    i.qprFxpUpdate      FOCLIB_VOLV_251209.lib(qpr_fixed.o)
    0x08004db4   0x08004db4   0x0000000e   Code   RO         4130    i.qpr_sin_q15_local  FOCLIB_VOLV_251209.lib(qpr_fixed.o)
    0x08004dc2   0x08004dc2   0x00000104   Code   RO         4131    i.qpr_update_coefs_q15  FOCLIB_VOLV_251209.lib(qpr_fixed.o)
    0x08004ec6   0x08004ec6   0x00000002   PAD
    0x08004ec8   0x08004ec8   0x00000020   Code   RO         1101    i.saturate_16       nvsns_foc.o
    0x08004ee8   0x08004ee8   0x0000001a   Code   RO         4132    i.sincos_q15        FOCLIB_VOLV_251209.lib(qpr_fixed.o)
    0x08004f02   0x08004f02   0x0000004e   Code   RO         2742    i.stallDetectionInit  foclib_init.o
    0x08004f50   0x08004f50   0x00000012   Data   RO          512    .constdata          derating_control.o
    0x08004f62   0x08004f62   0x00000006   Data   RO          513    .constdata          derating_control.o
    0x08004f68   0x08004f68   0x00000010   Data   RO          514    .constdata          derating_control.o
    0x08004f78   0x08004f78   0x000001e2   Data   RO          566    .constdata          ntcdrive.o
    0x0800515a   0x0800515a   0x00000002   PAD
    0x0800515c   0x0800515c   0x00000188   Data   RO         1396    .constdata          state_machine.o
    0x080052e4   0x080052e4   0x00000004   Data   RO         2159    .constdata          lin_config.o
    0x080052e8   0x080052e8   0x00000006   Data   RO         2160    .constdata          lin_config.o
    0x080052ee   0x080052ee   0x00000002   PAD
    0x080052f0   0x080052f0   0x00000048   Data   RO         2161    .constdata          lin_config.o
    0x08005338   0x08005338   0x00000038   Data   RO         2217    .constdata          lin_identification_and_configuration.o
    0x08005370   0x08005370   0x00000020   Data   RO         4380    Region$$Table       anon$$obj.o


    Execution Region RW_IRAM1 (Exec base: 0x20000000, Load base: 0x08005390, Size: 0x00000f48, Max: 0x00001000, ABSOLUTE, COMPRESSED[0x0000010c])

    Exec Addr    Load Addr    Size         Type   Attr      Idx    E Section Name        Object

    0x20000000   COMPRESSED   0x0000003c   Data   RW           23    .data               main.o
    0x2000003c   COMPRESSED   0x00000001   Data   RW          265    .data               lin_appl.o
    0x2000003d   COMPRESSED   0x00000003   PAD
    0x20000040   COMPRESSED   0x0000003c   Data   RW          346    .data               pwm_appl.o
    0x2000007c   COMPRESSED   0x00000016   Data   RW          442    .data               motor_state_ctrl.o
    0x20000092   COMPRESSED   0x00000002   PAD
    0x20000094   COMPRESSED   0x00000004   Data   RW          813    .data               system.o
    0x20000098   COMPRESSED   0x00000004   Data   RW          850    .data               systick.o
    0x2000009c   COMPRESSED   0x00000004   Data   RW          956    .data               systick_isr.o
    0x200000a0   COMPRESSED   0x00000008   Data   RW          957    .data               systick_isr.o
    0x200000a8   COMPRESSED   0x00000094   Data   RW         1057    .data               foc_paras.o
    0x2000013c   COMPRESSED   0x0000002e   Data   RW         1104    .data               nvsns_foc.o
    0x2000016a   COMPRESSED   0x00000002   Data   RW         2080    .data               lin_api_appl.o
    0x2000016c   COMPRESSED   0x00000004   PAD
    0x20000170   COMPRESSED   0x00000008   Data   RW         2081    .data               lin_api_appl.o
    0x20000178   COMPRESSED   0x00000008   Data   RW         2082    .data               lin_api_appl.o
    0x20000180   COMPRESSED   0x00000008   Data   RW         2084    .data               lin_api_appl.o
    0x20000188   COMPRESSED   0x00000008   Data   RW         2162    .data               lin_config.o
    0x20000190   COMPRESSED   0x00000008   Data   RW         2163    .data               lin_config.o
    0x20000198   COMPRESSED   0x00000008   Data   RW         2164    .data               lin_config.o
    0x200001a0   COMPRESSED   0x00000008   Data   RW         2165    .data               lin_config.o
    0x200001a8   COMPRESSED   0x00000008   Data   RW         2166    .data               lin_config.o
    0x200001b0   COMPRESSED   0x00000009   Data   RW         2167    .data               lin_config.o
    0x200001b9   COMPRESSED   0x00000002   Data   RW         2168    .data               lin_config.o
    0x200001bb   COMPRESSED   0x00000002   Data   RW         2169    .data               lin_config.o
    0x200001bd   COMPRESSED   0x00000008   Data   RW         2170    .data               lin_config.o
    0x200001c5   COMPRESSED   0x00000008   Data   RW         2171    .data               lin_config.o
    0x200001cd   COMPRESSED   0x00000003   PAD
    0x200001d0   COMPRESSED   0x00000018   Data   RW         2218    .data               lin_identification_and_configuration.o
    0x200001e8   COMPRESSED   0x00000008   Data   RW         2426    .data               lin_init.o
    0x200001f0   COMPRESSED   0x0000006c   Data   RW         2537    .data               fault_diagnose.o
    0x2000025c   COMPRESSED   0x0000000c   Data   RW         2939    .data               NSUC1602_Motor_Math.lib(mm_lib.o)
    0x20000268   COMPRESSED   0x00000002   Data   RW         2982    .data               NSUC1602_Motor_Math.lib(amc_lib.o)
    0x2000026a   COMPRESSED   0x00000002   Data   RW         3093    .data               NSUC1602_Motor_Math.lib(windmilling.o)
    0x2000026c   COMPRESSED   0x0000000a   Data   RW         3190    .data               NSUC1602_Motor_Math.lib(smart_align.o)
    0x20000276   COMPRESSED   0x00000002   PAD
    0x20000278   COMPRESSED   0x0000000d   Data   RW         3244    .data               lin_api.lib(lin_api.o)
    0x20000285   COMPRESSED   0x00000003   PAD
    0x20000288   COMPRESSED   0x00000010   Data   RW         3400    .data               FOCLIB_VOLV_251209.lib(curr_sample_1rps_aiwin.o)
    0x20000298   COMPRESSED   0x0000000a   Data   RW         3515    .data               FOCLIB_VOLV_251209.lib(dq_dual_space_switch.o)
    0x200002a2   COMPRESSED   0x00000002   PAD
    0x200002a4   COMPRESSED   0x00000004   Data   RW         4054    .data               FOCLIB_VOLV_251209.lib(transform.o)
    0x200002a8   COMPRESSED   0x0000002c   Data   RW         4134    .data               FOCLIB_VOLV_251209.lib(qpr_fixed.o)
    0x200002d4        -       0x00000030   Zero   RW          511    .bss                derating_control.o
    0x20000304        -       0x00000434   Zero   RW         1102    .bss                nvsns_foc.o
    0x20000738        -       0x00000009   Zero   RW         2158    .bss                lin_config.o
    0x20000741   COMPRESSED   0x00000003   PAD
    0x20000744        -       0x00000034   Zero   RW         2216    .bss                lin_identification_and_configuration.o
    0x20000778        -       0x00000080   Zero   RW         2367    .bss                lin_nvr.o
    0x200007f8        -       0x00000018   Zero   RW         2708    .bss                fault_init.o
    0x20000810        -       0x00000070   Zero   RW         3021    .bss                NSUC1602_Motor_Math.lib(curr_sample_1rps.o)
    0x20000880        -       0x0000001c   Zero   RW         3133    .bss                NSUC1602_Motor_Math.lib(deadtime_comp.o)
    0x2000089c        -       0x0000000a   Zero   RW         3243    .bss                lin_api.lib(lin_api.o)
    0x200008a6        -       0x00000016   Zero   RW         3399    .bss                FOCLIB_VOLV_251209.lib(curr_sample_1rps_aiwin.o)
    0x200008bc        -       0x00000158   Zero   RW         3647    .bss                FOCLIB_VOLV_251209.lib(hfi_lib.o)
    0x20000a14        -       0x000000c0   Zero   RW         3950    .bss                FOCLIB_VOLV_251209.lib(motor_param_id.o)
    0x20000ad4        -       0x0000001c   Zero   RW         4133    .bss                FOCLIB_VOLV_251209.lib(qpr_fixed.o)
    0x20000af0        -       0x00000054   Zero   RW         4224    .bss                FOCLIB_VOLV_251209.lib(stalldetection.o)
    0x20000b44   COMPRESSED   0x00000004   PAD
    0x20000b48        -       0x00000400   Zero   RW            1    STACK               startup_nsuc1602.o


==============================================================================

Image component sizes


      Code (inc. data)   RO Data    RW Data    ZI Data      Debug   Object Name

       172          0         40          0         48       5867   derating_control.o
       536         24          0        108          0      12475   fault_diagnose.o
       188         22          0          0          0       1603   fault_handler.o
       192         14          0          0         24       2366   fault_init.o
      1226         28          0          0          0      26742   foc_init.o
         0          0          0        148          0       9580   foc_paras.o
       178          4          0          0          0      16997   foclib_init.o
        18          0          0          0          0       4167   handler.o
       154         10          0         26          0       4771   lin_api_appl.o
       842        108          0          1          0      28868   lin_appl.o
         0          0         82         69          9       2637   lin_config.o
      1864        232         56         24         52      39578   lin_identification_and_configuration.o
       910        152          0          8          0       8045   lin_init.o
       196         36          0          0        128       2935   lin_nvr.o
       250         40          0         60          0      50231   main.o
       232         20          0         22          0       2189   motor_state_ctrl.o
        82          0          0          0          0       2515   mtr_adv_init.o
       164          8        482          0          0       2159   ntcdrive.o
      4500        270          0         46       1076      35908   nvsns_foc.o
       398         34          0         60          0      29547   pwm_appl.o
         2          0          0          0          0        467   sleep_control.o
        92         10        132          0       1024        900   startup_nsuc1602.o
         0          0        392          0          0       1394   state_machine.o
        16          8          0          4          0        731   system.o
       124         20          0          4          0      25736   systick.o
        28          4          0         12          0       1367   systick_isr.o

    ----------------------------------------------------------------------
     12388       1044       1220        604       2364     319775   Object Totals
         0          0         32          0          0          0   (incl. Generated)
        24          0          4         12          3          0   (incl. Padding)

    ----------------------------------------------------------------------

      Code (inc. data)   RO Data    RW Data    ZI Data      Debug   Library Member Name

         0          0          0         16         22       8191   curr_sample_1rps_aiwin.o
        28         10          0         10          0       3150   dq_dual_space_switch.o
       164         26          0          0        344      10149   hfi_lib.o
       536         26          0          0          0       5465   iq_filter.o
        82          0          0          0          0       5234   motor_data_calc.o
         0          0          0          0        192       7190   motor_param_id.o
       248          0          0          0          0       2239   pi.o
       964         20          0         44         28      13847   qpr_fixed.o
         0          0          0          0         84       1370   stalldetection.o
       140         16          0          4          0       3639   transform.o
       526          6          0          2          0       3410   amc_lib.o
         0          0          0          0        112       1738   curr_sample_1rps.o
        28          0          0          0         28       2013   deadtime_comp.o
       522          0          0          0          0       7485   gcf_lib.o
       546          0          0          0          0       1572   gmc_lib.o
       546         30          0         12          0       4779   mm_lib.o
        20          6          0         10          0       1009   smart_align.o
       316         10          0          2          0       8564   windmilling.o
       936        106          0         13         10      10701   lin_api.o
        58          0          0          0          0          0   __dczerorl.o
         0          0          0          0          0          0   entry.o
         0          0          0          0          0          0   entry10a.o
         0          0          0          0          0          0   entry11a.o
         8          4          0          0          0          0   entry2.o
         4          0          0          0          0          0   entry5.o
         0          0          0          0          0          0   entry7b.o
         0          0          0          0          0          0   entry8b.o
         8          4          0          0          0          0   entry9a.o
        30          0          0          0          0          0   handlers.o
        36          8          0          0          0         68   init.o
         0          0          0          0          0          0   iusefp.o
        30          0          0          0          0         68   llshl.o
        36          0          0          0          0         68   llsshr.o
        32          0          0          0          0         68   llushr.o
        36          0          0          0          0         68   memcpya.o
        36          0          0          0          0        108   memseta.o
        98          0          0          0          0         92   uldiv.o
        48          0          0          0          0         68   cdcmple.o
        48          0          0          0          0         68   cdrcmple.o
        20          0          0          0          0         68   cfcmple.o
        56          0          0          0          0         88   d2f.o
       334          0          0          0          0        148   dadd.o
       222          0          0          0          0        100   ddiv.o
       186          0          0          0          0        176   depilogue.o
        62          0          0          0          0         80   dfixi.o
       228          0          0          0          0         96   dmul.o
        46          0          0          0          0         80   dscalb.o
        38          0          0          0          0         68   f2d.o
       124          0          0          0          0         88   fdiv.o
       110          0          0          0          0        168   fepilogue.o
        50          0          0          0          0         68   ffixi.o
        40          0          0          0          0         68   ffixui.o
        18          0          0          0          0         68   fflti.o
       100          0          0          0          0         76   fmul.o
        24          0          0          0          0         68   fscalb.o

    ----------------------------------------------------------------------
      7784        272          0        120        824     103929   Library Totals
        16          0          0          7          4          0   (incl. Padding)

    ----------------------------------------------------------------------

      Code (inc. data)   RO Data    RW Data    ZI Data      Debug   Library Name

      2162         98          0         74        670      60474   FOCLIB_VOLV_251209.lib
      2504         52          0         26        140      30570   NSUC1602_Motor_Math.lib
       936        106          0         13         10      10701   lin_api.lib
       412         16          0          0          0        540   mc_w.l
      1754          0          0          0          0       1644   mf_w.l

    ----------------------------------------------------------------------
      7784        272          0        120        824     103929   Library Totals

    ----------------------------------------------------------------------

==============================================================================


      Code (inc. data)   RO Data    RW Data    ZI Data      Debug   

     20172       1316       1220        724       3188     413796   Grand Totals
     20172       1316       1220        268       3188     413796   ELF Image Totals (compressed)
     20172       1316       1220        268          0          0   ROM Totals

==============================================================================

    Total RO  Size (Code + RO Data)                21392 (  20.89kB)
    Total RW  Size (RW Data + ZI Data)              3912 (   3.82kB)
    Total ROM Size (Code + RO Data + RW Data)      21660 (  21.15kB)

==============================================================================

